                              1 ;--------------------------------------------------------
                              2 ; File Created by SDCC : FreeWare ANSI-C Compiler
                              3 ; Version 2.2.1 Mon Apr 29 16:51:42 2019
                              4 
                              5 ;--------------------------------------------------------
                              6 	.module lcc58520
                              7 	
                              8 ;--------------------------------------------------------
                              9 ; Public variables in this module
                             10 ;--------------------------------------------------------
                             11 	.globl _nine
                             12 	.globl _eight
                             13 	.globl _seven
                             14 	.globl _six
                             15 	.globl _five
                             16 	.globl _four
                             17 	.globl _three
                             18 	.globl _two
                             19 	.globl _one
                             20 	.globl _zero
                             21 	.globl _emptyIcon
                             22 	.globl _shockIcon
                             23 	.globl _jumpLook
                             24 	.globl _attackLook
                             25 	.globl _hurtLook
                             26 	.globl _simpleLook
                             27 	.globl _heartEmpty
                             28 	.globl _heartFill
                             29 	.globl _clear
                             30 	.globl _HUD_MAP
                             31 	.globl _banditScore
                             32 	.globl _classicIcon
                             33 	.globl _attackIcon
                             34 	.globl _number
                             35 	.globl _jumpIcon
                             36 	.globl _hurtIcon
                             37 	.globl _heart
                             38 	.globl _emptyHeart
                             39 	.globl _banditAttack2
                             40 	.globl _banditAttack1
                             41 	.globl _banditDead
                             42 	.globl _banditWalk2
                             43 	.globl _banditWalk1
                             44 	.globl _banditIDLE
                             45 	.globl _decors_data
                             46 	.globl _JUDGEHURT
                             47 	.globl _JUDGEATTACK2
                             48 	.globl _JUDGEATTACK1
                             49 	.globl _Shock
                             50 	.globl _CityMap
                             51 	.globl _JUDGEWALK2
                             52 	.globl _JUDGEWALK1
                             53 	.globl _JUDGEIDLE
                             54 	.globl _TitleScreen
                             55 	.globl _ScoreScreen
                             56 	.globl _GameOver
                             57 	.globl _BenMetLogo
                             58 	.globl _BenMetTiles
                             59 	.globl _logoWin
                             60 	.globl _logoTiles
                             61 	.globl _main
                             62 	.globl _initGame
                             63 	.globl _clearBkgAndWin
                             64 	.globl _showGameOver
                             65 	.globl _showScore
                             66 	.globl _EcranStart
                             67 	.globl _drawPv
                             68 	.globl _drawShock
                             69 	.globl _calculateScoreVillager
                             70 	.globl _drawScoreVillager
                             71 	.globl _drawScoreBandit
                             72 	.globl _scrollCity
                             73 	.globl _moveJudge
                             74 	.globl _moveBandits
                             75 	.globl _generateBandits
                             76 	.globl _generateBanditsST
                             77 	.globl _JudgeSendSentence
                             78 	.globl _JudgeGroundAttack
                             79 	.globl _JudgeWalk
                             80 	.globl _BanditDie
                             81 	.globl _BanditAttack
                             82 	.globl _BanditWalk
                             83 	.globl _drawBanditDead
                             84 	.globl _drawBanditAttack2
                             85 	.globl _drawBanditAttack1
                             86 	.globl _drawBanditWalk2
                             87 	.globl _drawBanditWalk1
                             88 	.globl _drawJudgeHurt
                             89 	.globl _drawJudgeWalk2
                             90 	.globl _drawJudgeWalk1
                             91 	.globl _drawJudgeIDLE
                             92 	.globl _drawJudgeAttack2
                             93 	.globl _drawJudgeAttack1
                             94 	.globl _moveShockWave
                             95 	.globl _checkCollideShockAttack
                             96 	.globl _checkBanditScore
                             97 	.globl _drawjudgeShockWave
                             98 	.globl _JudgeDoHurt
                             99 	.globl _checkColliderHammerAttack
                            100 	.globl _checkCollideBorder
                            101 	.globl _initBandits
                            102 	.globl _drawBanditIdle
                            103 	.globl _sound_jump
                            104 	.globl _gets
                            105 	.globl _puts
                            106 	.globl _sprintf
                            107 	.globl _printf
                            108 	.globl _putchar
                            109 	.globl _color
                            110 	.globl _gotogxy
                            111 	.globl _wrtchr
                            112 	.globl _getpix
                            113 	.globl _circle
                            114 	.globl _box
                            115 	.globl _line
                            116 	.globl _draw_image
                            117 	.globl _switch_data
                            118 	.globl _plot_point
                            119 	.globl _plot
                            120 	.globl _gprintf
                            121 	.globl _gprintn
                            122 	.globl _gprintln
                            123 	.globl _gprint
                            124 	.globl _setchar
                            125 	.globl _posy
                            126 	.globl _posx
                            127 	.globl _gotoxy
                            128 	.globl _arand
                            129 	.globl _initarand
                            130 	.globl _randw
                            131 	.globl _rand
                            132 	.globl _initrand
                            133 	.globl _get_tiles
                            134 	.globl _set_tiles
                            135 	.globl _get_data
                            136 	.globl _set_data
                            137 	.globl _scroll_sprite
                            138 	.globl _move_sprite
                            139 	.globl _get_sprite_prop
                            140 	.globl _set_sprite_prop
                            141 	.globl _get_sprite_tile
                            142 	.globl _set_sprite_tile
                            143 	.globl _get_sprite_data
                            144 	.globl _set_sprite_data
                            145 	.globl _scroll_win
                            146 	.globl _move_win
                            147 	.globl _get_win_tiles
                            148 	.globl _set_win_tiles
                            149 	.globl _set_win_data
                            150 	.globl _scroll_bkg
                            151 	.globl _move_bkg
                            152 	.globl _get_bkg_tiles
                            153 	.globl _set_bkg_tiles
                            154 	.globl _set_bkg_data
                            155 	.globl _hiramcpy
                            156 	.globl _display_off
                            157 	.globl _wait_vbl_done
                            158 	.globl _reset
                            159 	.globl _set_interrupts
                            160 	.globl _disable_interrupts
                            161 	.globl _enable_interrupts
                            162 	.globl _waitpadup
                            163 	.globl _waitpad
                            164 	.globl _joypad
                            165 	.globl _delay
                            166 	.globl _receive_byte
                            167 	.globl _send_byte
                            168 	.globl _get_mode
                            169 	.globl _mode
                            170 	.globl _add_TIM
                            171 	.globl _add_LCD
                            172 	.globl _add_VBL
                            173 	.globl _remove_JOY
                            174 	.globl _remove_SIO
                            175 	.globl _remove_TIM
                            176 	.globl _remove_LCD
                            177 	.globl _remove_VBL
                            178 	.globl _cgb_compatibility
                            179 	.globl _cpu_fast
                            180 	.globl _cpu_slow
                            181 	.globl _set_sprite_palette_entry
                            182 	.globl _set_bkg_palette_entry
                            183 	.globl _set_sprite_palette
                            184 	.globl _set_bkg_palette
                            185 	.globl _sgb_check
                            186 	.globl _bestScore
                            187 	.globl _isGameOver
                            188 	.globl _gameIsLaunch
                            189 	.globl _score_villager_digitDeux
                            190 	.globl _score_villager_digitUn
                            191 	.globl _score_villager
                            192 	.globl _score_bandit
                            193 	.globl _score_bandit_digitTrois
                            194 	.globl _score_bandit_digitDeux
                            195 	.globl _score_bandit_digitUn
                            196 	.globl _hammerPos
                            197 	.globl _borderBottom
                            198 	.globl _borderTop
                            199 	.globl _borderLeft
                            200 	.globl _borderRight
                            201 	.globl _j
                            202 	.globl _i
                            203 	.globl _isHurt
                            204 	.globl _isAttacking
                            205 	.globl _isWalking
                            206 	.globl _TimerScrollBKG
                            207 	.globl _TimerAnimationHurt
                            208 	.globl _TimerAnimationAttack
                            209 	.globl _TimerAnimationJump
                            210 	.globl _TimerAnimationWalk
                            211 	.globl _JudgePV
                            212 	.globl _JudgeSpeed
                            213 	.globl _shockSend
                            214 	.globl _posYShock
                            215 	.globl _posXShock
                            216 	.globl _posYJudge
                            217 	.globl _posXJudge
                            218 	.globl _nbBanditToDraw
                            219 	.globl _pickComportement
                            220 	.globl _bandits
                            221 	.globl _MAX_TIMER_BANDIT
                            222 	.globl _MAX_TIMER
                            223 ;--------------------------------------------------------
                            224 ; Externals used
                            225 ;--------------------------------------------------------
                            226 	.globl _IE_REG
                            227 	.globl _SVBK_REG
                            228 	.globl _OCPD_REG
                            229 	.globl _OCPS_REG
                            230 	.globl _BCPD_REG
                            231 	.globl _BCPS_REG
                            232 	.globl _RP_REG
                            233 	.globl _HDMA5_REG
                            234 	.globl _HDMA4_REG
                            235 	.globl _HDMA3_REG
                            236 	.globl _HDMA2_REG
                            237 	.globl _HDMA1_REG
                            238 	.globl _VBK_REG
                            239 	.globl _KEY1_REG
                            240 	.globl _WX_REG
                            241 	.globl _WY_REG
                            242 	.globl _OBP1_REG
                            243 	.globl _OBP0_REG
                            244 	.globl _BGP_REG
                            245 	.globl _DMA_REG
                            246 	.globl _LYC_REG
                            247 	.globl _LY_REG
                            248 	.globl _SCX_REG
                            249 	.globl _SCY_REG
                            250 	.globl _STAT_REG
                            251 	.globl _LCDC_REG
                            252 	.globl _NR52_REG
                            253 	.globl _NR51_REG
                            254 	.globl _NR50_REG
                            255 	.globl _NR44_REG
                            256 	.globl _NR43_REG
                            257 	.globl _NR42_REG
                            258 	.globl _NR41_REG
                            259 	.globl _NR34_REG
                            260 	.globl _NR33_REG
                            261 	.globl _NR32_REG
                            262 	.globl _NR31_REG
                            263 	.globl _NR30_REG
                            264 	.globl _NR24_REG
                            265 	.globl _NR23_REG
                            266 	.globl _NR22_REG
                            267 	.globl _NR21_REG
                            268 	.globl _NR14_REG
                            269 	.globl _NR13_REG
                            270 	.globl _NR12_REG
                            271 	.globl _NR11_REG
                            272 	.globl _NR10_REG
                            273 	.globl _IF_REG
                            274 	.globl _TAC_REG
                            275 	.globl _TMA_REG
                            276 	.globl _TIMA_REG
                            277 	.globl _DIV_REG
                            278 	.globl _SC_REG
                            279 	.globl _SB_REG
                            280 	.globl _P1_REG
                            281 	.globl __io_out
                            282 	.globl __io_in
                            283 	.globl __io_status
                            284 	.globl _sys_time
                            285 	.globl __cpu
                            286 ;--------------------------------------------------------
                            287 ; special function registers
                            288 ;--------------------------------------------------------
                            289 ;--------------------------------------------------------
                            290 ; special function bits 
                            291 ;--------------------------------------------------------
                            292 ;--------------------------------------------------------
                            293 ; internal ram data
                            294 ;--------------------------------------------------------
                            295 	.area _DATA
   0000                     296 _MAX_TIMER::
   0000                     297 	.ds 1
   0001                     298 _MAX_TIMER_BANDIT::
   0001                     299 	.ds 1
   0002                     300 _bandits::
   0002                     301 	.ds 42
   002C                     302 _pickComportement::
   002C                     303 	.ds 1
   002D                     304 _nbBanditToDraw::
   002D                     305 	.ds 1
   002E                     306 _posXJudge::
   002E                     307 	.ds 1
   002F                     308 _posYJudge::
   002F                     309 	.ds 1
   0030                     310 _posXShock::
   0030                     311 	.ds 1
   0031                     312 _posYShock::
   0031                     313 	.ds 1
   0032                     314 _shockSend::
   0032                     315 	.ds 1
   0033                     316 _JudgeSpeed::
   0033                     317 	.ds 1
   0034                     318 _JudgePV::
   0034                     319 	.ds 1
   0035                     320 _TimerAnimationWalk::
   0035                     321 	.ds 1
   0036                     322 _TimerAnimationJump::
   0036                     323 	.ds 1
   0037                     324 _TimerAnimationAttack::
   0037                     325 	.ds 1
   0038                     326 _TimerAnimationHurt::
   0038                     327 	.ds 1
   0039                     328 _TimerScrollBKG::
   0039                     329 	.ds 1
   003A                     330 _isWalking::
   003A                     331 	.ds 1
   003B                     332 _isAttacking::
   003B                     333 	.ds 1
   003C                     334 _isHurt::
   003C                     335 	.ds 1
   003D                     336 _i::
   003D                     337 	.ds 1
   003E                     338 _j::
   003E                     339 	.ds 1
   003F                     340 _borderRight::
   003F                     341 	.ds 1
   0040                     342 _borderLeft::
   0040                     343 	.ds 1
   0041                     344 _borderTop::
   0041                     345 	.ds 1
   0042                     346 _borderBottom::
   0042                     347 	.ds 1
   0043                     348 _hammerPos::
   0043                     349 	.ds 1
   0044                     350 _score_bandit_digitUn::
   0044                     351 	.ds 1
   0045                     352 _score_bandit_digitDeux::
   0045                     353 	.ds 1
   0046                     354 _score_bandit_digitTrois::
   0046                     355 	.ds 1
   0047                     356 _score_bandit::
   0047                     357 	.ds 1
   0048                     358 _score_villager::
   0048                     359 	.ds 1
   0049                     360 _score_villager_digitUn::
   0049                     361 	.ds 1
   004A                     362 _score_villager_digitDeux::
   004A                     363 	.ds 1
   004B                     364 _gameIsLaunch::
   004B                     365 	.ds 1
   004C                     366 _isGameOver::
   004C                     367 	.ds 1
   004D                     368 _bestScore::
   004D                     369 	.ds 1
                            370 ;--------------------------------------------------------
                            371 ; overlayable items in internal ram 
                            372 ;--------------------------------------------------------
                            373 	.area _OVERLAY
                            374 ;--------------------------------------------------------
                            375 ; indirectly addressable internal ram data
                            376 ;--------------------------------------------------------
                            377 	.area _ISEG
                            378 ;--------------------------------------------------------
                            379 ; bit data
                            380 ;--------------------------------------------------------
                            381 	.area _BSEG
                            382 ;--------------------------------------------------------
                            383 ; external ram data
                            384 ;--------------------------------------------------------
                            385 	.area _XSEG
                            386 ;--------------------------------------------------------
                            387 ; global & static initialisations
                            388 ;--------------------------------------------------------
                            389 	.area _GSINIT
                            390 	.area _GSFINAL
                            391 	.area _GSINIT
                            392 ;	game.c 1407
                            393 ; genAssign
                            394 ; AOP_HL for _MAX_TIMER
   0000 21 00 00            395 	ld	hl,#_MAX_TIMER + 0
   0003 36 0A               396 	ld	(hl),#0x0A
                            397 ;	game.c 1407
                            398 ; genAssign
                            399 ; AOP_HL for _MAX_TIMER_BANDIT
   0005 21 01 00            400 	ld	hl,#_MAX_TIMER_BANDIT + 0
   0008 36 0A               401 	ld	(hl),#0x0A
                            402 ;	game.c 1407
                            403 ; genAssign
                            404 ; AOP_HL for _nbBanditToDraw
   000A 21 2D 00            405 	ld	hl,#_nbBanditToDraw + 0
   000D 36 03               406 	ld	(hl),#0x03
                            407 ;	game.c 1407
                            408 ; genAssign
                            409 ; AOP_HL for _posXJudge
   000F 21 2E 00            410 	ld	hl,#_posXJudge + 0
   0012 36 50               411 	ld	(hl),#0x50
                            412 ;	game.c 1407
                            413 ; genAssign
                            414 ; AOP_HL for _posYJudge
   0014 21 2F 00            415 	ld	hl,#_posYJudge + 0
   0017 36 64               416 	ld	(hl),#0x64
                            417 ;	game.c 1407
                            418 ; genAssign
                            419 ; AOP_HL for _posXJudge
                            420 ; AOP_HL for _posXShock
   0019 21 2E 00            421 	ld	hl,#_posXJudge + 0
   001C 7E                  422 	ld	a,(hl)
   001D 21 30 00            423 	ld	hl,#_posXShock + 0
   0020 77                  424 	ld	(hl),a
                            425 ;	game.c 1407
                            426 ; genAssign
                            427 ; AOP_HL for _posYJudge
                            428 ; AOP_HL for _posYShock
   0021 21 2F 00            429 	ld	hl,#_posYJudge + 0
   0024 7E                  430 	ld	a,(hl)
   0025 21 31 00            431 	ld	hl,#_posYShock + 0
   0028 77                  432 	ld	(hl),a
                            433 ;	game.c 1407
                            434 ; genAssign
                            435 ; AOP_HL for _shockSend
   0029 21 32 00            436 	ld	hl,#_shockSend + 0
   002C 36 00               437 	ld	(hl),#0x00
                            438 ;	game.c 1407
                            439 ; genAssign
                            440 ; AOP_HL for _JudgeSpeed
   002E 21 33 00            441 	ld	hl,#_JudgeSpeed + 0
   0031 36 04               442 	ld	(hl),#0x04
                            443 ;	game.c 1407
                            444 ; genAssign
                            445 ; AOP_HL for _JudgePV
   0033 21 34 00            446 	ld	hl,#_JudgePV + 0
   0036 36 03               447 	ld	(hl),#0x03
                            448 ;	game.c 1407
                            449 ; genAssign
                            450 ; AOP_HL for _MAX_TIMER
                            451 ; AOP_HL for _TimerAnimationWalk
   0038 21 00 00            452 	ld	hl,#_MAX_TIMER + 0
   003B 7E                  453 	ld	a,(hl)
   003C 21 35 00            454 	ld	hl,#_TimerAnimationWalk + 0
   003F 77                  455 	ld	(hl),a
                            456 ;	game.c 1407
                            457 ; genAssign
                            458 ; AOP_HL for _MAX_TIMER
                            459 ; AOP_HL for _TimerAnimationJump
   0040 21 00 00            460 	ld	hl,#_MAX_TIMER + 0
   0043 7E                  461 	ld	a,(hl)
   0044 21 36 00            462 	ld	hl,#_TimerAnimationJump + 0
   0047 77                  463 	ld	(hl),a
                            464 ;	game.c 1407
                            465 ; genAssign
                            466 ; AOP_HL for _MAX_TIMER
                            467 ; AOP_HL for _TimerAnimationAttack
   0048 21 00 00            468 	ld	hl,#_MAX_TIMER + 0
   004B 7E                  469 	ld	a,(hl)
   004C 21 37 00            470 	ld	hl,#_TimerAnimationAttack + 0
   004F 77                  471 	ld	(hl),a
                            472 ;	game.c 57
                            473 ; genRightShift
                            474 ; AOP_HL for _MAX_TIMER
                            475 ; AOP_HL for _TimerAnimationHurt
                            476 ; shift right 	result 1, left 1
   0050 21 00 00            477 	ld	hl,#_MAX_TIMER + 0
   0053 7E                  478 	ld	a,(hl)
   0054 CB 3F               479 	srl	a
   0056 21 38 00            480 	ld	hl,#_TimerAnimationHurt + 0
   0059 77                  481 	ld	(hl),a
                            482 ;	game.c 1407
                            483 ; genAssign
                            484 ; AOP_HL for _TimerScrollBKG
   005A 21 39 00            485 	ld	hl,#_TimerScrollBKG + 0
   005D 36 0A               486 	ld	(hl),#0x0A
                            487 ;	game.c 1407
                            488 ; genAssign
                            489 ; AOP_HL for _isWalking
   005F 21 3A 00            490 	ld	hl,#_isWalking + 0
   0062 36 00               491 	ld	(hl),#0x00
                            492 ;	game.c 1407
                            493 ; genAssign
                            494 ; AOP_HL for _isAttacking
   0064 21 3B 00            495 	ld	hl,#_isAttacking + 0
   0067 36 00               496 	ld	(hl),#0x00
                            497 ;	game.c 1407
                            498 ; genAssign
                            499 ; AOP_HL for _isHurt
   0069 21 3C 00            500 	ld	hl,#_isHurt + 0
   006C 36 00               501 	ld	(hl),#0x00
                            502 ;	game.c 1407
                            503 ; genAssign
                            504 ; AOP_HL for _i
   006E 21 3D 00            505 	ld	hl,#_i + 0
   0071 36 00               506 	ld	(hl),#0x00
                            507 ;	game.c 1407
                            508 ; genAssign
                            509 ; AOP_HL for _j
   0073 21 3E 00            510 	ld	hl,#_j + 0
   0076 36 00               511 	ld	(hl),#0x00
                            512 ;	game.c 1407
                            513 ; genAssign
                            514 ; AOP_HL for _borderRight
   0078 21 3F 00            515 	ld	hl,#_borderRight + 0
   007B 36 9C               516 	ld	(hl),#0x9C
                            517 ;	game.c 1407
                            518 ; genAssign
                            519 ; AOP_HL for _borderLeft
   007D 21 40 00            520 	ld	hl,#_borderLeft + 0
   0080 36 04               521 	ld	(hl),#0x04
                            522 ;	game.c 1407
                            523 ; genAssign
                            524 ; AOP_HL for _borderTop
   0082 21 41 00            525 	ld	hl,#_borderTop + 0
   0085 36 2D               526 	ld	(hl),#0x2D
                            527 ;	game.c 1407
                            528 ; genAssign
                            529 ; AOP_HL for _borderBottom
   0087 21 42 00            530 	ld	hl,#_borderBottom + 0
   008A 36 6A               531 	ld	(hl),#0x6A
                            532 ;	game.c 71
                            533 ; genPlus
                            534 ; AOP_HL for _posXJudge
                            535 ; AOP_HL for _hammerPos
                            536 ; genPlusIncr
   008C 21 2E 00            537 	ld	hl,#_posXJudge + 0
   008F 7E                  538 	ld	a,(hl)
   0090 C6 08               539 	add	a,#0x08
   0092 21 43 00            540 	ld	hl,#_hammerPos + 0
   0095 77                  541 	ld	(hl),a
                            542 ;	game.c 1407
                            543 ; genAssign
                            544 ; AOP_HL for _score_bandit_digitUn
   0096 21 44 00            545 	ld	hl,#_score_bandit_digitUn + 0
   0099 36 00               546 	ld	(hl),#0x00
                            547 ;	game.c 1407
                            548 ; genAssign
                            549 ; AOP_HL for _score_bandit_digitDeux
   009B 21 45 00            550 	ld	hl,#_score_bandit_digitDeux + 0
   009E 36 00               551 	ld	(hl),#0x00
                            552 ;	game.c 1407
                            553 ; genAssign
                            554 ; AOP_HL for _score_bandit_digitTrois
   00A0 21 46 00            555 	ld	hl,#_score_bandit_digitTrois + 0
   00A3 36 00               556 	ld	(hl),#0x00
                            557 ;	game.c 1407
                            558 ; genAssign
                            559 ; AOP_HL for _score_bandit
   00A5 21 47 00            560 	ld	hl,#_score_bandit + 0
   00A8 36 00               561 	ld	(hl),#0x00
                            562 ;	game.c 1407
                            563 ; genAssign
                            564 ; AOP_HL for _score_villager
   00AA 21 48 00            565 	ld	hl,#_score_villager + 0
   00AD 36 0A               566 	ld	(hl),#0x0A
                            567 ;	game.c 1407
                            568 ; genAssign
                            569 ; AOP_HL for _score_villager_digitUn
   00AF 21 49 00            570 	ld	hl,#_score_villager_digitUn + 0
   00B2 36 00               571 	ld	(hl),#0x00
                            572 ;	game.c 1407
                            573 ; genAssign
                            574 ; AOP_HL for _score_villager_digitDeux
   00B4 21 4A 00            575 	ld	hl,#_score_villager_digitDeux + 0
   00B7 36 01               576 	ld	(hl),#0x01
                            577 ;	game.c 1407
                            578 ; genAssign
                            579 ; AOP_HL for _gameIsLaunch
   00B9 21 4B 00            580 	ld	hl,#_gameIsLaunch + 0
   00BC 36 00               581 	ld	(hl),#0x00
                            582 ;	game.c 1407
                            583 ; genAssign
                            584 ; AOP_HL for _isGameOver
   00BE 21 4C 00            585 	ld	hl,#_isGameOver + 0
   00C1 36 00               586 	ld	(hl),#0x00
                            587 ;	game.c 1407
                            588 ; genAssign
                            589 ; AOP_HL for _bestScore
   00C3 21 4D 00            590 	ld	hl,#_bestScore + 0
   00C6 36 00               591 	ld	(hl),#0x00
                            592 ;--------------------------------------------------------
                            593 ; code
                            594 ;--------------------------------------------------------
                            595 	.area _CODE
                            596 ;	game.c 89
                            597 ; genLabel
                            598 ; genFunction
                            599 ;	---------------------------------
                            600 ; Function sound_jump
                            601 ; ---------------------------------
   0000                     602 ___sound_jump_start:
   0000                     603 _sound_jump:
   0000 C5                  604 	push	bc
                            605 ;	game.c 90
                            606 ; genAssign
                            607 ; AOP_SFR for _NR52_REG
   0001 3E 80               608 	ld	a,#0x80
   0003 E0 00               609 	ldh	(_NR52_REG+0),a
                            610 ;	game.c 91
                            611 ; genAssign
                            612 ; AOP_SFR for _NR51_REG
   0005 3E 11               613 	ld	a,#0x11
   0007 E0 00               614 	ldh	(_NR51_REG+0),a
                            615 ;	game.c 92
                            616 ; genAssign
                            617 ; AOP_SFR for _NR50_REG
   0009 3E 77               618 	ld	a,#0x77
   000B E0 00               619 	ldh	(_NR50_REG+0),a
                            620 ;	game.c 94
                            621 ; genAssign
                            622 ; AOP_SFR for _NR10_REG
   000D 3E 1E               623 	ld	a,#0x1E
   000F E0 00               624 	ldh	(_NR10_REG+0),a
                            625 ;	game.c 95
                            626 ; genAssign
                            627 ; AOP_SFR for _NR11_REG
   0011 3E 10               628 	ld	a,#0x10
   0013 E0 00               629 	ldh	(_NR11_REG+0),a
                            630 ;	game.c 96
                            631 ; genAssign
                            632 ; AOP_SFR for _NR12_REG
   0015 3E F3               633 	ld	a,#0xF3
   0017 E0 00               634 	ldh	(_NR12_REG+0),a
                            635 ;	game.c 97
                            636 ; genAssign
                            637 ; AOP_SFR for _NR13_REG
   0019 3E 00               638 	ld	a,#0x00
   001B E0 00               639 	ldh	(_NR13_REG+0),a
                            640 ;	game.c 98
                            641 ; genAssign
                            642 ; AOP_SFR for _NR14_REG
   001D 3E 87               643 	ld	a,#0x87
   001F E0 00               644 	ldh	(_NR14_REG+0),a
                            645 ; genLabel
   0021                     646 00101$:
                            647 ; genEndFunction
   0021 C1                  648 	pop	bc
   0022 C9                  649 	ret
   0023                     650 ___sound_jump_end:
                            651 ;	game.c 111
                            652 ; genLabel
                            653 ; genFunction
                            654 ;	---------------------------------
                            655 ; Function drawjudgeShockWave
                            656 ; ---------------------------------
   0023                     657 ___drawjudgeShockWave_start:
   0023                     658 _drawjudgeShockWave:
   0023 C5                  659 	push	bc
                            660 ;	game.c 113
                            661 ; genIpush
   0024 21 5E 32            662 	ld	hl,#_Shock + 0
   0027 E5                  663 	push	hl
                            664 ; genIpush
   0028 3E 01               665 	ld	a,#0x01
   002A F5                  666 	push	af
   002B 33                  667 	inc	sp
                            668 ; genIpush
   002C 3E 20               669 	ld	a,#0x20
   002E F5                  670 	push	af
   002F 33                  671 	inc	sp
                            672 ; genCall
   0030 CD 00 00            673 	call	_set_sprite_data
   0033 E8 04               674 	lda	sp,4(sp)
                            675 ;	game.c 115
                            676 ; genIpush
   0035 3E 20               677 	ld	a,#0x20
   0037 F5                  678 	push	af
   0038 33                  679 	inc	sp
                            680 ; genIpush
   0039 3E 20               681 	ld	a,#0x20
   003B F5                  682 	push	af
   003C 33                  683 	inc	sp
                            684 ; genCall
   003D CD 00 00            685 	call	_set_sprite_tile
   0040 E8 02               686 	lda	sp,2(sp)
                            687 ;	game.c 117
                            688 ; genPlus
                            689 ; AOP_HL for _posXJudge
                            690 ; AOP_HL for _posXShock
                            691 ; genPlusIncr
   0042 21 2E 00            692 	ld	hl,#_posXJudge + 0
   0045 7E                  693 	ld	a,(hl)
   0046 C6 12               694 	add	a,#0x12
   0048 21 30 00            695 	ld	hl,#_posXShock + 0
   004B 77                  696 	ld	(hl),a
                            697 ;	game.c 118
                            698 ; genPlus
                            699 ; AOP_HL for _posYJudge
                            700 ; AOP_HL for _posYShock
                            701 ; genPlusIncr
   004C 21 2F 00            702 	ld	hl,#_posYJudge + 0
   004F 7E                  703 	ld	a,(hl)
   0050 C6 0E               704 	add	a,#0x0E
   0052 21 31 00            705 	ld	hl,#_posYShock + 0
   0055 77                  706 	ld	(hl),a
                            707 ;	game.c 120
                            708 ; genIpush
                            709 ; AOP_HL for _posYShock
   0056 7E                  710 	ld	a,(hl)
   0057 F5                  711 	push	af
   0058 33                  712 	inc	sp
                            713 ; genIpush
                            714 ; AOP_HL for _posXShock
   0059 21 30 00            715 	ld	hl,#_posXShock + 0
   005C 7E                  716 	ld	a,(hl)
   005D F5                  717 	push	af
   005E 33                  718 	inc	sp
                            719 ; genIpush
   005F 3E 20               720 	ld	a,#0x20
   0061 F5                  721 	push	af
   0062 33                  722 	inc	sp
                            723 ; genCall
   0063 CD 00 00            724 	call	_move_sprite
   0066 E8 03               725 	lda	sp,3(sp)
                            726 ;	game.c 122
                            727 ; genIpush
   0068 21 8B 3F            728 	ld	hl,#_jumpLook + 0
   006B E5                  729 	push	hl
                            730 ; genIpush
   006C 3E 01               731 	ld	a,#0x01
   006E F5                  732 	push	af
   006F 33                  733 	inc	sp
                            734 ; genIpush
   0070 3E 01               735 	ld	a,#0x01
   0072 F5                  736 	push	af
   0073 33                  737 	inc	sp
                            738 ; genIpush
   0074 3E 00               739 	ld	a,#0x00
   0076 F5                  740 	push	af
   0077 33                  741 	inc	sp
                            742 ; genIpush
   0078 3E 03               743 	ld	a,#0x03
   007A F5                  744 	push	af
   007B 33                  745 	inc	sp
                            746 ; genCall
   007C CD 00 00            747 	call	_set_win_tiles
   007F E8 06               748 	lda	sp,6(sp)
                            749 ; genLabel
   0081                     750 00101$:
                            751 ; genEndFunction
   0081 C1                  752 	pop	bc
   0082 C9                  753 	ret
   0083                     754 ___drawjudgeShockWave_end:
                            755 ;	game.c 125
                            756 ; genLabel
                            757 ; genFunction
                            758 ;	---------------------------------
                            759 ; Function checkBanditScore
                            760 ; ---------------------------------
   0083                     761 ___checkBanditScore_start:
   0083                     762 _checkBanditScore:
   0083 C5                  763 	push	bc
                            764 ;	game.c 126
                            765 ; genCmpGt
                            766 ; AOP_HL for _score_bandit_digitUn
   0084 AF                  767 	xor	a,a
   0085 3E 09               768 	ld	a,#0x09
   0087 21 44 00            769 	ld	hl,#_score_bandit_digitUn + 0
   008A 9E                  770 	sbc	a,(hl) ; 2
   008B D2 94 00            771 	jp	nc,00102$
                            772 ;	game.c 127
                            773 ; genAssign
                            774 ; AOP_HL for _score_bandit_digitUn
   008E 36 00               775 	ld	(hl),#0x00
                            776 ;	game.c 128
                            777 ; genPlus
                            778 ; AOP_HL for _score_bandit_digitDeux
                            779 ; genPlusIncr
   0090 21 45 00            780 	ld	hl,#_score_bandit_digitDeux + 0
   0093 34                  781 	inc	(hl)
                            782 ; genLabel
   0094                     783 00102$:
                            784 ;	game.c 130
                            785 ; genCmpGt
                            786 ; AOP_HL for _score_bandit_digitDeux
   0094 AF                  787 	xor	a,a
   0095 3E 09               788 	ld	a,#0x09
   0097 21 45 00            789 	ld	hl,#_score_bandit_digitDeux + 0
   009A 9E                  790 	sbc	a,(hl) ; 2
   009B D2 A4 00            791 	jp	nc,00104$
                            792 ;	game.c 131
                            793 ; genAssign
                            794 ; AOP_HL for _score_bandit_digitDeux
   009E 36 00               795 	ld	(hl),#0x00
                            796 ;	game.c 132
                            797 ; genPlus
                            798 ; AOP_HL for _score_bandit_digitTrois
                            799 ; genPlusIncr
   00A0 21 46 00            800 	ld	hl,#_score_bandit_digitTrois + 0
   00A3 34                  801 	inc	(hl)
                            802 ; genLabel
   00A4                     803 00104$:
                            804 ;	game.c 134
                            805 ; genCmpGt
                            806 ; AOP_HL for _score_bandit_digitTrois
   00A4 AF                  807 	xor	a,a
   00A5 3E 09               808 	ld	a,#0x09
   00A7 21 46 00            809 	ld	hl,#_score_bandit_digitTrois + 0
   00AA 9E                  810 	sbc	a,(hl) ; 2
   00AB D2 BD 00            811 	jp	nc,00107$
                            812 ;	game.c 135
                            813 ; genAssign
                            814 ; AOP_HL for _score_bandit_digitUn
   00AE 21 44 00            815 	ld	hl,#_score_bandit_digitUn + 0
   00B1 36 00               816 	ld	(hl),#0x00
                            817 ;	game.c 136
                            818 ; genAssign
                            819 ; AOP_HL for _score_bandit_digitDeux
   00B3 21 45 00            820 	ld	hl,#_score_bandit_digitDeux + 0
   00B6 36 00               821 	ld	(hl),#0x00
                            822 ;	game.c 137
                            823 ; genAssign
                            824 ; AOP_HL for _score_bandit_digitTrois
   00B8 21 46 00            825 	ld	hl,#_score_bandit_digitTrois + 0
   00BB 36 00               826 	ld	(hl),#0x00
                            827 ; genLabel
   00BD                     828 00107$:
                            829 ; genEndFunction
   00BD C1                  830 	pop	bc
   00BE C9                  831 	ret
   00BF                     832 ___checkBanditScore_end:
                            833 ;	game.c 141
                            834 ; genLabel
                            835 ; genFunction
                            836 ;	---------------------------------
                            837 ; Function checkCollideShockAttack
                            838 ; ---------------------------------
   00BF                     839 ___checkCollideShockAttack_start:
   00BF                     840 _checkCollideShockAttack:
   00BF C5                  841 	push	bc
   00C0 E8 FB               842 	lda sp,-5(sp)
                            843 ;	game.c 143
                            844 ; genAssign
                            845 ; AOP_HL for _i
   00C2 21 3D 00            846 	ld	hl,#_i + 0
   00C5 36 00               847 	ld	(hl),#0x00
                            848 ; genLabel
   00C7                     849 00111$:
                            850 ; genCmpLt
                            851 ; AOP_HL for _i
                            852 ; AOP_HL for _nbBanditToDraw
   00C7 AF                  853 	xor	a,a
   00C8 21 3D 00            854 	ld	hl,#_i + 0
   00CB 7E                  855 	ld	a,(hl)
   00CC 21 2D 00            856 	ld	hl,#_nbBanditToDraw + 0
   00CF 9E                  857 	sbc	a,(hl) ; 2
   00D0 D2 76 01            858 	jp	nc,00114$
                            859 ;	game.c 144
                            860 ; genIpush
   00D3 3E 0E               861 	ld	a,#0x0E
   00D5 F5                  862 	push	af
   00D6 33                  863 	inc	sp
                            864 ; genIpush
                            865 ; AOP_HL for _i
   00D7 21 3D 00            866 	ld	hl,#_i + 0
   00DA 7E                  867 	ld	a,(hl)
   00DB F5                  868 	push	af
   00DC 33                  869 	inc	sp
                            870 ; genCall
   00DD CD 00 00            871 	call	__muluchar
   00E0 4B                  872 	ld	c,e
   00E1 E8 02               873 	lda	sp,2(sp)
                            874 ; genPlus
                            875 ; AOP_STK for _checkCollideShockAttack_sloc2_1_0
   00E3 3E 02               876 	ld	a,#<_bandits
   00E5 81                  877 	add	a,c
   00E6 F8 00               878 	lda	hl,0(sp)
   00E8 77                  879 	ld	(hl),a ; 3
   00E9 3E 00               880 	ld	a,#>_bandits
   00EB CE 00               881 	adc	a,#0x00
   00ED 23                  882 	inc	hl
   00EE 77                  883 	ld	(hl),a ; 3
                            884 ; genPointerGet
                            885 ; AOP_STK for _checkCollideShockAttack_sloc2_1_0
                            886 ; AOP_STK for _checkCollideShockAttack_sloc0_1_0
   00EF 2B                  887 	dec	hl
   00F0 5E                  888 	ld	e,(hl)
   00F1 23                  889 	inc	hl
   00F2 56                  890 	ld	d,(hl)
   00F3 1A                  891 	ld	a,(de)
   00F4 F8 04               892 	lda	hl,4(sp)
   00F6 77                  893 	ld	(hl),a ; 3
                            894 ; genCmpEq
                            895 ; AOP_STK for _checkCollideShockAttack_sloc0_1_0
   00F7 7E                  896 	ld	a,(hl) ; 2
   00F8 FE 01               897 	cp	a,#0x01
   00FA C2 FF 00            898 	jp	nz,00126$
   00FD 18 03               899 	jr	00127$
   00FF                     900 00126$:
   00FF C3 6F 01            901 	jp	00113$
   0102                     902 00127$:
                            903 ; genPlus
                            904 ; AOP_STK for _checkCollideShockAttack_sloc2_1_0
                            905 ; AOP_STK for _checkCollideShockAttack_sloc1_1_0
                            906 ; genPlusIncr
   0102 F8 00               907 	lda	hl,0(sp)
   0104 7E                  908 	ld	a,(hl)
   0105 C6 0C               909 	add	a,#0x0C
   0107 23                  910 	inc	hl
   0108 23                  911 	inc	hl
   0109 77                  912 	ld	(hl),a ; 3
   010A 2B                  913 	dec	hl
   010B 7E                  914 	ld	a,(hl)
   010C CE 00               915 	adc	a,#0x00
   010E 23                  916 	inc	hl
   010F 23                  917 	inc	hl
   0110 77                  918 	ld	(hl),a ; 3
                            919 ; genPointerGet
                            920 ; AOP_STK for _checkCollideShockAttack_sloc1_1_0
   0111 2B                  921 	dec	hl
   0112 5E                  922 	ld	e,(hl)
   0113 23                  923 	inc	hl
   0114 56                  924 	ld	d,(hl)
   0115 1A                  925 	ld	a,(de)
   0116 4F                  926 	ld	c,a
                            927 ; genCmpEq
   0117 79                  928 	ld	a,c
   0118 B7                  929 	or	a,a
   0119 C2 1E 01            930 	jp	nz,00128$
   011C 18 03               931 	jr	00129$
   011E                     932 00128$:
   011E C3 6F 01            933 	jp	00113$
   0121                     934 00129$:
                            935 ;	game.c 145
                            936 ; genPlus
                            937 ; AOP_STK for _checkCollideShockAttack_sloc2_1_0
                            938 ; genPlusIncr
   0121 F8 00               939 	lda	hl,0(sp)
   0123 5E                  940 	ld	e,(hl)
   0124 23                  941 	inc	hl
   0125 56                  942 	ld	d,(hl)
   0126 13                  943 	inc	de
                            944 ; genPointerGet
   0127 1A                  945 	ld	a,(de)
   0128 4F                  946 	ld	c,a
                            947 ; genPlus
                            948 ; AOP_HL for _posXShock
                            949 ; genPlusIncr
   0129 21 30 00            950 	ld	hl,#_posXShock + 0
   012C 7E                  951 	ld	a,(hl)
   012D C6 08               952 	add	a,#0x08
   012F 47                  953 	ld	b,a
                            954 ; genCmpLt
   0130 AF                  955 	xor	a,a
   0131 79                  956 	ld	a,c
   0132 98                  957 	sbc	a,b ; 2
   0133 D2 6F 01            958 	jp	nc,00113$
                            959 ; genCmpGt
                            960 ; AOP_HL for _posXShock
   0136 AF                  961 	xor	a,a
   0137 7E                  962 	ld	a,(hl)
   0138 99                  963 	sbc	a,c ; 2
   0139 D2 6F 01            964 	jp	nc,00113$
                            965 ; genPlus
                            966 ; AOP_STK for _checkCollideShockAttack_sloc2_1_0
                            967 ; genPlusIncr
   013C F8 00               968 	lda	hl,0(sp)
   013E 5E                  969 	ld	e,(hl)
   013F 23                  970 	inc	hl
   0140 56                  971 	ld	d,(hl)
   0141 13                  972 	inc	de
   0142 13                  973 	inc	de
                            974 ; genPointerGet
   0143 1A                  975 	ld	a,(de)
   0144 4F                  976 	ld	c,a
                            977 ; genPlus
                            978 ; AOP_HL for _posYShock
                            979 ; genPlusIncr
   0145 21 31 00            980 	ld	hl,#_posYShock + 0
   0148 7E                  981 	ld	a,(hl)
   0149 C6 10               982 	add	a,#0x10
   014B 47                  983 	ld	b,a
                            984 ; genCmpLt
   014C AF                  985 	xor	a,a
   014D 79                  986 	ld	a,c
   014E 98                  987 	sbc	a,b ; 2
   014F D2 6F 01            988 	jp	nc,00113$
                            989 ; genMinus
                            990 ; AOP_HL for _posYShock
   0152 7E                  991 	ld	a,(hl)
   0153 C6 F8               992 	add	a,#0xF8
   0155 47                  993 	ld	b,a
                            994 ; genCmpGt
   0156 AF                  995 	xor	a,a
   0157 78                  996 	ld	a,b
   0158 99                  997 	sbc	a,c ; 2
   0159 D2 6F 01            998 	jp	nc,00113$
                            999 ;	game.c 146
                           1000 ; genAssign (pointer)
                           1001 ; AOP_STK for _checkCollideShockAttack_sloc1_1_0
   015C F8 02              1002 	lda	hl,2(sp)
   015E 5E                 1003 	ld	e,(hl)
   015F 23                 1004 	inc	hl
   0160 56                 1005 	ld	d,(hl)
   0161 3E 01              1006 	ld	a,#0x01
   0163 12                 1007 	ld	(de),a
                           1008 ;	game.c 147
                           1009 ; genPlus
                           1010 ; AOP_HL for _score_bandit
                           1011 ; genPlusIncr
   0164 21 47 00           1012 	ld	hl,#_score_bandit + 0
   0167 34                 1013 	inc	(hl)
                           1014 ;	game.c 148
                           1015 ; genPlus
                           1016 ; AOP_HL for _score_bandit_digitUn
                           1017 ; genPlusIncr
   0168 21 44 00           1018 	ld	hl,#_score_bandit_digitUn + 0
   016B 34                 1019 	inc	(hl)
                           1020 ;	game.c 149
                           1021 ; genCall
   016C CD 83 00           1022 	call	_checkBanditScore
                           1023 ; genLabel
   016F                    1024 00113$:
                           1025 ;	game.c 143
                           1026 ; genPlus
                           1027 ; AOP_HL for _i
                           1028 ; genPlusIncr
   016F 21 3D 00           1029 	ld	hl,#_i + 0
   0172 34                 1030 	inc	(hl)
                           1031 ; genGoto
   0173 C3 C7 00           1032 	jp	00111$
                           1033 ; genLabel
   0176                    1034 00114$:
                           1035 ;	game.c 154
                           1036 ; genPlus
                           1037 ; AOP_HL for _borderRight
                           1038 ; genPlusIncr
   0176 21 3F 00           1039 	ld	hl,#_borderRight + 0
   0179 7E                 1040 	ld	a,(hl)
   017A C6 0A              1041 	add	a,#0x0A
   017C 4F                 1042 	ld	c,a
                           1043 ; genCmpGt
                           1044 ; AOP_HL for _posXShock
   017D AF                 1045 	xor	a,a
   017E 79                 1046 	ld	a,c
   017F 21 30 00           1047 	ld	hl,#_posXShock + 0
   0182 9E                 1048 	sbc	a,(hl) ; 2
   0183 D2 8B 01           1049 	jp	nc,00115$
                           1050 ;	game.c 155
                           1051 ; genAssign
                           1052 ; AOP_HL for _shockSend
   0186 21 32 00           1053 	ld	hl,#_shockSend + 0
   0189 36 00              1054 	ld	(hl),#0x00
                           1055 ; genLabel
   018B                    1056 00115$:
                           1057 ; genEndFunction
   018B E8 05              1058 	lda	sp,5(sp)
   018D C1                 1059 	pop bc
   018E C9                 1060 	ret
   018F                    1061 ___checkCollideShockAttack_end:
                           1062 ;	game.c 160
                           1063 ; genLabel
                           1064 ; genFunction
                           1065 ;	---------------------------------
                           1066 ; Function moveShockWave
                           1067 ; ---------------------------------
   018F                    1068 ___moveShockWave_start:
   018F                    1069 _moveShockWave:
   018F C5                 1070 	push	bc
                           1071 ;	game.c 162
                           1072 ; genCmpEq
                           1073 ; AOP_HL for _gameIsLaunch
   0190 21 4B 00           1074 	ld	hl,#_gameIsLaunch + 0
   0193 7E                 1075 	ld	a,(hl) ; 2
   0194 FE 01              1076 	cp	a,#0x01
   0196 C2 9B 01           1077 	jp	nz,00106$
   0199 18 03              1078 	jr	00107$
   019B                    1079 00106$:
   019B C3 A3 01           1080 	jp	00102$
   019E                    1081 00107$:
                           1082 ;	game.c 163
                           1083 ; genPlus
                           1084 ; AOP_HL for _posXShock
                           1085 ; genPlusIncr
   019E 21 30 00           1086 	ld	hl,#_posXShock + 0
   01A1 34                 1087 	inc	(hl)
   01A2 34                 1088 	inc	(hl)
                           1089 ; genLabel
   01A3                    1090 00102$:
                           1091 ;	game.c 166
                           1092 ; genIpush
                           1093 ; AOP_HL for _posYShock
   01A3 21 31 00           1094 	ld	hl,#_posYShock + 0
   01A6 7E                 1095 	ld	a,(hl)
   01A7 F5                 1096 	push	af
   01A8 33                 1097 	inc	sp
                           1098 ; genIpush
                           1099 ; AOP_HL for _posXShock
   01A9 21 30 00           1100 	ld	hl,#_posXShock + 0
   01AC 7E                 1101 	ld	a,(hl)
   01AD F5                 1102 	push	af
   01AE 33                 1103 	inc	sp
                           1104 ; genIpush
   01AF 3E 20              1105 	ld	a,#0x20
   01B1 F5                 1106 	push	af
   01B2 33                 1107 	inc	sp
                           1108 ; genCall
   01B3 CD 00 00           1109 	call	_move_sprite
   01B6 E8 03              1110 	lda	sp,3(sp)
                           1111 ;	game.c 168
                           1112 ; genCall
   01B8 CD BF 00           1113 	call	_checkCollideShockAttack
                           1114 ; genLabel
   01BB                    1115 00103$:
                           1116 ; genEndFunction
   01BB C1                 1117 	pop	bc
   01BC C9                 1118 	ret
   01BD                    1119 ___moveShockWave_end:
                           1120 ;	game.c 172
                           1121 ; genLabel
                           1122 ; genFunction
                           1123 ;	---------------------------------
                           1124 ; Function drawJudgeAttack1
                           1125 ; ---------------------------------
   01BD                    1126 ___drawJudgeAttack1_start:
   01BD                    1127 _drawJudgeAttack1:
   01BD C5                 1128 	push	bc
   01BE E8 FF              1129 	lda sp,-1(sp)
                           1130 ;	game.c 174
                           1131 ; genIpush
   01C0 21 6E 32           1132 	ld	hl,#_JUDGEATTACK1 + 0
   01C3 E5                 1133 	push	hl
                           1134 ; genIpush
   01C4 3E 10              1135 	ld	a,#0x10
   01C6 F5                 1136 	push	af
   01C7 33                 1137 	inc	sp
                           1138 ; genIpush
   01C8 3E 00              1139 	ld	a,#0x00
   01CA F5                 1140 	push	af
   01CB 33                 1141 	inc	sp
                           1142 ; genCall
   01CC CD 00 00           1143 	call	_set_sprite_data
   01CF E8 04              1144 	lda	sp,4(sp)
                           1145 ;	game.c 176
                           1146 ; genIpush
   01D1 3E 00              1147 	ld	a,#0x00
   01D3 F5                 1148 	push	af
   01D4 33                 1149 	inc	sp
                           1150 ; genIpush
   01D5 3E 00              1151 	ld	a,#0x00
   01D7 F5                 1152 	push	af
   01D8 33                 1153 	inc	sp
                           1154 ; genCall
   01D9 CD 00 00           1155 	call	_set_sprite_tile
   01DC E8 02              1156 	lda	sp,2(sp)
                           1157 ;	game.c 177
                           1158 ; genMinus
                           1159 ; AOP_HL for _posYJudge
   01DE 21 2F 00           1160 	ld	hl,#_posYJudge + 0
   01E1 7E                 1161 	ld	a,(hl)
   01E2 C6 F8              1162 	add	a,#0xF8
   01E4 4F                 1163 	ld	c,a
                           1164 ; genMinus
                           1165 ; AOP_HL for _posXJudge
   01E5 21 2E 00           1166 	ld	hl,#_posXJudge + 0
   01E8 7E                 1167 	ld	a,(hl)
   01E9 C6 F8              1168 	add	a,#0xF8
   01EB 47                 1169 	ld	b,a
                           1170 ; genIpush
   01EC 79                 1171 	ld	a,c
   01ED F5                 1172 	push	af
   01EE 33                 1173 	inc	sp
                           1174 ; genIpush
   01EF 78                 1175 	ld	a,b
   01F0 F5                 1176 	push	af
   01F1 33                 1177 	inc	sp
                           1178 ; genIpush
   01F2 3E 00              1179 	ld	a,#0x00
   01F4 F5                 1180 	push	af
   01F5 33                 1181 	inc	sp
                           1182 ; genCall
   01F6 CD 00 00           1183 	call	_move_sprite
   01F9 E8 03              1184 	lda	sp,3(sp)
                           1185 ;	game.c 179
                           1186 ; genIpush
   01FB 3E 01              1187 	ld	a,#0x01
   01FD F5                 1188 	push	af
   01FE 33                 1189 	inc	sp
                           1190 ; genIpush
   01FF 3E 01              1191 	ld	a,#0x01
   0201 F5                 1192 	push	af
   0202 33                 1193 	inc	sp
                           1194 ; genCall
   0203 CD 00 00           1195 	call	_set_sprite_tile
   0206 E8 02              1196 	lda	sp,2(sp)
                           1197 ;	game.c 180
                           1198 ; genIpush
                           1199 ; AOP_HL for _posYJudge
   0208 21 2F 00           1200 	ld	hl,#_posYJudge + 0
   020B 7E                 1201 	ld	a,(hl)
   020C F5                 1202 	push	af
   020D 33                 1203 	inc	sp
                           1204 ; genIpush
   020E 78                 1205 	ld	a,b
   020F F5                 1206 	push	af
   0210 33                 1207 	inc	sp
                           1208 ; genIpush
   0211 3E 01              1209 	ld	a,#0x01
   0213 F5                 1210 	push	af
   0214 33                 1211 	inc	sp
                           1212 ; genCall
   0215 CD 00 00           1213 	call	_move_sprite
   0218 E8 03              1214 	lda	sp,3(sp)
                           1215 ;	game.c 182
                           1216 ; genIpush
   021A 3E 02              1217 	ld	a,#0x02
   021C F5                 1218 	push	af
   021D 33                 1219 	inc	sp
                           1220 ; genIpush
   021E 3E 02              1221 	ld	a,#0x02
   0220 F5                 1222 	push	af
   0221 33                 1223 	inc	sp
                           1224 ; genCall
   0222 CD 00 00           1225 	call	_set_sprite_tile
   0225 E8 02              1226 	lda	sp,2(sp)
                           1227 ;	game.c 183
                           1228 ; genIpush
   0227 3E FB              1229 	ld	a,#0xFB
   0229 F5                 1230 	push	af
   022A 33                 1231 	inc	sp
                           1232 ; genIpush
   022B 3E FB              1233 	ld	a,#0xFB
   022D F5                 1234 	push	af
   022E 33                 1235 	inc	sp
                           1236 ; genIpush
   022F 3E 02              1237 	ld	a,#0x02
   0231 F5                 1238 	push	af
   0232 33                 1239 	inc	sp
                           1240 ; genCall
   0233 CD 00 00           1241 	call	_move_sprite
   0236 E8 03              1242 	lda	sp,3(sp)
                           1243 ;	game.c 186
                           1244 ; genIpush
   0238 3E 03              1245 	ld	a,#0x03
   023A F5                 1246 	push	af
   023B 33                 1247 	inc	sp
                           1248 ; genIpush
   023C 3E 03              1249 	ld	a,#0x03
   023E F5                 1250 	push	af
   023F 33                 1251 	inc	sp
                           1252 ; genCall
   0240 CD 00 00           1253 	call	_set_sprite_tile
   0243 E8 02              1254 	lda	sp,2(sp)
                           1255 ;	game.c 187
                           1256 ; genIpush
                           1257 ; AOP_HL for _posYJudge
   0245 21 2F 00           1258 	ld	hl,#_posYJudge + 0
   0248 7E                 1259 	ld	a,(hl)
   0249 F5                 1260 	push	af
   024A 33                 1261 	inc	sp
                           1262 ; genIpush
                           1263 ; AOP_HL for _posXJudge
   024B 21 2E 00           1264 	ld	hl,#_posXJudge + 0
   024E 7E                 1265 	ld	a,(hl)
   024F F5                 1266 	push	af
   0250 33                 1267 	inc	sp
                           1268 ; genIpush
   0251 3E 03              1269 	ld	a,#0x03
   0253 F5                 1270 	push	af
   0254 33                 1271 	inc	sp
                           1272 ; genCall
   0255 CD 00 00           1273 	call	_move_sprite
   0258 E8 03              1274 	lda	sp,3(sp)
                           1275 ;	game.c 189
                           1276 ; genIpush
   025A 3E 04              1277 	ld	a,#0x04
   025C F5                 1278 	push	af
   025D 33                 1279 	inc	sp
                           1280 ; genIpush
   025E 3E 04              1281 	ld	a,#0x04
   0260 F5                 1282 	push	af
   0261 33                 1283 	inc	sp
                           1284 ; genCall
   0262 CD 00 00           1285 	call	_set_sprite_tile
   0265 E8 02              1286 	lda	sp,2(sp)
                           1287 ;	game.c 190
                           1288 ; genPlus
                           1289 ; AOP_HL for _posYJudge
                           1290 ; AOP_STK for _drawJudgeAttack1_sloc0_1_0
                           1291 ; genPlusIncr
   0267 21 2F 00           1292 	ld	hl,#_posYJudge + 0
   026A 7E                 1293 	ld	a,(hl)
   026B C6 08              1294 	add	a,#0x08
   026D F8 00              1295 	lda	hl,0(sp)
   026F 77                 1296 	ld	(hl),a ; 3
                           1297 ; genIpush
                           1298 ; AOP_STK for _drawJudgeAttack1_sloc0_1_0
   0270 7E                 1299 	ld	a,(hl)
   0271 F5                 1300 	push	af
   0272 33                 1301 	inc	sp
                           1302 ; genIpush
   0273 78                 1303 	ld	a,b
   0274 F5                 1304 	push	af
   0275 33                 1305 	inc	sp
                           1306 ; genIpush
   0276 3E 04              1307 	ld	a,#0x04
   0278 F5                 1308 	push	af
   0279 33                 1309 	inc	sp
                           1310 ; genCall
   027A CD 00 00           1311 	call	_move_sprite
   027D E8 03              1312 	lda	sp,3(sp)
                           1313 ;	game.c 192
                           1314 ; genIpush
   027F 3E 05              1315 	ld	a,#0x05
   0281 F5                 1316 	push	af
   0282 33                 1317 	inc	sp
                           1318 ; genIpush
   0283 3E 05              1319 	ld	a,#0x05
   0285 F5                 1320 	push	af
   0286 33                 1321 	inc	sp
                           1322 ; genCall
   0287 CD 00 00           1323 	call	_set_sprite_tile
   028A E8 02              1324 	lda	sp,2(sp)
                           1325 ;	game.c 193
                           1326 ; genPlus
                           1327 ; AOP_HL for _posYJudge
                           1328 ; genPlusIncr
   028C 21 2F 00           1329 	ld	hl,#_posYJudge + 0
   028F 7E                 1330 	ld	a,(hl)
   0290 C6 10              1331 	add	a,#0x10
   0292 4F                 1332 	ld	c,a
                           1333 ; genIpush
   0293 79                 1334 	ld	a,c
   0294 F5                 1335 	push	af
   0295 33                 1336 	inc	sp
                           1337 ; genIpush
   0296 78                 1338 	ld	a,b
   0297 F5                 1339 	push	af
   0298 33                 1340 	inc	sp
                           1341 ; genIpush
   0299 3E 05              1342 	ld	a,#0x05
   029B F5                 1343 	push	af
   029C 33                 1344 	inc	sp
                           1345 ; genCall
   029D CD 00 00           1346 	call	_move_sprite
   02A0 E8 03              1347 	lda	sp,3(sp)
                           1348 ;	game.c 196
                           1349 ; genIpush
   02A2 3E 06              1350 	ld	a,#0x06
   02A4 F5                 1351 	push	af
   02A5 33                 1352 	inc	sp
                           1353 ; genIpush
   02A6 3E 06              1354 	ld	a,#0x06
   02A8 F5                 1355 	push	af
   02A9 33                 1356 	inc	sp
                           1357 ; genCall
   02AA CD 00 00           1358 	call	_set_sprite_tile
   02AD E8 02              1359 	lda	sp,2(sp)
                           1360 ;	game.c 197
                           1361 ; genIpush
                           1362 ; AOP_STK for _drawJudgeAttack1_sloc0_1_0
   02AF F8 00              1363 	lda	hl,0(sp)
   02B1 7E                 1364 	ld	a,(hl)
   02B2 F5                 1365 	push	af
   02B3 33                 1366 	inc	sp
                           1367 ; genIpush
                           1368 ; AOP_HL for _posXJudge
   02B4 21 2E 00           1369 	ld	hl,#_posXJudge + 0
   02B7 7E                 1370 	ld	a,(hl)
   02B8 F5                 1371 	push	af
   02B9 33                 1372 	inc	sp
                           1373 ; genIpush
   02BA 3E 06              1374 	ld	a,#0x06
   02BC F5                 1375 	push	af
   02BD 33                 1376 	inc	sp
                           1377 ; genCall
   02BE CD 00 00           1378 	call	_move_sprite
   02C1 E8 03              1379 	lda	sp,3(sp)
                           1380 ;	game.c 199
                           1381 ; genIpush
   02C3 3E 07              1382 	ld	a,#0x07
   02C5 F5                 1383 	push	af
   02C6 33                 1384 	inc	sp
                           1385 ; genIpush
   02C7 3E 07              1386 	ld	a,#0x07
   02C9 F5                 1387 	push	af
   02CA 33                 1388 	inc	sp
                           1389 ; genCall
   02CB CD 00 00           1390 	call	_set_sprite_tile
   02CE E8 02              1391 	lda	sp,2(sp)
                           1392 ;	game.c 200
                           1393 ; genIpush
   02D0 79                 1394 	ld	a,c
   02D1 F5                 1395 	push	af
   02D2 33                 1396 	inc	sp
                           1397 ; genIpush
                           1398 ; AOP_HL for _posXJudge
   02D3 21 2E 00           1399 	ld	hl,#_posXJudge + 0
   02D6 7E                 1400 	ld	a,(hl)
   02D7 F5                 1401 	push	af
   02D8 33                 1402 	inc	sp
                           1403 ; genIpush
   02D9 3E 07              1404 	ld	a,#0x07
   02DB F5                 1405 	push	af
   02DC 33                 1406 	inc	sp
                           1407 ; genCall
   02DD CD 00 00           1408 	call	_move_sprite
   02E0 E8 03              1409 	lda	sp,3(sp)
                           1410 ;	game.c 202
                           1411 ; genIpush
   02E2 3E 08              1412 	ld	a,#0x08
   02E4 F5                 1413 	push	af
   02E5 33                 1414 	inc	sp
                           1415 ; genIpush
   02E6 3E 08              1416 	ld	a,#0x08
   02E8 F5                 1417 	push	af
   02E9 33                 1418 	inc	sp
                           1419 ; genCall
   02EA CD 00 00           1420 	call	_set_sprite_tile
   02ED E8 02              1421 	lda	sp,2(sp)
                           1422 ;	game.c 203
                           1423 ; genIpush
   02EF 3E FB              1424 	ld	a,#0xFB
   02F1 F5                 1425 	push	af
   02F2 33                 1426 	inc	sp
                           1427 ; genIpush
   02F3 3E FB              1428 	ld	a,#0xFB
   02F5 F5                 1429 	push	af
   02F6 33                 1430 	inc	sp
                           1431 ; genIpush
   02F7 3E 08              1432 	ld	a,#0x08
   02F9 F5                 1433 	push	af
   02FA 33                 1434 	inc	sp
                           1435 ; genCall
   02FB CD 00 00           1436 	call	_move_sprite
   02FE E8 03              1437 	lda	sp,3(sp)
                           1438 ;	game.c 205
                           1439 ; genIpush
   0300 3E 09              1440 	ld	a,#0x09
   0302 F5                 1441 	push	af
   0303 33                 1442 	inc	sp
                           1443 ; genIpush
   0304 3E 09              1444 	ld	a,#0x09
   0306 F5                 1445 	push	af
   0307 33                 1446 	inc	sp
                           1447 ; genCall
   0308 CD 00 00           1448 	call	_set_sprite_tile
   030B E8 02              1449 	lda	sp,2(sp)
                           1450 ;	game.c 206
                           1451 ; genIpush
   030D 3E FB              1452 	ld	a,#0xFB
   030F F5                 1453 	push	af
   0310 33                 1454 	inc	sp
                           1455 ; genIpush
   0311 3E FB              1456 	ld	a,#0xFB
   0313 F5                 1457 	push	af
   0314 33                 1458 	inc	sp
                           1459 ; genIpush
   0315 3E 09              1460 	ld	a,#0x09
   0317 F5                 1461 	push	af
   0318 33                 1462 	inc	sp
                           1463 ; genCall
   0319 CD 00 00           1464 	call	_move_sprite
   031C E8 03              1465 	lda	sp,3(sp)
                           1466 ;	game.c 208
                           1467 ; genIpush
   031E 3E 0A              1468 	ld	a,#0x0A
   0320 F5                 1469 	push	af
   0321 33                 1470 	inc	sp
                           1471 ; genIpush
   0322 3E 0A              1472 	ld	a,#0x0A
   0324 F5                 1473 	push	af
   0325 33                 1474 	inc	sp
                           1475 ; genCall
   0326 CD 00 00           1476 	call	_set_sprite_tile
   0329 E8 02              1477 	lda	sp,2(sp)
                           1478 ;	game.c 209
                           1479 ; genIpush
   032B 3E FB              1480 	ld	a,#0xFB
   032D F5                 1481 	push	af
   032E 33                 1482 	inc	sp
                           1483 ; genIpush
   032F 3E FB              1484 	ld	a,#0xFB
   0331 F5                 1485 	push	af
   0332 33                 1486 	inc	sp
                           1487 ; genIpush
   0333 3E 0A              1488 	ld	a,#0x0A
   0335 F5                 1489 	push	af
   0336 33                 1490 	inc	sp
                           1491 ; genCall
   0337 CD 00 00           1492 	call	_move_sprite
   033A E8 03              1493 	lda	sp,3(sp)
                           1494 ;	game.c 211
                           1495 ; genIpush
   033C 3E 0B              1496 	ld	a,#0x0B
   033E F5                 1497 	push	af
   033F 33                 1498 	inc	sp
                           1499 ; genIpush
   0340 3E 0B              1500 	ld	a,#0x0B
   0342 F5                 1501 	push	af
   0343 33                 1502 	inc	sp
                           1503 ; genCall
   0344 CD 00 00           1504 	call	_set_sprite_tile
   0347 E8 02              1505 	lda	sp,2(sp)
                           1506 ;	game.c 212
                           1507 ; genIpush
   0349 3E FB              1508 	ld	a,#0xFB
   034B F5                 1509 	push	af
   034C 33                 1510 	inc	sp
                           1511 ; genIpush
   034D 3E FB              1512 	ld	a,#0xFB
   034F F5                 1513 	push	af
   0350 33                 1514 	inc	sp
                           1515 ; genIpush
   0351 3E 0B              1516 	ld	a,#0x0B
   0353 F5                 1517 	push	af
   0354 33                 1518 	inc	sp
                           1519 ; genCall
   0355 CD 00 00           1520 	call	_move_sprite
   0358 E8 03              1521 	lda	sp,3(sp)
                           1522 ;	game.c 214
                           1523 ; genIpush
   035A 3E 0C              1524 	ld	a,#0x0C
   035C F5                 1525 	push	af
   035D 33                 1526 	inc	sp
                           1527 ; genIpush
   035E 3E 0C              1528 	ld	a,#0x0C
   0360 F5                 1529 	push	af
   0361 33                 1530 	inc	sp
                           1531 ; genCall
   0362 CD 00 00           1532 	call	_set_sprite_tile
   0365 E8 02              1533 	lda	sp,2(sp)
                           1534 ;	game.c 215
                           1535 ; genPlus
                           1536 ; AOP_HL for _posXJudge
                           1537 ; genPlusIncr
   0367 21 2E 00           1538 	ld	hl,#_posXJudge + 0
   036A 7E                 1539 	ld	a,(hl)
   036B C6 08              1540 	add	a,#0x08
   036D 47                 1541 	ld	b,a
                           1542 ; genIpush
                           1543 ; AOP_STK for _drawJudgeAttack1_sloc0_1_0
   036E F8 00              1544 	lda	hl,0(sp)
   0370 7E                 1545 	ld	a,(hl)
   0371 F5                 1546 	push	af
   0372 33                 1547 	inc	sp
                           1548 ; genIpush
   0373 78                 1549 	ld	a,b
   0374 F5                 1550 	push	af
   0375 33                 1551 	inc	sp
                           1552 ; genIpush
   0376 3E 0C              1553 	ld	a,#0x0C
   0378 F5                 1554 	push	af
   0379 33                 1555 	inc	sp
                           1556 ; genCall
   037A CD 00 00           1557 	call	_move_sprite
   037D E8 03              1558 	lda	sp,3(sp)
                           1559 ;	game.c 217
                           1560 ; genIpush
   037F 3E 0D              1561 	ld	a,#0x0D
   0381 F5                 1562 	push	af
   0382 33                 1563 	inc	sp
                           1564 ; genIpush
   0383 3E 0D              1565 	ld	a,#0x0D
   0385 F5                 1566 	push	af
   0386 33                 1567 	inc	sp
                           1568 ; genCall
   0387 CD 00 00           1569 	call	_set_sprite_tile
   038A E8 02              1570 	lda	sp,2(sp)
                           1571 ;	game.c 218
                           1572 ; genIpush
   038C 79                 1573 	ld	a,c
   038D F5                 1574 	push	af
   038E 33                 1575 	inc	sp
                           1576 ; genIpush
   038F 78                 1577 	ld	a,b
   0390 F5                 1578 	push	af
   0391 33                 1579 	inc	sp
                           1580 ; genIpush
   0392 3E 0D              1581 	ld	a,#0x0D
   0394 F5                 1582 	push	af
   0395 33                 1583 	inc	sp
                           1584 ; genCall
   0396 CD 00 00           1585 	call	_move_sprite
   0399 E8 03              1586 	lda	sp,3(sp)
                           1587 ;	game.c 220
                           1588 ; genIpush
   039B 3E 0E              1589 	ld	a,#0x0E
   039D F5                 1590 	push	af
   039E 33                 1591 	inc	sp
                           1592 ; genIpush
   039F 3E 0E              1593 	ld	a,#0x0E
   03A1 F5                 1594 	push	af
   03A2 33                 1595 	inc	sp
                           1596 ; genCall
   03A3 CD 00 00           1597 	call	_set_sprite_tile
   03A6 E8 02              1598 	lda	sp,2(sp)
                           1599 ;	game.c 221
                           1600 ; genIpush
   03A8 3E FB              1601 	ld	a,#0xFB
   03AA F5                 1602 	push	af
   03AB 33                 1603 	inc	sp
                           1604 ; genIpush
   03AC 3E FB              1605 	ld	a,#0xFB
   03AE F5                 1606 	push	af
   03AF 33                 1607 	inc	sp
                           1608 ; genIpush
   03B0 3E 0E              1609 	ld	a,#0x0E
   03B2 F5                 1610 	push	af
   03B3 33                 1611 	inc	sp
                           1612 ; genCall
   03B4 CD 00 00           1613 	call	_move_sprite
   03B7 E8 03              1614 	lda	sp,3(sp)
                           1615 ;	game.c 223
                           1616 ; genIpush
   03B9 3E 0F              1617 	ld	a,#0x0F
   03BB F5                 1618 	push	af
   03BC 33                 1619 	inc	sp
                           1620 ; genIpush
   03BD 3E 0F              1621 	ld	a,#0x0F
   03BF F5                 1622 	push	af
   03C0 33                 1623 	inc	sp
                           1624 ; genCall
   03C1 CD 00 00           1625 	call	_set_sprite_tile
   03C4 E8 02              1626 	lda	sp,2(sp)
                           1627 ;	game.c 224
                           1628 ; genIpush
   03C6 3E FB              1629 	ld	a,#0xFB
   03C8 F5                 1630 	push	af
   03C9 33                 1631 	inc	sp
                           1632 ; genIpush
   03CA 3E FB              1633 	ld	a,#0xFB
   03CC F5                 1634 	push	af
   03CD 33                 1635 	inc	sp
                           1636 ; genIpush
   03CE 3E 0F              1637 	ld	a,#0x0F
   03D0 F5                 1638 	push	af
   03D1 33                 1639 	inc	sp
                           1640 ; genCall
   03D2 CD 00 00           1641 	call	_move_sprite
   03D5 E8 03              1642 	lda	sp,3(sp)
                           1643 ;	game.c 227
                           1644 ; genCmpEq
                           1645 ; AOP_HL for _shockSend
   03D7 21 32 00           1646 	ld	hl,#_shockSend + 0
   03DA 7E                 1647 	ld	a,(hl)
   03DB B7                 1648 	or	a,a
   03DC C2 E1 03           1649 	jp	nz,00106$
   03DF 18 03              1650 	jr	00107$
   03E1                    1651 00106$:
   03E1 C3 FD 03           1652 	jp	00103$
   03E4                    1653 00107$:
                           1654 ;	game.c 228
                           1655 ; genIpush
   03E4 21 8A 3F           1656 	ld	hl,#_attackLook + 0
   03E7 E5                 1657 	push	hl
                           1658 ; genIpush
   03E8 3E 01              1659 	ld	a,#0x01
   03EA F5                 1660 	push	af
   03EB 33                 1661 	inc	sp
                           1662 ; genIpush
   03EC 3E 01              1663 	ld	a,#0x01
   03EE F5                 1664 	push	af
   03EF 33                 1665 	inc	sp
                           1666 ; genIpush
   03F0 3E 00              1667 	ld	a,#0x00
   03F2 F5                 1668 	push	af
   03F3 33                 1669 	inc	sp
                           1670 ; genIpush
   03F4 3E 03              1671 	ld	a,#0x03
   03F6 F5                 1672 	push	af
   03F7 33                 1673 	inc	sp
                           1674 ; genCall
   03F8 CD 00 00           1675 	call	_set_win_tiles
   03FB E8 06              1676 	lda	sp,6(sp)
                           1677 ; genLabel
   03FD                    1678 00103$:
                           1679 ; genEndFunction
   03FD E8 01              1680 	lda	sp,1(sp)
   03FF C1                 1681 	pop bc
   0400 C9                 1682 	ret
   0401                    1683 ___drawJudgeAttack1_end:
                           1684 ;	game.c 234
                           1685 ; genLabel
                           1686 ; genFunction
                           1687 ;	---------------------------------
                           1688 ; Function drawJudgeAttack2
                           1689 ; ---------------------------------
   0401                    1690 ___drawJudgeAttack2_start:
   0401                    1691 _drawJudgeAttack2:
   0401 C5                 1692 	push	bc
   0402 E8 FF              1693 	lda sp,-1(sp)
                           1694 ;	game.c 237
                           1695 ; genIpush
   0404 21 6E 33           1696 	ld	hl,#_JUDGEATTACK2 + 0
   0407 E5                 1697 	push	hl
                           1698 ; genIpush
   0408 3E 10              1699 	ld	a,#0x10
   040A F5                 1700 	push	af
   040B 33                 1701 	inc	sp
                           1702 ; genIpush
   040C 3E 00              1703 	ld	a,#0x00
   040E F5                 1704 	push	af
   040F 33                 1705 	inc	sp
                           1706 ; genCall
   0410 CD 00 00           1707 	call	_set_sprite_data
   0413 E8 04              1708 	lda	sp,4(sp)
                           1709 ;	game.c 240
                           1710 ; genIpush
   0415 3E 00              1711 	ld	a,#0x00
   0417 F5                 1712 	push	af
   0418 33                 1713 	inc	sp
                           1714 ; genIpush
   0419 3E 00              1715 	ld	a,#0x00
   041B F5                 1716 	push	af
   041C 33                 1717 	inc	sp
                           1718 ; genCall
   041D CD 00 00           1719 	call	_set_sprite_tile
   0420 E8 02              1720 	lda	sp,2(sp)
                           1721 ;	game.c 241
                           1722 ; genMinus
                           1723 ; AOP_HL for _posYJudge
   0422 21 2F 00           1724 	ld	hl,#_posYJudge + 0
   0425 7E                 1725 	ld	a,(hl)
   0426 C6 F8              1726 	add	a,#0xF8
   0428 4F                 1727 	ld	c,a
                           1728 ; genMinus
                           1729 ; AOP_HL for _posXJudge
   0429 21 2E 00           1730 	ld	hl,#_posXJudge + 0
   042C 7E                 1731 	ld	a,(hl)
   042D C6 F8              1732 	add	a,#0xF8
   042F 47                 1733 	ld	b,a
                           1734 ; genIpush
   0430 79                 1735 	ld	a,c
   0431 F5                 1736 	push	af
   0432 33                 1737 	inc	sp
                           1738 ; genIpush
   0433 78                 1739 	ld	a,b
   0434 F5                 1740 	push	af
   0435 33                 1741 	inc	sp
                           1742 ; genIpush
   0436 3E 00              1743 	ld	a,#0x00
   0438 F5                 1744 	push	af
   0439 33                 1745 	inc	sp
                           1746 ; genCall
   043A CD 00 00           1747 	call	_move_sprite
   043D E8 03              1748 	lda	sp,3(sp)
                           1749 ;	game.c 243
                           1750 ; genIpush
   043F 3E 01              1751 	ld	a,#0x01
   0441 F5                 1752 	push	af
   0442 33                 1753 	inc	sp
                           1754 ; genIpush
   0443 3E 01              1755 	ld	a,#0x01
   0445 F5                 1756 	push	af
   0446 33                 1757 	inc	sp
                           1758 ; genCall
   0447 CD 00 00           1759 	call	_set_sprite_tile
   044A E8 02              1760 	lda	sp,2(sp)
                           1761 ;	game.c 244
                           1762 ; genIpush
                           1763 ; AOP_HL for _posYJudge
   044C 21 2F 00           1764 	ld	hl,#_posYJudge + 0
   044F 7E                 1765 	ld	a,(hl)
   0450 F5                 1766 	push	af
   0451 33                 1767 	inc	sp
                           1768 ; genIpush
   0452 78                 1769 	ld	a,b
   0453 F5                 1770 	push	af
   0454 33                 1771 	inc	sp
                           1772 ; genIpush
   0455 3E 01              1773 	ld	a,#0x01
   0457 F5                 1774 	push	af
   0458 33                 1775 	inc	sp
                           1776 ; genCall
   0459 CD 00 00           1777 	call	_move_sprite
   045C E8 03              1778 	lda	sp,3(sp)
                           1779 ;	game.c 246
                           1780 ; genIpush
   045E 3E 02              1781 	ld	a,#0x02
   0460 F5                 1782 	push	af
   0461 33                 1783 	inc	sp
                           1784 ; genIpush
   0462 3E 02              1785 	ld	a,#0x02
   0464 F5                 1786 	push	af
   0465 33                 1787 	inc	sp
                           1788 ; genCall
   0466 CD 00 00           1789 	call	_set_sprite_tile
   0469 E8 02              1790 	lda	sp,2(sp)
                           1791 ;	game.c 247
                           1792 ; genIpush
   046B 3E FB              1793 	ld	a,#0xFB
   046D F5                 1794 	push	af
   046E 33                 1795 	inc	sp
                           1796 ; genIpush
   046F 3E FB              1797 	ld	a,#0xFB
   0471 F5                 1798 	push	af
   0472 33                 1799 	inc	sp
                           1800 ; genIpush
   0473 3E 02              1801 	ld	a,#0x02
   0475 F5                 1802 	push	af
   0476 33                 1803 	inc	sp
                           1804 ; genCall
   0477 CD 00 00           1805 	call	_move_sprite
   047A E8 03              1806 	lda	sp,3(sp)
                           1807 ;	game.c 250
                           1808 ; genIpush
   047C 3E 03              1809 	ld	a,#0x03
   047E F5                 1810 	push	af
   047F 33                 1811 	inc	sp
                           1812 ; genIpush
   0480 3E 03              1813 	ld	a,#0x03
   0482 F5                 1814 	push	af
   0483 33                 1815 	inc	sp
                           1816 ; genCall
   0484 CD 00 00           1817 	call	_set_sprite_tile
   0487 E8 02              1818 	lda	sp,2(sp)
                           1819 ;	game.c 251
                           1820 ; genIpush
                           1821 ; AOP_HL for _posYJudge
   0489 21 2F 00           1822 	ld	hl,#_posYJudge + 0
   048C 7E                 1823 	ld	a,(hl)
   048D F5                 1824 	push	af
   048E 33                 1825 	inc	sp
                           1826 ; genIpush
                           1827 ; AOP_HL for _posXJudge
   048F 21 2E 00           1828 	ld	hl,#_posXJudge + 0
   0492 7E                 1829 	ld	a,(hl)
   0493 F5                 1830 	push	af
   0494 33                 1831 	inc	sp
                           1832 ; genIpush
   0495 3E 03              1833 	ld	a,#0x03
   0497 F5                 1834 	push	af
   0498 33                 1835 	inc	sp
                           1836 ; genCall
   0499 CD 00 00           1837 	call	_move_sprite
   049C E8 03              1838 	lda	sp,3(sp)
                           1839 ;	game.c 253
                           1840 ; genIpush
   049E 3E 04              1841 	ld	a,#0x04
   04A0 F5                 1842 	push	af
   04A1 33                 1843 	inc	sp
                           1844 ; genIpush
   04A2 3E 04              1845 	ld	a,#0x04
   04A4 F5                 1846 	push	af
   04A5 33                 1847 	inc	sp
                           1848 ; genCall
   04A6 CD 00 00           1849 	call	_set_sprite_tile
   04A9 E8 02              1850 	lda	sp,2(sp)
                           1851 ;	game.c 254
                           1852 ; genPlus
                           1853 ; AOP_HL for _posYJudge
                           1854 ; AOP_STK for _drawJudgeAttack2_sloc0_1_0
                           1855 ; genPlusIncr
   04AB 21 2F 00           1856 	ld	hl,#_posYJudge + 0
   04AE 7E                 1857 	ld	a,(hl)
   04AF C6 08              1858 	add	a,#0x08
   04B1 F8 00              1859 	lda	hl,0(sp)
   04B3 77                 1860 	ld	(hl),a ; 3
                           1861 ; genIpush
                           1862 ; AOP_STK for _drawJudgeAttack2_sloc0_1_0
   04B4 7E                 1863 	ld	a,(hl)
   04B5 F5                 1864 	push	af
   04B6 33                 1865 	inc	sp
                           1866 ; genIpush
   04B7 78                 1867 	ld	a,b
   04B8 F5                 1868 	push	af
   04B9 33                 1869 	inc	sp
                           1870 ; genIpush
   04BA 3E 04              1871 	ld	a,#0x04
   04BC F5                 1872 	push	af
   04BD 33                 1873 	inc	sp
                           1874 ; genCall
   04BE CD 00 00           1875 	call	_move_sprite
   04C1 E8 03              1876 	lda	sp,3(sp)
                           1877 ;	game.c 256
                           1878 ; genIpush
   04C3 3E 05              1879 	ld	a,#0x05
   04C5 F5                 1880 	push	af
   04C6 33                 1881 	inc	sp
                           1882 ; genIpush
   04C7 3E 05              1883 	ld	a,#0x05
   04C9 F5                 1884 	push	af
   04CA 33                 1885 	inc	sp
                           1886 ; genCall
   04CB CD 00 00           1887 	call	_set_sprite_tile
   04CE E8 02              1888 	lda	sp,2(sp)
                           1889 ;	game.c 257
                           1890 ; genPlus
                           1891 ; AOP_HL for _posYJudge
                           1892 ; genPlusIncr
   04D0 21 2F 00           1893 	ld	hl,#_posYJudge + 0
   04D3 7E                 1894 	ld	a,(hl)
   04D4 C6 10              1895 	add	a,#0x10
   04D6 4F                 1896 	ld	c,a
                           1897 ; genIpush
   04D7 79                 1898 	ld	a,c
   04D8 F5                 1899 	push	af
   04D9 33                 1900 	inc	sp
                           1901 ; genIpush
   04DA 78                 1902 	ld	a,b
   04DB F5                 1903 	push	af
   04DC 33                 1904 	inc	sp
                           1905 ; genIpush
   04DD 3E 05              1906 	ld	a,#0x05
   04DF F5                 1907 	push	af
   04E0 33                 1908 	inc	sp
                           1909 ; genCall
   04E1 CD 00 00           1910 	call	_move_sprite
   04E4 E8 03              1911 	lda	sp,3(sp)
                           1912 ;	game.c 260
                           1913 ; genIpush
   04E6 3E 06              1914 	ld	a,#0x06
   04E8 F5                 1915 	push	af
   04E9 33                 1916 	inc	sp
                           1917 ; genIpush
   04EA 3E 06              1918 	ld	a,#0x06
   04EC F5                 1919 	push	af
   04ED 33                 1920 	inc	sp
                           1921 ; genCall
   04EE CD 00 00           1922 	call	_set_sprite_tile
   04F1 E8 02              1923 	lda	sp,2(sp)
                           1924 ;	game.c 261
                           1925 ; genIpush
                           1926 ; AOP_STK for _drawJudgeAttack2_sloc0_1_0
   04F3 F8 00              1927 	lda	hl,0(sp)
   04F5 7E                 1928 	ld	a,(hl)
   04F6 F5                 1929 	push	af
   04F7 33                 1930 	inc	sp
                           1931 ; genIpush
                           1932 ; AOP_HL for _posXJudge
   04F8 21 2E 00           1933 	ld	hl,#_posXJudge + 0
   04FB 7E                 1934 	ld	a,(hl)
   04FC F5                 1935 	push	af
   04FD 33                 1936 	inc	sp
                           1937 ; genIpush
   04FE 3E 06              1938 	ld	a,#0x06
   0500 F5                 1939 	push	af
   0501 33                 1940 	inc	sp
                           1941 ; genCall
   0502 CD 00 00           1942 	call	_move_sprite
   0505 E8 03              1943 	lda	sp,3(sp)
                           1944 ;	game.c 263
                           1945 ; genIpush
   0507 3E 07              1946 	ld	a,#0x07
   0509 F5                 1947 	push	af
   050A 33                 1948 	inc	sp
                           1949 ; genIpush
   050B 3E 07              1950 	ld	a,#0x07
   050D F5                 1951 	push	af
   050E 33                 1952 	inc	sp
                           1953 ; genCall
   050F CD 00 00           1954 	call	_set_sprite_tile
   0512 E8 02              1955 	lda	sp,2(sp)
                           1956 ;	game.c 264
                           1957 ; genIpush
   0514 79                 1958 	ld	a,c
   0515 F5                 1959 	push	af
   0516 33                 1960 	inc	sp
                           1961 ; genIpush
                           1962 ; AOP_HL for _posXJudge
   0517 21 2E 00           1963 	ld	hl,#_posXJudge + 0
   051A 7E                 1964 	ld	a,(hl)
   051B F5                 1965 	push	af
   051C 33                 1966 	inc	sp
                           1967 ; genIpush
   051D 3E 07              1968 	ld	a,#0x07
   051F F5                 1969 	push	af
   0520 33                 1970 	inc	sp
                           1971 ; genCall
   0521 CD 00 00           1972 	call	_move_sprite
   0524 E8 03              1973 	lda	sp,3(sp)
                           1974 ;	game.c 266
                           1975 ; genIpush
   0526 3E 08              1976 	ld	a,#0x08
   0528 F5                 1977 	push	af
   0529 33                 1978 	inc	sp
                           1979 ; genIpush
   052A 3E 08              1980 	ld	a,#0x08
   052C F5                 1981 	push	af
   052D 33                 1982 	inc	sp
                           1983 ; genCall
   052E CD 00 00           1984 	call	_set_sprite_tile
   0531 E8 02              1985 	lda	sp,2(sp)
                           1986 ;	game.c 267
                           1987 ; genIpush
   0533 3E FB              1988 	ld	a,#0xFB
   0535 F5                 1989 	push	af
   0536 33                 1990 	inc	sp
                           1991 ; genIpush
   0537 3E FB              1992 	ld	a,#0xFB
   0539 F5                 1993 	push	af
   053A 33                 1994 	inc	sp
                           1995 ; genIpush
   053B 3E 08              1996 	ld	a,#0x08
   053D F5                 1997 	push	af
   053E 33                 1998 	inc	sp
                           1999 ; genCall
   053F CD 00 00           2000 	call	_move_sprite
   0542 E8 03              2001 	lda	sp,3(sp)
                           2002 ;	game.c 269
                           2003 ; genIpush
   0544 3E 09              2004 	ld	a,#0x09
   0546 F5                 2005 	push	af
   0547 33                 2006 	inc	sp
                           2007 ; genIpush
   0548 3E 09              2008 	ld	a,#0x09
   054A F5                 2009 	push	af
   054B 33                 2010 	inc	sp
                           2011 ; genCall
   054C CD 00 00           2012 	call	_set_sprite_tile
   054F E8 02              2013 	lda	sp,2(sp)
                           2014 ;	game.c 270
                           2015 ; genPlus
                           2016 ; AOP_HL for _posXJudge
                           2017 ; genPlusIncr
   0551 21 2E 00           2018 	ld	hl,#_posXJudge + 0
   0554 7E                 2019 	ld	a,(hl)
   0555 C6 08              2020 	add	a,#0x08
   0557 47                 2021 	ld	b,a
                           2022 ; genIpush
                           2023 ; AOP_HL for _posYJudge
   0558 21 2F 00           2024 	ld	hl,#_posYJudge + 0
   055B 7E                 2025 	ld	a,(hl)
   055C F5                 2026 	push	af
   055D 33                 2027 	inc	sp
                           2028 ; genIpush
   055E 78                 2029 	ld	a,b
   055F F5                 2030 	push	af
   0560 33                 2031 	inc	sp
                           2032 ; genIpush
   0561 3E 09              2033 	ld	a,#0x09
   0563 F5                 2034 	push	af
   0564 33                 2035 	inc	sp
                           2036 ; genCall
   0565 CD 00 00           2037 	call	_move_sprite
   0568 E8 03              2038 	lda	sp,3(sp)
                           2039 ;	game.c 272
                           2040 ; genIpush
   056A 3E 0A              2041 	ld	a,#0x0A
   056C F5                 2042 	push	af
   056D 33                 2043 	inc	sp
                           2044 ; genIpush
   056E 3E 0A              2045 	ld	a,#0x0A
   0570 F5                 2046 	push	af
   0571 33                 2047 	inc	sp
                           2048 ; genCall
   0572 CD 00 00           2049 	call	_set_sprite_tile
   0575 E8 02              2050 	lda	sp,2(sp)
                           2051 ;	game.c 273
                           2052 ; genIpush
   0577 3E FB              2053 	ld	a,#0xFB
   0579 F5                 2054 	push	af
   057A 33                 2055 	inc	sp
                           2056 ; genIpush
   057B 3E FB              2057 	ld	a,#0xFB
   057D F5                 2058 	push	af
   057E 33                 2059 	inc	sp
                           2060 ; genIpush
   057F 3E 0A              2061 	ld	a,#0x0A
   0581 F5                 2062 	push	af
   0582 33                 2063 	inc	sp
                           2064 ; genCall
   0583 CD 00 00           2065 	call	_move_sprite
   0586 E8 03              2066 	lda	sp,3(sp)
                           2067 ;	game.c 275
                           2068 ; genIpush
   0588 3E 0B              2069 	ld	a,#0x0B
   058A F5                 2070 	push	af
   058B 33                 2071 	inc	sp
                           2072 ; genIpush
   058C 3E 0B              2073 	ld	a,#0x0B
   058E F5                 2074 	push	af
   058F 33                 2075 	inc	sp
                           2076 ; genCall
   0590 CD 00 00           2077 	call	_set_sprite_tile
   0593 E8 02              2078 	lda	sp,2(sp)
                           2079 ;	game.c 276
                           2080 ; genIpush
   0595 3E FB              2081 	ld	a,#0xFB
   0597 F5                 2082 	push	af
   0598 33                 2083 	inc	sp
                           2084 ; genIpush
   0599 3E FB              2085 	ld	a,#0xFB
   059B F5                 2086 	push	af
   059C 33                 2087 	inc	sp
                           2088 ; genIpush
   059D 3E 0B              2089 	ld	a,#0x0B
   059F F5                 2090 	push	af
   05A0 33                 2091 	inc	sp
                           2092 ; genCall
   05A1 CD 00 00           2093 	call	_move_sprite
   05A4 E8 03              2094 	lda	sp,3(sp)
                           2095 ;	game.c 279
                           2096 ; genIpush
   05A6 3E 0C              2097 	ld	a,#0x0C
   05A8 F5                 2098 	push	af
   05A9 33                 2099 	inc	sp
                           2100 ; genIpush
   05AA 3E 0C              2101 	ld	a,#0x0C
   05AC F5                 2102 	push	af
   05AD 33                 2103 	inc	sp
                           2104 ; genCall
   05AE CD 00 00           2105 	call	_set_sprite_tile
   05B1 E8 02              2106 	lda	sp,2(sp)
                           2107 ;	game.c 280
                           2108 ; genIpush
                           2109 ; AOP_STK for _drawJudgeAttack2_sloc0_1_0
   05B3 F8 00              2110 	lda	hl,0(sp)
   05B5 7E                 2111 	ld	a,(hl)
   05B6 F5                 2112 	push	af
   05B7 33                 2113 	inc	sp
                           2114 ; genIpush
   05B8 78                 2115 	ld	a,b
   05B9 F5                 2116 	push	af
   05BA 33                 2117 	inc	sp
                           2118 ; genIpush
   05BB 3E 0C              2119 	ld	a,#0x0C
   05BD F5                 2120 	push	af
   05BE 33                 2121 	inc	sp
                           2122 ; genCall
   05BF CD 00 00           2123 	call	_move_sprite
   05C2 E8 03              2124 	lda	sp,3(sp)
                           2125 ;	game.c 282
                           2126 ; genIpush
   05C4 3E 0D              2127 	ld	a,#0x0D
   05C6 F5                 2128 	push	af
   05C7 33                 2129 	inc	sp
                           2130 ; genIpush
   05C8 3E 0D              2131 	ld	a,#0x0D
   05CA F5                 2132 	push	af
   05CB 33                 2133 	inc	sp
                           2134 ; genCall
   05CC CD 00 00           2135 	call	_set_sprite_tile
   05CF E8 02              2136 	lda	sp,2(sp)
                           2137 ;	game.c 283
                           2138 ; genIpush
   05D1 79                 2139 	ld	a,c
   05D2 F5                 2140 	push	af
   05D3 33                 2141 	inc	sp
                           2142 ; genIpush
   05D4 78                 2143 	ld	a,b
   05D5 F5                 2144 	push	af
   05D6 33                 2145 	inc	sp
                           2146 ; genIpush
   05D7 3E 0D              2147 	ld	a,#0x0D
   05D9 F5                 2148 	push	af
   05DA 33                 2149 	inc	sp
                           2150 ; genCall
   05DB CD 00 00           2151 	call	_move_sprite
   05DE E8 03              2152 	lda	sp,3(sp)
                           2153 ;	game.c 285
                           2154 ; genIpush
   05E0 3E 0E              2155 	ld	a,#0x0E
   05E2 F5                 2156 	push	af
   05E3 33                 2157 	inc	sp
                           2158 ; genIpush
   05E4 3E 0E              2159 	ld	a,#0x0E
   05E6 F5                 2160 	push	af
   05E7 33                 2161 	inc	sp
                           2162 ; genCall
   05E8 CD 00 00           2163 	call	_set_sprite_tile
   05EB E8 02              2164 	lda	sp,2(sp)
                           2165 ;	game.c 286
                           2166 ; genPlus
                           2167 ; AOP_HL for _posXJudge
                           2168 ; genPlusIncr
   05ED 21 2E 00           2169 	ld	hl,#_posXJudge + 0
   05F0 7E                 2170 	ld	a,(hl)
   05F1 C6 10              2171 	add	a,#0x10
   05F3 47                 2172 	ld	b,a
                           2173 ; genIpush
                           2174 ; AOP_STK for _drawJudgeAttack2_sloc0_1_0
   05F4 F8 00              2175 	lda	hl,0(sp)
   05F6 7E                 2176 	ld	a,(hl)
   05F7 F5                 2177 	push	af
   05F8 33                 2178 	inc	sp
                           2179 ; genIpush
   05F9 78                 2180 	ld	a,b
   05FA F5                 2181 	push	af
   05FB 33                 2182 	inc	sp
                           2183 ; genIpush
   05FC 3E 0E              2184 	ld	a,#0x0E
   05FE F5                 2185 	push	af
   05FF 33                 2186 	inc	sp
                           2187 ; genCall
   0600 CD 00 00           2188 	call	_move_sprite
   0603 E8 03              2189 	lda	sp,3(sp)
                           2190 ;	game.c 288
                           2191 ; genIpush
   0605 3E 0F              2192 	ld	a,#0x0F
   0607 F5                 2193 	push	af
   0608 33                 2194 	inc	sp
                           2195 ; genIpush
   0609 3E 0F              2196 	ld	a,#0x0F
   060B F5                 2197 	push	af
   060C 33                 2198 	inc	sp
                           2199 ; genCall
   060D CD 00 00           2200 	call	_set_sprite_tile
   0610 E8 02              2201 	lda	sp,2(sp)
                           2202 ;	game.c 289
                           2203 ; genIpush
   0612 79                 2204 	ld	a,c
   0613 F5                 2205 	push	af
   0614 33                 2206 	inc	sp
                           2207 ; genIpush
   0615 78                 2208 	ld	a,b
   0616 F5                 2209 	push	af
   0617 33                 2210 	inc	sp
                           2211 ; genIpush
   0618 3E 0F              2212 	ld	a,#0x0F
   061A F5                 2213 	push	af
   061B 33                 2214 	inc	sp
                           2215 ; genCall
   061C CD 00 00           2216 	call	_move_sprite
   061F E8 03              2217 	lda	sp,3(sp)
                           2218 ;	game.c 291
                           2219 ; genCmpEq
                           2220 ; AOP_HL for _shockSend
   0621 21 32 00           2221 	ld	hl,#_shockSend + 0
   0624 7E                 2222 	ld	a,(hl)
   0625 B7                 2223 	or	a,a
   0626 C2 2B 06           2224 	jp	nz,00106$
   0629 18 03              2225 	jr	00107$
   062B                    2226 00106$:
   062B C3 47 06           2227 	jp	00103$
   062E                    2228 00107$:
                           2229 ;	game.c 292
                           2230 ; genIpush
   062E 21 8A 3F           2231 	ld	hl,#_attackLook + 0
   0631 E5                 2232 	push	hl
                           2233 ; genIpush
   0632 3E 01              2234 	ld	a,#0x01
   0634 F5                 2235 	push	af
   0635 33                 2236 	inc	sp
                           2237 ; genIpush
   0636 3E 01              2238 	ld	a,#0x01
   0638 F5                 2239 	push	af
   0639 33                 2240 	inc	sp
                           2241 ; genIpush
   063A 3E 00              2242 	ld	a,#0x00
   063C F5                 2243 	push	af
   063D 33                 2244 	inc	sp
                           2245 ; genIpush
   063E 3E 03              2246 	ld	a,#0x03
   0640 F5                 2247 	push	af
   0641 33                 2248 	inc	sp
                           2249 ; genCall
   0642 CD 00 00           2250 	call	_set_win_tiles
   0645 E8 06              2251 	lda	sp,6(sp)
                           2252 ; genLabel
   0647                    2253 00103$:
                           2254 ; genEndFunction
   0647 E8 01              2255 	lda	sp,1(sp)
   0649 C1                 2256 	pop bc
   064A C9                 2257 	ret
   064B                    2258 ___drawJudgeAttack2_end:
                           2259 ;	game.c 297
                           2260 ; genLabel
                           2261 ; genFunction
                           2262 ;	---------------------------------
                           2263 ; Function drawJudgeIDLE
                           2264 ; ---------------------------------
   064B                    2265 ___drawJudgeIDLE_start:
   064B                    2266 _drawJudgeIDLE:
   064B C5                 2267 	push	bc
   064C E8 FF              2268 	lda sp,-1(sp)
                           2269 ;	game.c 299
                           2270 ; genIpush
   064E 21 5E 2D           2271 	ld	hl,#_JUDGEIDLE + 0
   0651 E5                 2272 	push	hl
                           2273 ; genIpush
   0652 3E 10              2274 	ld	a,#0x10
   0654 F5                 2275 	push	af
   0655 33                 2276 	inc	sp
                           2277 ; genIpush
   0656 3E 00              2278 	ld	a,#0x00
   0658 F5                 2279 	push	af
   0659 33                 2280 	inc	sp
                           2281 ; genCall
   065A CD 00 00           2282 	call	_set_sprite_data
   065D E8 04              2283 	lda	sp,4(sp)
                           2284 ;	game.c 301
                           2285 ; genIpush
   065F 3E 00              2286 	ld	a,#0x00
   0661 F5                 2287 	push	af
   0662 33                 2288 	inc	sp
                           2289 ; genIpush
   0663 3E 00              2290 	ld	a,#0x00
   0665 F5                 2291 	push	af
   0666 33                 2292 	inc	sp
                           2293 ; genCall
   0667 CD 00 00           2294 	call	_set_sprite_tile
   066A E8 02              2295 	lda	sp,2(sp)
                           2296 ;	game.c 302
                           2297 ; genMinus
                           2298 ; AOP_HL for _posYJudge
   066C 21 2F 00           2299 	ld	hl,#_posYJudge + 0
   066F 7E                 2300 	ld	a,(hl)
   0670 C6 F8              2301 	add	a,#0xF8
   0672 4F                 2302 	ld	c,a
                           2303 ; genMinus
                           2304 ; AOP_HL for _posXJudge
   0673 21 2E 00           2305 	ld	hl,#_posXJudge + 0
   0676 7E                 2306 	ld	a,(hl)
   0677 C6 F8              2307 	add	a,#0xF8
   0679 47                 2308 	ld	b,a
                           2309 ; genIpush
   067A 79                 2310 	ld	a,c
   067B F5                 2311 	push	af
   067C 33                 2312 	inc	sp
                           2313 ; genIpush
   067D 78                 2314 	ld	a,b
   067E F5                 2315 	push	af
   067F 33                 2316 	inc	sp
                           2317 ; genIpush
   0680 3E 00              2318 	ld	a,#0x00
   0682 F5                 2319 	push	af
   0683 33                 2320 	inc	sp
                           2321 ; genCall
   0684 CD 00 00           2322 	call	_move_sprite
   0687 E8 03              2323 	lda	sp,3(sp)
                           2324 ;	game.c 304
                           2325 ; genIpush
   0689 3E 01              2326 	ld	a,#0x01
   068B F5                 2327 	push	af
   068C 33                 2328 	inc	sp
                           2329 ; genIpush
   068D 3E 01              2330 	ld	a,#0x01
   068F F5                 2331 	push	af
   0690 33                 2332 	inc	sp
                           2333 ; genCall
   0691 CD 00 00           2334 	call	_set_sprite_tile
   0694 E8 02              2335 	lda	sp,2(sp)
                           2336 ;	game.c 305
                           2337 ; genIpush
                           2338 ; AOP_HL for _posYJudge
   0696 21 2F 00           2339 	ld	hl,#_posYJudge + 0
   0699 7E                 2340 	ld	a,(hl)
   069A F5                 2341 	push	af
   069B 33                 2342 	inc	sp
                           2343 ; genIpush
   069C 78                 2344 	ld	a,b
   069D F5                 2345 	push	af
   069E 33                 2346 	inc	sp
                           2347 ; genIpush
   069F 3E 01              2348 	ld	a,#0x01
   06A1 F5                 2349 	push	af
   06A2 33                 2350 	inc	sp
                           2351 ; genCall
   06A3 CD 00 00           2352 	call	_move_sprite
   06A6 E8 03              2353 	lda	sp,3(sp)
                           2354 ;	game.c 307
                           2355 ; genIpush
   06A8 3E 02              2356 	ld	a,#0x02
   06AA F5                 2357 	push	af
   06AB 33                 2358 	inc	sp
                           2359 ; genIpush
   06AC 3E 02              2360 	ld	a,#0x02
   06AE F5                 2361 	push	af
   06AF 33                 2362 	inc	sp
                           2363 ; genCall
   06B0 CD 00 00           2364 	call	_set_sprite_tile
   06B3 E8 02              2365 	lda	sp,2(sp)
                           2366 ;	game.c 308
                           2367 ; genIpush
   06B5 3E FB              2368 	ld	a,#0xFB
   06B7 F5                 2369 	push	af
   06B8 33                 2370 	inc	sp
                           2371 ; genIpush
   06B9 3E FB              2372 	ld	a,#0xFB
   06BB F5                 2373 	push	af
   06BC 33                 2374 	inc	sp
                           2375 ; genIpush
   06BD 3E 02              2376 	ld	a,#0x02
   06BF F5                 2377 	push	af
   06C0 33                 2378 	inc	sp
                           2379 ; genCall
   06C1 CD 00 00           2380 	call	_move_sprite
   06C4 E8 03              2381 	lda	sp,3(sp)
                           2382 ;	game.c 311
                           2383 ; genIpush
   06C6 3E 03              2384 	ld	a,#0x03
   06C8 F5                 2385 	push	af
   06C9 33                 2386 	inc	sp
                           2387 ; genIpush
   06CA 3E 03              2388 	ld	a,#0x03
   06CC F5                 2389 	push	af
   06CD 33                 2390 	inc	sp
                           2391 ; genCall
   06CE CD 00 00           2392 	call	_set_sprite_tile
   06D1 E8 02              2393 	lda	sp,2(sp)
                           2394 ;	game.c 312
                           2395 ; genIpush
                           2396 ; AOP_HL for _posYJudge
   06D3 21 2F 00           2397 	ld	hl,#_posYJudge + 0
   06D6 7E                 2398 	ld	a,(hl)
   06D7 F5                 2399 	push	af
   06D8 33                 2400 	inc	sp
                           2401 ; genIpush
                           2402 ; AOP_HL for _posXJudge
   06D9 21 2E 00           2403 	ld	hl,#_posXJudge + 0
   06DC 7E                 2404 	ld	a,(hl)
   06DD F5                 2405 	push	af
   06DE 33                 2406 	inc	sp
                           2407 ; genIpush
   06DF 3E 03              2408 	ld	a,#0x03
   06E1 F5                 2409 	push	af
   06E2 33                 2410 	inc	sp
                           2411 ; genCall
   06E3 CD 00 00           2412 	call	_move_sprite
   06E6 E8 03              2413 	lda	sp,3(sp)
                           2414 ;	game.c 314
                           2415 ; genIpush
   06E8 3E 04              2416 	ld	a,#0x04
   06EA F5                 2417 	push	af
   06EB 33                 2418 	inc	sp
                           2419 ; genIpush
   06EC 3E 04              2420 	ld	a,#0x04
   06EE F5                 2421 	push	af
   06EF 33                 2422 	inc	sp
                           2423 ; genCall
   06F0 CD 00 00           2424 	call	_set_sprite_tile
   06F3 E8 02              2425 	lda	sp,2(sp)
                           2426 ;	game.c 315
                           2427 ; genPlus
                           2428 ; AOP_HL for _posYJudge
                           2429 ; AOP_STK for _drawJudgeIDLE_sloc0_1_0
                           2430 ; genPlusIncr
   06F5 21 2F 00           2431 	ld	hl,#_posYJudge + 0
   06F8 7E                 2432 	ld	a,(hl)
   06F9 C6 08              2433 	add	a,#0x08
   06FB F8 00              2434 	lda	hl,0(sp)
   06FD 77                 2435 	ld	(hl),a ; 3
                           2436 ; genIpush
                           2437 ; AOP_STK for _drawJudgeIDLE_sloc0_1_0
   06FE 7E                 2438 	ld	a,(hl)
   06FF F5                 2439 	push	af
   0700 33                 2440 	inc	sp
                           2441 ; genIpush
   0701 78                 2442 	ld	a,b
   0702 F5                 2443 	push	af
   0703 33                 2444 	inc	sp
                           2445 ; genIpush
   0704 3E 04              2446 	ld	a,#0x04
   0706 F5                 2447 	push	af
   0707 33                 2448 	inc	sp
                           2449 ; genCall
   0708 CD 00 00           2450 	call	_move_sprite
   070B E8 03              2451 	lda	sp,3(sp)
                           2452 ;	game.c 317
                           2453 ; genIpush
   070D 3E 05              2454 	ld	a,#0x05
   070F F5                 2455 	push	af
   0710 33                 2456 	inc	sp
                           2457 ; genIpush
   0711 3E 05              2458 	ld	a,#0x05
   0713 F5                 2459 	push	af
   0714 33                 2460 	inc	sp
                           2461 ; genCall
   0715 CD 00 00           2462 	call	_set_sprite_tile
   0718 E8 02              2463 	lda	sp,2(sp)
                           2464 ;	game.c 318
                           2465 ; genPlus
                           2466 ; AOP_HL for _posYJudge
                           2467 ; genPlusIncr
   071A 21 2F 00           2468 	ld	hl,#_posYJudge + 0
   071D 7E                 2469 	ld	a,(hl)
   071E C6 10              2470 	add	a,#0x10
   0720 4F                 2471 	ld	c,a
                           2472 ; genIpush
   0721 79                 2473 	ld	a,c
   0722 F5                 2474 	push	af
   0723 33                 2475 	inc	sp
                           2476 ; genIpush
   0724 78                 2477 	ld	a,b
   0725 F5                 2478 	push	af
   0726 33                 2479 	inc	sp
                           2480 ; genIpush
   0727 3E 05              2481 	ld	a,#0x05
   0729 F5                 2482 	push	af
   072A 33                 2483 	inc	sp
                           2484 ; genCall
   072B CD 00 00           2485 	call	_move_sprite
   072E E8 03              2486 	lda	sp,3(sp)
                           2487 ;	game.c 321
                           2488 ; genIpush
   0730 3E 06              2489 	ld	a,#0x06
   0732 F5                 2490 	push	af
   0733 33                 2491 	inc	sp
                           2492 ; genIpush
   0734 3E 06              2493 	ld	a,#0x06
   0736 F5                 2494 	push	af
   0737 33                 2495 	inc	sp
                           2496 ; genCall
   0738 CD 00 00           2497 	call	_set_sprite_tile
   073B E8 02              2498 	lda	sp,2(sp)
                           2499 ;	game.c 322
                           2500 ; genIpush
                           2501 ; AOP_STK for _drawJudgeIDLE_sloc0_1_0
   073D F8 00              2502 	lda	hl,0(sp)
   073F 7E                 2503 	ld	a,(hl)
   0740 F5                 2504 	push	af
   0741 33                 2505 	inc	sp
                           2506 ; genIpush
                           2507 ; AOP_HL for _posXJudge
   0742 21 2E 00           2508 	ld	hl,#_posXJudge + 0
   0745 7E                 2509 	ld	a,(hl)
   0746 F5                 2510 	push	af
   0747 33                 2511 	inc	sp
                           2512 ; genIpush
   0748 3E 06              2513 	ld	a,#0x06
   074A F5                 2514 	push	af
   074B 33                 2515 	inc	sp
                           2516 ; genCall
   074C CD 00 00           2517 	call	_move_sprite
   074F E8 03              2518 	lda	sp,3(sp)
                           2519 ;	game.c 324
                           2520 ; genIpush
   0751 3E 07              2521 	ld	a,#0x07
   0753 F5                 2522 	push	af
   0754 33                 2523 	inc	sp
                           2524 ; genIpush
   0755 3E 07              2525 	ld	a,#0x07
   0757 F5                 2526 	push	af
   0758 33                 2527 	inc	sp
                           2528 ; genCall
   0759 CD 00 00           2529 	call	_set_sprite_tile
   075C E8 02              2530 	lda	sp,2(sp)
                           2531 ;	game.c 325
                           2532 ; genIpush
   075E 79                 2533 	ld	a,c
   075F F5                 2534 	push	af
   0760 33                 2535 	inc	sp
                           2536 ; genIpush
                           2537 ; AOP_HL for _posXJudge
   0761 21 2E 00           2538 	ld	hl,#_posXJudge + 0
   0764 7E                 2539 	ld	a,(hl)
   0765 F5                 2540 	push	af
   0766 33                 2541 	inc	sp
                           2542 ; genIpush
   0767 3E 07              2543 	ld	a,#0x07
   0769 F5                 2544 	push	af
   076A 33                 2545 	inc	sp
                           2546 ; genCall
   076B CD 00 00           2547 	call	_move_sprite
   076E E8 03              2548 	lda	sp,3(sp)
                           2549 ;	game.c 327
                           2550 ; genIpush
   0770 3E 08              2551 	ld	a,#0x08
   0772 F5                 2552 	push	af
   0773 33                 2553 	inc	sp
                           2554 ; genIpush
   0774 3E 08              2555 	ld	a,#0x08
   0776 F5                 2556 	push	af
   0777 33                 2557 	inc	sp
                           2558 ; genCall
   0778 CD 00 00           2559 	call	_set_sprite_tile
   077B E8 02              2560 	lda	sp,2(sp)
                           2561 ;	game.c 328
                           2562 ; genIpush
   077D 3E FB              2563 	ld	a,#0xFB
   077F F5                 2564 	push	af
   0780 33                 2565 	inc	sp
                           2566 ; genIpush
   0781 3E FB              2567 	ld	a,#0xFB
   0783 F5                 2568 	push	af
   0784 33                 2569 	inc	sp
                           2570 ; genIpush
   0785 3E 08              2571 	ld	a,#0x08
   0787 F5                 2572 	push	af
   0788 33                 2573 	inc	sp
                           2574 ; genCall
   0789 CD 00 00           2575 	call	_move_sprite
   078C E8 03              2576 	lda	sp,3(sp)
                           2577 ;	game.c 330
                           2578 ; genIpush
   078E 3E 09              2579 	ld	a,#0x09
   0790 F5                 2580 	push	af
   0791 33                 2581 	inc	sp
                           2582 ; genIpush
   0792 3E 09              2583 	ld	a,#0x09
   0794 F5                 2584 	push	af
   0795 33                 2585 	inc	sp
                           2586 ; genCall
   0796 CD 00 00           2587 	call	_set_sprite_tile
   0799 E8 02              2588 	lda	sp,2(sp)
                           2589 ;	game.c 331
                           2590 ; genIpush
   079B 3E FB              2591 	ld	a,#0xFB
   079D F5                 2592 	push	af
   079E 33                 2593 	inc	sp
                           2594 ; genIpush
   079F 3E FB              2595 	ld	a,#0xFB
   07A1 F5                 2596 	push	af
   07A2 33                 2597 	inc	sp
                           2598 ; genIpush
   07A3 3E 09              2599 	ld	a,#0x09
   07A5 F5                 2600 	push	af
   07A6 33                 2601 	inc	sp
                           2602 ; genCall
   07A7 CD 00 00           2603 	call	_move_sprite
   07AA E8 03              2604 	lda	sp,3(sp)
                           2605 ;	game.c 333
                           2606 ; genIpush
   07AC 3E 0A              2607 	ld	a,#0x0A
   07AE F5                 2608 	push	af
   07AF 33                 2609 	inc	sp
                           2610 ; genIpush
   07B0 3E 0A              2611 	ld	a,#0x0A
   07B2 F5                 2612 	push	af
   07B3 33                 2613 	inc	sp
                           2614 ; genCall
   07B4 CD 00 00           2615 	call	_set_sprite_tile
   07B7 E8 02              2616 	lda	sp,2(sp)
                           2617 ;	game.c 334
                           2618 ; genIpush
   07B9 3E FB              2619 	ld	a,#0xFB
   07BB F5                 2620 	push	af
   07BC 33                 2621 	inc	sp
                           2622 ; genIpush
   07BD 3E FB              2623 	ld	a,#0xFB
   07BF F5                 2624 	push	af
   07C0 33                 2625 	inc	sp
                           2626 ; genIpush
   07C1 3E 0A              2627 	ld	a,#0x0A
   07C3 F5                 2628 	push	af
   07C4 33                 2629 	inc	sp
                           2630 ; genCall
   07C5 CD 00 00           2631 	call	_move_sprite
   07C8 E8 03              2632 	lda	sp,3(sp)
                           2633 ;	game.c 336
                           2634 ; genIpush
   07CA 3E 0B              2635 	ld	a,#0x0B
   07CC F5                 2636 	push	af
   07CD 33                 2637 	inc	sp
                           2638 ; genIpush
   07CE 3E 0B              2639 	ld	a,#0x0B
   07D0 F5                 2640 	push	af
   07D1 33                 2641 	inc	sp
                           2642 ; genCall
   07D2 CD 00 00           2643 	call	_set_sprite_tile
   07D5 E8 02              2644 	lda	sp,2(sp)
                           2645 ;	game.c 337
                           2646 ; genIpush
   07D7 3E FB              2647 	ld	a,#0xFB
   07D9 F5                 2648 	push	af
   07DA 33                 2649 	inc	sp
                           2650 ; genIpush
   07DB 3E FB              2651 	ld	a,#0xFB
   07DD F5                 2652 	push	af
   07DE 33                 2653 	inc	sp
                           2654 ; genIpush
   07DF 3E 0B              2655 	ld	a,#0x0B
   07E1 F5                 2656 	push	af
   07E2 33                 2657 	inc	sp
                           2658 ; genCall
   07E3 CD 00 00           2659 	call	_move_sprite
   07E6 E8 03              2660 	lda	sp,3(sp)
                           2661 ;	game.c 339
                           2662 ; genIpush
   07E8 3E 0C              2663 	ld	a,#0x0C
   07EA F5                 2664 	push	af
   07EB 33                 2665 	inc	sp
                           2666 ; genIpush
   07EC 3E 0C              2667 	ld	a,#0x0C
   07EE F5                 2668 	push	af
   07EF 33                 2669 	inc	sp
                           2670 ; genCall
   07F0 CD 00 00           2671 	call	_set_sprite_tile
   07F3 E8 02              2672 	lda	sp,2(sp)
                           2673 ;	game.c 340
                           2674 ; genPlus
                           2675 ; AOP_HL for _posXJudge
                           2676 ; genPlusIncr
   07F5 21 2E 00           2677 	ld	hl,#_posXJudge + 0
   07F8 7E                 2678 	ld	a,(hl)
   07F9 C6 08              2679 	add	a,#0x08
   07FB 47                 2680 	ld	b,a
                           2681 ; genIpush
                           2682 ; AOP_STK for _drawJudgeIDLE_sloc0_1_0
   07FC F8 00              2683 	lda	hl,0(sp)
   07FE 7E                 2684 	ld	a,(hl)
   07FF F5                 2685 	push	af
   0800 33                 2686 	inc	sp
                           2687 ; genIpush
   0801 78                 2688 	ld	a,b
   0802 F5                 2689 	push	af
   0803 33                 2690 	inc	sp
                           2691 ; genIpush
   0804 3E 0C              2692 	ld	a,#0x0C
   0806 F5                 2693 	push	af
   0807 33                 2694 	inc	sp
                           2695 ; genCall
   0808 CD 00 00           2696 	call	_move_sprite
   080B E8 03              2697 	lda	sp,3(sp)
                           2698 ;	game.c 342
                           2699 ; genIpush
   080D 3E 0D              2700 	ld	a,#0x0D
   080F F5                 2701 	push	af
   0810 33                 2702 	inc	sp
                           2703 ; genIpush
   0811 3E 0D              2704 	ld	a,#0x0D
   0813 F5                 2705 	push	af
   0814 33                 2706 	inc	sp
                           2707 ; genCall
   0815 CD 00 00           2708 	call	_set_sprite_tile
   0818 E8 02              2709 	lda	sp,2(sp)
                           2710 ;	game.c 343
                           2711 ; genIpush
   081A 79                 2712 	ld	a,c
   081B F5                 2713 	push	af
   081C 33                 2714 	inc	sp
                           2715 ; genIpush
   081D 78                 2716 	ld	a,b
   081E F5                 2717 	push	af
   081F 33                 2718 	inc	sp
                           2719 ; genIpush
   0820 3E 0D              2720 	ld	a,#0x0D
   0822 F5                 2721 	push	af
   0823 33                 2722 	inc	sp
                           2723 ; genCall
   0824 CD 00 00           2724 	call	_move_sprite
   0827 E8 03              2725 	lda	sp,3(sp)
                           2726 ;	game.c 345
                           2727 ; genIpush
   0829 3E 0E              2728 	ld	a,#0x0E
   082B F5                 2729 	push	af
   082C 33                 2730 	inc	sp
                           2731 ; genIpush
   082D 3E 0E              2732 	ld	a,#0x0E
   082F F5                 2733 	push	af
   0830 33                 2734 	inc	sp
                           2735 ; genCall
   0831 CD 00 00           2736 	call	_set_sprite_tile
   0834 E8 02              2737 	lda	sp,2(sp)
                           2738 ;	game.c 346
                           2739 ; genIpush
   0836 3E FB              2740 	ld	a,#0xFB
   0838 F5                 2741 	push	af
   0839 33                 2742 	inc	sp
                           2743 ; genIpush
   083A 3E FB              2744 	ld	a,#0xFB
   083C F5                 2745 	push	af
   083D 33                 2746 	inc	sp
                           2747 ; genIpush
   083E 3E 0E              2748 	ld	a,#0x0E
   0840 F5                 2749 	push	af
   0841 33                 2750 	inc	sp
                           2751 ; genCall
   0842 CD 00 00           2752 	call	_move_sprite
   0845 E8 03              2753 	lda	sp,3(sp)
                           2754 ;	game.c 348
                           2755 ; genIpush
   0847 3E 0F              2756 	ld	a,#0x0F
   0849 F5                 2757 	push	af
   084A 33                 2758 	inc	sp
                           2759 ; genIpush
   084B 3E 0F              2760 	ld	a,#0x0F
   084D F5                 2761 	push	af
   084E 33                 2762 	inc	sp
                           2763 ; genCall
   084F CD 00 00           2764 	call	_set_sprite_tile
   0852 E8 02              2765 	lda	sp,2(sp)
                           2766 ;	game.c 349
                           2767 ; genIpush
   0854 3E FB              2768 	ld	a,#0xFB
   0856 F5                 2769 	push	af
   0857 33                 2770 	inc	sp
                           2771 ; genIpush
   0858 3E FB              2772 	ld	a,#0xFB
   085A F5                 2773 	push	af
   085B 33                 2774 	inc	sp
                           2775 ; genIpush
   085C 3E 0F              2776 	ld	a,#0x0F
   085E F5                 2777 	push	af
   085F 33                 2778 	inc	sp
                           2779 ; genCall
   0860 CD 00 00           2780 	call	_move_sprite
   0863 E8 03              2781 	lda	sp,3(sp)
                           2782 ;	game.c 351
                           2783 ; genIpush
   0865 21 88 3F           2784 	ld	hl,#_simpleLook + 0
   0868 E5                 2785 	push	hl
                           2786 ; genIpush
   0869 3E 01              2787 	ld	a,#0x01
   086B F5                 2788 	push	af
   086C 33                 2789 	inc	sp
                           2790 ; genIpush
   086D 3E 01              2791 	ld	a,#0x01
   086F F5                 2792 	push	af
   0870 33                 2793 	inc	sp
                           2794 ; genIpush
   0871 3E 00              2795 	ld	a,#0x00
   0873 F5                 2796 	push	af
   0874 33                 2797 	inc	sp
                           2798 ; genIpush
   0875 3E 03              2799 	ld	a,#0x03
   0877 F5                 2800 	push	af
   0878 33                 2801 	inc	sp
                           2802 ; genCall
   0879 CD 00 00           2803 	call	_set_win_tiles
   087C E8 06              2804 	lda	sp,6(sp)
                           2805 ; genLabel
   087E                    2806 00101$:
                           2807 ; genEndFunction
   087E E8 01              2808 	lda	sp,1(sp)
   0880 C1                 2809 	pop bc
   0881 C9                 2810 	ret
   0882                    2811 ___drawJudgeIDLE_end:
                           2812 ;	game.c 355
                           2813 ; genLabel
                           2814 ; genFunction
                           2815 ;	---------------------------------
                           2816 ; Function drawJudgeWalk1
                           2817 ; ---------------------------------
   0882                    2818 ___drawJudgeWalk1_start:
   0882                    2819 _drawJudgeWalk1:
   0882 C5                 2820 	push	bc
   0883 E8 FF              2821 	lda sp,-1(sp)
                           2822 ;	game.c 357
                           2823 ; genIpush
   0885 21 5E 2E           2824 	ld	hl,#_JUDGEWALK1 + 0
   0888 E5                 2825 	push	hl
                           2826 ; genIpush
   0889 3E 10              2827 	ld	a,#0x10
   088B F5                 2828 	push	af
   088C 33                 2829 	inc	sp
                           2830 ; genIpush
   088D 3E 00              2831 	ld	a,#0x00
   088F F5                 2832 	push	af
   0890 33                 2833 	inc	sp
                           2834 ; genCall
   0891 CD 00 00           2835 	call	_set_sprite_data
   0894 E8 04              2836 	lda	sp,4(sp)
                           2837 ;	game.c 359
                           2838 ; genIpush
   0896 3E 00              2839 	ld	a,#0x00
   0898 F5                 2840 	push	af
   0899 33                 2841 	inc	sp
                           2842 ; genIpush
   089A 3E 00              2843 	ld	a,#0x00
   089C F5                 2844 	push	af
   089D 33                 2845 	inc	sp
                           2846 ; genCall
   089E CD 00 00           2847 	call	_set_sprite_tile
   08A1 E8 02              2848 	lda	sp,2(sp)
                           2849 ;	game.c 360
                           2850 ; genMinus
                           2851 ; AOP_HL for _posYJudge
   08A3 21 2F 00           2852 	ld	hl,#_posYJudge + 0
   08A6 7E                 2853 	ld	a,(hl)
   08A7 C6 F8              2854 	add	a,#0xF8
   08A9 4F                 2855 	ld	c,a
                           2856 ; genMinus
                           2857 ; AOP_HL for _posXJudge
   08AA 21 2E 00           2858 	ld	hl,#_posXJudge + 0
   08AD 7E                 2859 	ld	a,(hl)
   08AE C6 F8              2860 	add	a,#0xF8
   08B0 47                 2861 	ld	b,a
                           2862 ; genIpush
   08B1 79                 2863 	ld	a,c
   08B2 F5                 2864 	push	af
   08B3 33                 2865 	inc	sp
                           2866 ; genIpush
   08B4 78                 2867 	ld	a,b
   08B5 F5                 2868 	push	af
   08B6 33                 2869 	inc	sp
                           2870 ; genIpush
   08B7 3E 00              2871 	ld	a,#0x00
   08B9 F5                 2872 	push	af
   08BA 33                 2873 	inc	sp
                           2874 ; genCall
   08BB CD 00 00           2875 	call	_move_sprite
   08BE E8 03              2876 	lda	sp,3(sp)
                           2877 ;	game.c 362
                           2878 ; genIpush
   08C0 3E 01              2879 	ld	a,#0x01
   08C2 F5                 2880 	push	af
   08C3 33                 2881 	inc	sp
                           2882 ; genIpush
   08C4 3E 01              2883 	ld	a,#0x01
   08C6 F5                 2884 	push	af
   08C7 33                 2885 	inc	sp
                           2886 ; genCall
   08C8 CD 00 00           2887 	call	_set_sprite_tile
   08CB E8 02              2888 	lda	sp,2(sp)
                           2889 ;	game.c 363
                           2890 ; genIpush
                           2891 ; AOP_HL for _posYJudge
   08CD 21 2F 00           2892 	ld	hl,#_posYJudge + 0
   08D0 7E                 2893 	ld	a,(hl)
   08D1 F5                 2894 	push	af
   08D2 33                 2895 	inc	sp
                           2896 ; genIpush
   08D3 78                 2897 	ld	a,b
   08D4 F5                 2898 	push	af
   08D5 33                 2899 	inc	sp
                           2900 ; genIpush
   08D6 3E 01              2901 	ld	a,#0x01
   08D8 F5                 2902 	push	af
   08D9 33                 2903 	inc	sp
                           2904 ; genCall
   08DA CD 00 00           2905 	call	_move_sprite
   08DD E8 03              2906 	lda	sp,3(sp)
                           2907 ;	game.c 365
                           2908 ; genIpush
   08DF 3E 02              2909 	ld	a,#0x02
   08E1 F5                 2910 	push	af
   08E2 33                 2911 	inc	sp
                           2912 ; genIpush
   08E3 3E 02              2913 	ld	a,#0x02
   08E5 F5                 2914 	push	af
   08E6 33                 2915 	inc	sp
                           2916 ; genCall
   08E7 CD 00 00           2917 	call	_set_sprite_tile
   08EA E8 02              2918 	lda	sp,2(sp)
                           2919 ;	game.c 366
                           2920 ; genIpush
   08EC 3E FB              2921 	ld	a,#0xFB
   08EE F5                 2922 	push	af
   08EF 33                 2923 	inc	sp
                           2924 ; genIpush
   08F0 3E FB              2925 	ld	a,#0xFB
   08F2 F5                 2926 	push	af
   08F3 33                 2927 	inc	sp
                           2928 ; genIpush
   08F4 3E 02              2929 	ld	a,#0x02
   08F6 F5                 2930 	push	af
   08F7 33                 2931 	inc	sp
                           2932 ; genCall
   08F8 CD 00 00           2933 	call	_move_sprite
   08FB E8 03              2934 	lda	sp,3(sp)
                           2935 ;	game.c 369
                           2936 ; genIpush
   08FD 3E 03              2937 	ld	a,#0x03
   08FF F5                 2938 	push	af
   0900 33                 2939 	inc	sp
                           2940 ; genIpush
   0901 3E 03              2941 	ld	a,#0x03
   0903 F5                 2942 	push	af
   0904 33                 2943 	inc	sp
                           2944 ; genCall
   0905 CD 00 00           2945 	call	_set_sprite_tile
   0908 E8 02              2946 	lda	sp,2(sp)
                           2947 ;	game.c 370
                           2948 ; genIpush
                           2949 ; AOP_HL for _posYJudge
   090A 21 2F 00           2950 	ld	hl,#_posYJudge + 0
   090D 7E                 2951 	ld	a,(hl)
   090E F5                 2952 	push	af
   090F 33                 2953 	inc	sp
                           2954 ; genIpush
                           2955 ; AOP_HL for _posXJudge
   0910 21 2E 00           2956 	ld	hl,#_posXJudge + 0
   0913 7E                 2957 	ld	a,(hl)
   0914 F5                 2958 	push	af
   0915 33                 2959 	inc	sp
                           2960 ; genIpush
   0916 3E 03              2961 	ld	a,#0x03
   0918 F5                 2962 	push	af
   0919 33                 2963 	inc	sp
                           2964 ; genCall
   091A CD 00 00           2965 	call	_move_sprite
   091D E8 03              2966 	lda	sp,3(sp)
                           2967 ;	game.c 372
                           2968 ; genIpush
   091F 3E 04              2969 	ld	a,#0x04
   0921 F5                 2970 	push	af
   0922 33                 2971 	inc	sp
                           2972 ; genIpush
   0923 3E 04              2973 	ld	a,#0x04
   0925 F5                 2974 	push	af
   0926 33                 2975 	inc	sp
                           2976 ; genCall
   0927 CD 00 00           2977 	call	_set_sprite_tile
   092A E8 02              2978 	lda	sp,2(sp)
                           2979 ;	game.c 373
                           2980 ; genPlus
                           2981 ; AOP_HL for _posYJudge
                           2982 ; AOP_STK for _drawJudgeWalk1_sloc0_1_0
                           2983 ; genPlusIncr
   092C 21 2F 00           2984 	ld	hl,#_posYJudge + 0
   092F 7E                 2985 	ld	a,(hl)
   0930 C6 08              2986 	add	a,#0x08
   0932 F8 00              2987 	lda	hl,0(sp)
   0934 77                 2988 	ld	(hl),a ; 3
                           2989 ; genIpush
                           2990 ; AOP_STK for _drawJudgeWalk1_sloc0_1_0
   0935 7E                 2991 	ld	a,(hl)
   0936 F5                 2992 	push	af
   0937 33                 2993 	inc	sp
                           2994 ; genIpush
   0938 78                 2995 	ld	a,b
   0939 F5                 2996 	push	af
   093A 33                 2997 	inc	sp
                           2998 ; genIpush
   093B 3E 04              2999 	ld	a,#0x04
   093D F5                 3000 	push	af
   093E 33                 3001 	inc	sp
                           3002 ; genCall
   093F CD 00 00           3003 	call	_move_sprite
   0942 E8 03              3004 	lda	sp,3(sp)
                           3005 ;	game.c 375
                           3006 ; genIpush
   0944 3E 05              3007 	ld	a,#0x05
   0946 F5                 3008 	push	af
   0947 33                 3009 	inc	sp
                           3010 ; genIpush
   0948 3E 05              3011 	ld	a,#0x05
   094A F5                 3012 	push	af
   094B 33                 3013 	inc	sp
                           3014 ; genCall
   094C CD 00 00           3015 	call	_set_sprite_tile
   094F E8 02              3016 	lda	sp,2(sp)
                           3017 ;	game.c 376
                           3018 ; genPlus
                           3019 ; AOP_HL for _posYJudge
                           3020 ; genPlusIncr
   0951 21 2F 00           3021 	ld	hl,#_posYJudge + 0
   0954 7E                 3022 	ld	a,(hl)
   0955 C6 10              3023 	add	a,#0x10
   0957 4F                 3024 	ld	c,a
                           3025 ; genIpush
   0958 79                 3026 	ld	a,c
   0959 F5                 3027 	push	af
   095A 33                 3028 	inc	sp
                           3029 ; genIpush
   095B 78                 3030 	ld	a,b
   095C F5                 3031 	push	af
   095D 33                 3032 	inc	sp
                           3033 ; genIpush
   095E 3E 05              3034 	ld	a,#0x05
   0960 F5                 3035 	push	af
   0961 33                 3036 	inc	sp
                           3037 ; genCall
   0962 CD 00 00           3038 	call	_move_sprite
   0965 E8 03              3039 	lda	sp,3(sp)
                           3040 ;	game.c 379
                           3041 ; genIpush
   0967 3E 06              3042 	ld	a,#0x06
   0969 F5                 3043 	push	af
   096A 33                 3044 	inc	sp
                           3045 ; genIpush
   096B 3E 06              3046 	ld	a,#0x06
   096D F5                 3047 	push	af
   096E 33                 3048 	inc	sp
                           3049 ; genCall
   096F CD 00 00           3050 	call	_set_sprite_tile
   0972 E8 02              3051 	lda	sp,2(sp)
                           3052 ;	game.c 380
                           3053 ; genIpush
                           3054 ; AOP_STK for _drawJudgeWalk1_sloc0_1_0
   0974 F8 00              3055 	lda	hl,0(sp)
   0976 7E                 3056 	ld	a,(hl)
   0977 F5                 3057 	push	af
   0978 33                 3058 	inc	sp
                           3059 ; genIpush
                           3060 ; AOP_HL for _posXJudge
   0979 21 2E 00           3061 	ld	hl,#_posXJudge + 0
   097C 7E                 3062 	ld	a,(hl)
   097D F5                 3063 	push	af
   097E 33                 3064 	inc	sp
                           3065 ; genIpush
   097F 3E 06              3066 	ld	a,#0x06
   0981 F5                 3067 	push	af
   0982 33                 3068 	inc	sp
                           3069 ; genCall
   0983 CD 00 00           3070 	call	_move_sprite
   0986 E8 03              3071 	lda	sp,3(sp)
                           3072 ;	game.c 382
                           3073 ; genIpush
   0988 3E 07              3074 	ld	a,#0x07
   098A F5                 3075 	push	af
   098B 33                 3076 	inc	sp
                           3077 ; genIpush
   098C 3E 07              3078 	ld	a,#0x07
   098E F5                 3079 	push	af
   098F 33                 3080 	inc	sp
                           3081 ; genCall
   0990 CD 00 00           3082 	call	_set_sprite_tile
   0993 E8 02              3083 	lda	sp,2(sp)
                           3084 ;	game.c 383
                           3085 ; genIpush
   0995 79                 3086 	ld	a,c
   0996 F5                 3087 	push	af
   0997 33                 3088 	inc	sp
                           3089 ; genIpush
                           3090 ; AOP_HL for _posXJudge
   0998 21 2E 00           3091 	ld	hl,#_posXJudge + 0
   099B 7E                 3092 	ld	a,(hl)
   099C F5                 3093 	push	af
   099D 33                 3094 	inc	sp
                           3095 ; genIpush
   099E 3E 07              3096 	ld	a,#0x07
   09A0 F5                 3097 	push	af
   09A1 33                 3098 	inc	sp
                           3099 ; genCall
   09A2 CD 00 00           3100 	call	_move_sprite
   09A5 E8 03              3101 	lda	sp,3(sp)
                           3102 ;	game.c 385
                           3103 ; genIpush
   09A7 3E 08              3104 	ld	a,#0x08
   09A9 F5                 3105 	push	af
   09AA 33                 3106 	inc	sp
                           3107 ; genIpush
   09AB 3E 08              3108 	ld	a,#0x08
   09AD F5                 3109 	push	af
   09AE 33                 3110 	inc	sp
                           3111 ; genCall
   09AF CD 00 00           3112 	call	_set_sprite_tile
   09B2 E8 02              3113 	lda	sp,2(sp)
                           3114 ;	game.c 386
                           3115 ; genIpush
   09B4 3E FB              3116 	ld	a,#0xFB
   09B6 F5                 3117 	push	af
   09B7 33                 3118 	inc	sp
                           3119 ; genIpush
   09B8 3E FB              3120 	ld	a,#0xFB
   09BA F5                 3121 	push	af
   09BB 33                 3122 	inc	sp
                           3123 ; genIpush
   09BC 3E 08              3124 	ld	a,#0x08
   09BE F5                 3125 	push	af
   09BF 33                 3126 	inc	sp
                           3127 ; genCall
   09C0 CD 00 00           3128 	call	_move_sprite
   09C3 E8 03              3129 	lda	sp,3(sp)
                           3130 ;	game.c 388
                           3131 ; genIpush
   09C5 3E 09              3132 	ld	a,#0x09
   09C7 F5                 3133 	push	af
   09C8 33                 3134 	inc	sp
                           3135 ; genIpush
   09C9 3E 09              3136 	ld	a,#0x09
   09CB F5                 3137 	push	af
   09CC 33                 3138 	inc	sp
                           3139 ; genCall
   09CD CD 00 00           3140 	call	_set_sprite_tile
   09D0 E8 02              3141 	lda	sp,2(sp)
                           3142 ;	game.c 389
                           3143 ; genIpush
   09D2 3E FB              3144 	ld	a,#0xFB
   09D4 F5                 3145 	push	af
   09D5 33                 3146 	inc	sp
                           3147 ; genIpush
   09D6 3E FB              3148 	ld	a,#0xFB
   09D8 F5                 3149 	push	af
   09D9 33                 3150 	inc	sp
                           3151 ; genIpush
   09DA 3E 09              3152 	ld	a,#0x09
   09DC F5                 3153 	push	af
   09DD 33                 3154 	inc	sp
                           3155 ; genCall
   09DE CD 00 00           3156 	call	_move_sprite
   09E1 E8 03              3157 	lda	sp,3(sp)
                           3158 ;	game.c 391
                           3159 ; genIpush
   09E3 3E 0A              3160 	ld	a,#0x0A
   09E5 F5                 3161 	push	af
   09E6 33                 3162 	inc	sp
                           3163 ; genIpush
   09E7 3E 0A              3164 	ld	a,#0x0A
   09E9 F5                 3165 	push	af
   09EA 33                 3166 	inc	sp
                           3167 ; genCall
   09EB CD 00 00           3168 	call	_set_sprite_tile
   09EE E8 02              3169 	lda	sp,2(sp)
                           3170 ;	game.c 392
                           3171 ; genIpush
   09F0 3E FB              3172 	ld	a,#0xFB
   09F2 F5                 3173 	push	af
   09F3 33                 3174 	inc	sp
                           3175 ; genIpush
   09F4 3E FB              3176 	ld	a,#0xFB
   09F6 F5                 3177 	push	af
   09F7 33                 3178 	inc	sp
                           3179 ; genIpush
   09F8 3E 0A              3180 	ld	a,#0x0A
   09FA F5                 3181 	push	af
   09FB 33                 3182 	inc	sp
                           3183 ; genCall
   09FC CD 00 00           3184 	call	_move_sprite
   09FF E8 03              3185 	lda	sp,3(sp)
                           3186 ;	game.c 394
                           3187 ; genIpush
   0A01 3E 0B              3188 	ld	a,#0x0B
   0A03 F5                 3189 	push	af
   0A04 33                 3190 	inc	sp
                           3191 ; genIpush
   0A05 3E 0B              3192 	ld	a,#0x0B
   0A07 F5                 3193 	push	af
   0A08 33                 3194 	inc	sp
                           3195 ; genCall
   0A09 CD 00 00           3196 	call	_set_sprite_tile
   0A0C E8 02              3197 	lda	sp,2(sp)
                           3198 ;	game.c 395
                           3199 ; genIpush
   0A0E 3E FB              3200 	ld	a,#0xFB
   0A10 F5                 3201 	push	af
   0A11 33                 3202 	inc	sp
                           3203 ; genIpush
   0A12 3E FB              3204 	ld	a,#0xFB
   0A14 F5                 3205 	push	af
   0A15 33                 3206 	inc	sp
                           3207 ; genIpush
   0A16 3E 0B              3208 	ld	a,#0x0B
   0A18 F5                 3209 	push	af
   0A19 33                 3210 	inc	sp
                           3211 ; genCall
   0A1A CD 00 00           3212 	call	_move_sprite
   0A1D E8 03              3213 	lda	sp,3(sp)
                           3214 ;	game.c 398
                           3215 ; genIpush
   0A1F 3E 0C              3216 	ld	a,#0x0C
   0A21 F5                 3217 	push	af
   0A22 33                 3218 	inc	sp
                           3219 ; genIpush
   0A23 3E 0C              3220 	ld	a,#0x0C
   0A25 F5                 3221 	push	af
   0A26 33                 3222 	inc	sp
                           3223 ; genCall
   0A27 CD 00 00           3224 	call	_set_sprite_tile
   0A2A E8 02              3225 	lda	sp,2(sp)
                           3226 ;	game.c 399
                           3227 ; genPlus
                           3228 ; AOP_HL for _posXJudge
                           3229 ; genPlusIncr
   0A2C 21 2E 00           3230 	ld	hl,#_posXJudge + 0
   0A2F 7E                 3231 	ld	a,(hl)
   0A30 C6 08              3232 	add	a,#0x08
   0A32 47                 3233 	ld	b,a
                           3234 ; genIpush
                           3235 ; AOP_STK for _drawJudgeWalk1_sloc0_1_0
   0A33 F8 00              3236 	lda	hl,0(sp)
   0A35 7E                 3237 	ld	a,(hl)
   0A36 F5                 3238 	push	af
   0A37 33                 3239 	inc	sp
                           3240 ; genIpush
   0A38 78                 3241 	ld	a,b
   0A39 F5                 3242 	push	af
   0A3A 33                 3243 	inc	sp
                           3244 ; genIpush
   0A3B 3E 0C              3245 	ld	a,#0x0C
   0A3D F5                 3246 	push	af
   0A3E 33                 3247 	inc	sp
                           3248 ; genCall
   0A3F CD 00 00           3249 	call	_move_sprite
   0A42 E8 03              3250 	lda	sp,3(sp)
                           3251 ;	game.c 403
                           3252 ; genIpush
   0A44 3E 0D              3253 	ld	a,#0x0D
   0A46 F5                 3254 	push	af
   0A47 33                 3255 	inc	sp
                           3256 ; genIpush
   0A48 3E 0D              3257 	ld	a,#0x0D
   0A4A F5                 3258 	push	af
   0A4B 33                 3259 	inc	sp
                           3260 ; genCall
   0A4C CD 00 00           3261 	call	_set_sprite_tile
   0A4F E8 02              3262 	lda	sp,2(sp)
                           3263 ;	game.c 404
                           3264 ; genIpush
   0A51 79                 3265 	ld	a,c
   0A52 F5                 3266 	push	af
   0A53 33                 3267 	inc	sp
                           3268 ; genIpush
   0A54 78                 3269 	ld	a,b
   0A55 F5                 3270 	push	af
   0A56 33                 3271 	inc	sp
                           3272 ; genIpush
   0A57 3E 0D              3273 	ld	a,#0x0D
   0A59 F5                 3274 	push	af
   0A5A 33                 3275 	inc	sp
                           3276 ; genCall
   0A5B CD 00 00           3277 	call	_move_sprite
   0A5E E8 03              3278 	lda	sp,3(sp)
                           3279 ;	game.c 406
                           3280 ; genIpush
   0A60 3E 0E              3281 	ld	a,#0x0E
   0A62 F5                 3282 	push	af
   0A63 33                 3283 	inc	sp
                           3284 ; genIpush
   0A64 3E 0E              3285 	ld	a,#0x0E
   0A66 F5                 3286 	push	af
   0A67 33                 3287 	inc	sp
                           3288 ; genCall
   0A68 CD 00 00           3289 	call	_set_sprite_tile
   0A6B E8 02              3290 	lda	sp,2(sp)
                           3291 ;	game.c 407
                           3292 ; genIpush
   0A6D 3E FB              3293 	ld	a,#0xFB
   0A6F F5                 3294 	push	af
   0A70 33                 3295 	inc	sp
                           3296 ; genIpush
   0A71 3E FB              3297 	ld	a,#0xFB
   0A73 F5                 3298 	push	af
   0A74 33                 3299 	inc	sp
                           3300 ; genIpush
   0A75 3E 0E              3301 	ld	a,#0x0E
   0A77 F5                 3302 	push	af
   0A78 33                 3303 	inc	sp
                           3304 ; genCall
   0A79 CD 00 00           3305 	call	_move_sprite
   0A7C E8 03              3306 	lda	sp,3(sp)
                           3307 ;	game.c 409
                           3308 ; genIpush
   0A7E 3E 0F              3309 	ld	a,#0x0F
   0A80 F5                 3310 	push	af
   0A81 33                 3311 	inc	sp
                           3312 ; genIpush
   0A82 3E 0F              3313 	ld	a,#0x0F
   0A84 F5                 3314 	push	af
   0A85 33                 3315 	inc	sp
                           3316 ; genCall
   0A86 CD 00 00           3317 	call	_set_sprite_tile
   0A89 E8 02              3318 	lda	sp,2(sp)
                           3319 ;	game.c 410
                           3320 ; genIpush
   0A8B 3E FB              3321 	ld	a,#0xFB
   0A8D F5                 3322 	push	af
   0A8E 33                 3323 	inc	sp
                           3324 ; genIpush
   0A8F 3E FB              3325 	ld	a,#0xFB
   0A91 F5                 3326 	push	af
   0A92 33                 3327 	inc	sp
                           3328 ; genIpush
   0A93 3E 0F              3329 	ld	a,#0x0F
   0A95 F5                 3330 	push	af
   0A96 33                 3331 	inc	sp
                           3332 ; genCall
   0A97 CD 00 00           3333 	call	_move_sprite
   0A9A E8 03              3334 	lda	sp,3(sp)
                           3335 ;	game.c 412
                           3336 ; genIpush
   0A9C 21 88 3F           3337 	ld	hl,#_simpleLook + 0
   0A9F E5                 3338 	push	hl
                           3339 ; genIpush
   0AA0 3E 01              3340 	ld	a,#0x01
   0AA2 F5                 3341 	push	af
   0AA3 33                 3342 	inc	sp
                           3343 ; genIpush
   0AA4 3E 01              3344 	ld	a,#0x01
   0AA6 F5                 3345 	push	af
   0AA7 33                 3346 	inc	sp
                           3347 ; genIpush
   0AA8 3E 00              3348 	ld	a,#0x00
   0AAA F5                 3349 	push	af
   0AAB 33                 3350 	inc	sp
                           3351 ; genIpush
   0AAC 3E 03              3352 	ld	a,#0x03
   0AAE F5                 3353 	push	af
   0AAF 33                 3354 	inc	sp
                           3355 ; genCall
   0AB0 CD 00 00           3356 	call	_set_win_tiles
   0AB3 E8 06              3357 	lda	sp,6(sp)
                           3358 ; genLabel
   0AB5                    3359 00101$:
                           3360 ; genEndFunction
   0AB5 E8 01              3361 	lda	sp,1(sp)
   0AB7 C1                 3362 	pop bc
   0AB8 C9                 3363 	ret
   0AB9                    3364 ___drawJudgeWalk1_end:
                           3365 ;	game.c 417
                           3366 ; genLabel
                           3367 ; genFunction
                           3368 ;	---------------------------------
                           3369 ; Function drawJudgeWalk2
                           3370 ; ---------------------------------
   0AB9                    3371 ___drawJudgeWalk2_start:
   0AB9                    3372 _drawJudgeWalk2:
   0AB9 C5                 3373 	push	bc
   0ABA E8 FF              3374 	lda sp,-1(sp)
                           3375 ;	game.c 419
                           3376 ; genIpush
   0ABC 21 5E 2F           3377 	ld	hl,#_JUDGEWALK2 + 0
   0ABF E5                 3378 	push	hl
                           3379 ; genIpush
   0AC0 3E 10              3380 	ld	a,#0x10
   0AC2 F5                 3381 	push	af
   0AC3 33                 3382 	inc	sp
                           3383 ; genIpush
   0AC4 3E 00              3384 	ld	a,#0x00
   0AC6 F5                 3385 	push	af
   0AC7 33                 3386 	inc	sp
                           3387 ; genCall
   0AC8 CD 00 00           3388 	call	_set_sprite_data
   0ACB E8 04              3389 	lda	sp,4(sp)
                           3390 ;	game.c 421
                           3391 ; genIpush
   0ACD 3E 00              3392 	ld	a,#0x00
   0ACF F5                 3393 	push	af
   0AD0 33                 3394 	inc	sp
                           3395 ; genIpush
   0AD1 3E 00              3396 	ld	a,#0x00
   0AD3 F5                 3397 	push	af
   0AD4 33                 3398 	inc	sp
                           3399 ; genCall
   0AD5 CD 00 00           3400 	call	_set_sprite_tile
   0AD8 E8 02              3401 	lda	sp,2(sp)
                           3402 ;	game.c 422
                           3403 ; genMinus
                           3404 ; AOP_HL for _posYJudge
   0ADA 21 2F 00           3405 	ld	hl,#_posYJudge + 0
   0ADD 7E                 3406 	ld	a,(hl)
   0ADE C6 F8              3407 	add	a,#0xF8
   0AE0 4F                 3408 	ld	c,a
                           3409 ; genMinus
                           3410 ; AOP_HL for _posXJudge
   0AE1 21 2E 00           3411 	ld	hl,#_posXJudge + 0
   0AE4 7E                 3412 	ld	a,(hl)
   0AE5 C6 F8              3413 	add	a,#0xF8
   0AE7 47                 3414 	ld	b,a
                           3415 ; genIpush
   0AE8 79                 3416 	ld	a,c
   0AE9 F5                 3417 	push	af
   0AEA 33                 3418 	inc	sp
                           3419 ; genIpush
   0AEB 78                 3420 	ld	a,b
   0AEC F5                 3421 	push	af
   0AED 33                 3422 	inc	sp
                           3423 ; genIpush
   0AEE 3E 00              3424 	ld	a,#0x00
   0AF0 F5                 3425 	push	af
   0AF1 33                 3426 	inc	sp
                           3427 ; genCall
   0AF2 CD 00 00           3428 	call	_move_sprite
   0AF5 E8 03              3429 	lda	sp,3(sp)
                           3430 ;	game.c 424
                           3431 ; genIpush
   0AF7 3E 01              3432 	ld	a,#0x01
   0AF9 F5                 3433 	push	af
   0AFA 33                 3434 	inc	sp
                           3435 ; genIpush
   0AFB 3E 01              3436 	ld	a,#0x01
   0AFD F5                 3437 	push	af
   0AFE 33                 3438 	inc	sp
                           3439 ; genCall
   0AFF CD 00 00           3440 	call	_set_sprite_tile
   0B02 E8 02              3441 	lda	sp,2(sp)
                           3442 ;	game.c 425
                           3443 ; genIpush
                           3444 ; AOP_HL for _posYJudge
   0B04 21 2F 00           3445 	ld	hl,#_posYJudge + 0
   0B07 7E                 3446 	ld	a,(hl)
   0B08 F5                 3447 	push	af
   0B09 33                 3448 	inc	sp
                           3449 ; genIpush
   0B0A 78                 3450 	ld	a,b
   0B0B F5                 3451 	push	af
   0B0C 33                 3452 	inc	sp
                           3453 ; genIpush
   0B0D 3E 01              3454 	ld	a,#0x01
   0B0F F5                 3455 	push	af
   0B10 33                 3456 	inc	sp
                           3457 ; genCall
   0B11 CD 00 00           3458 	call	_move_sprite
   0B14 E8 03              3459 	lda	sp,3(sp)
                           3460 ;	game.c 427
                           3461 ; genIpush
   0B16 3E 02              3462 	ld	a,#0x02
   0B18 F5                 3463 	push	af
   0B19 33                 3464 	inc	sp
                           3465 ; genIpush
   0B1A 3E 02              3466 	ld	a,#0x02
   0B1C F5                 3467 	push	af
   0B1D 33                 3468 	inc	sp
                           3469 ; genCall
   0B1E CD 00 00           3470 	call	_set_sprite_tile
   0B21 E8 02              3471 	lda	sp,2(sp)
                           3472 ;	game.c 428
                           3473 ; genIpush
   0B23 3E FB              3474 	ld	a,#0xFB
   0B25 F5                 3475 	push	af
   0B26 33                 3476 	inc	sp
                           3477 ; genIpush
   0B27 3E FB              3478 	ld	a,#0xFB
   0B29 F5                 3479 	push	af
   0B2A 33                 3480 	inc	sp
                           3481 ; genIpush
   0B2B 3E 02              3482 	ld	a,#0x02
   0B2D F5                 3483 	push	af
   0B2E 33                 3484 	inc	sp
                           3485 ; genCall
   0B2F CD 00 00           3486 	call	_move_sprite
   0B32 E8 03              3487 	lda	sp,3(sp)
                           3488 ;	game.c 431
                           3489 ; genIpush
   0B34 3E 03              3490 	ld	a,#0x03
   0B36 F5                 3491 	push	af
   0B37 33                 3492 	inc	sp
                           3493 ; genIpush
   0B38 3E 03              3494 	ld	a,#0x03
   0B3A F5                 3495 	push	af
   0B3B 33                 3496 	inc	sp
                           3497 ; genCall
   0B3C CD 00 00           3498 	call	_set_sprite_tile
   0B3F E8 02              3499 	lda	sp,2(sp)
                           3500 ;	game.c 432
                           3501 ; genIpush
                           3502 ; AOP_HL for _posYJudge
   0B41 21 2F 00           3503 	ld	hl,#_posYJudge + 0
   0B44 7E                 3504 	ld	a,(hl)
   0B45 F5                 3505 	push	af
   0B46 33                 3506 	inc	sp
                           3507 ; genIpush
                           3508 ; AOP_HL for _posXJudge
   0B47 21 2E 00           3509 	ld	hl,#_posXJudge + 0
   0B4A 7E                 3510 	ld	a,(hl)
   0B4B F5                 3511 	push	af
   0B4C 33                 3512 	inc	sp
                           3513 ; genIpush
   0B4D 3E 03              3514 	ld	a,#0x03
   0B4F F5                 3515 	push	af
   0B50 33                 3516 	inc	sp
                           3517 ; genCall
   0B51 CD 00 00           3518 	call	_move_sprite
   0B54 E8 03              3519 	lda	sp,3(sp)
                           3520 ;	game.c 434
                           3521 ; genIpush
   0B56 3E 04              3522 	ld	a,#0x04
   0B58 F5                 3523 	push	af
   0B59 33                 3524 	inc	sp
                           3525 ; genIpush
   0B5A 3E 04              3526 	ld	a,#0x04
   0B5C F5                 3527 	push	af
   0B5D 33                 3528 	inc	sp
                           3529 ; genCall
   0B5E CD 00 00           3530 	call	_set_sprite_tile
   0B61 E8 02              3531 	lda	sp,2(sp)
                           3532 ;	game.c 435
                           3533 ; genPlus
                           3534 ; AOP_HL for _posYJudge
                           3535 ; AOP_STK for _drawJudgeWalk2_sloc0_1_0
                           3536 ; genPlusIncr
   0B63 21 2F 00           3537 	ld	hl,#_posYJudge + 0
   0B66 7E                 3538 	ld	a,(hl)
   0B67 C6 08              3539 	add	a,#0x08
   0B69 F8 00              3540 	lda	hl,0(sp)
   0B6B 77                 3541 	ld	(hl),a ; 3
                           3542 ; genIpush
                           3543 ; AOP_STK for _drawJudgeWalk2_sloc0_1_0
   0B6C 7E                 3544 	ld	a,(hl)
   0B6D F5                 3545 	push	af
   0B6E 33                 3546 	inc	sp
                           3547 ; genIpush
   0B6F 78                 3548 	ld	a,b
   0B70 F5                 3549 	push	af
   0B71 33                 3550 	inc	sp
                           3551 ; genIpush
   0B72 3E 04              3552 	ld	a,#0x04
   0B74 F5                 3553 	push	af
   0B75 33                 3554 	inc	sp
                           3555 ; genCall
   0B76 CD 00 00           3556 	call	_move_sprite
   0B79 E8 03              3557 	lda	sp,3(sp)
                           3558 ;	game.c 437
                           3559 ; genIpush
   0B7B 3E 05              3560 	ld	a,#0x05
   0B7D F5                 3561 	push	af
   0B7E 33                 3562 	inc	sp
                           3563 ; genIpush
   0B7F 3E 05              3564 	ld	a,#0x05
   0B81 F5                 3565 	push	af
   0B82 33                 3566 	inc	sp
                           3567 ; genCall
   0B83 CD 00 00           3568 	call	_set_sprite_tile
   0B86 E8 02              3569 	lda	sp,2(sp)
                           3570 ;	game.c 438
                           3571 ; genPlus
                           3572 ; AOP_HL for _posYJudge
                           3573 ; genPlusIncr
   0B88 21 2F 00           3574 	ld	hl,#_posYJudge + 0
   0B8B 7E                 3575 	ld	a,(hl)
   0B8C C6 10              3576 	add	a,#0x10
   0B8E 4F                 3577 	ld	c,a
                           3578 ; genIpush
   0B8F 79                 3579 	ld	a,c
   0B90 F5                 3580 	push	af
   0B91 33                 3581 	inc	sp
                           3582 ; genIpush
   0B92 78                 3583 	ld	a,b
   0B93 F5                 3584 	push	af
   0B94 33                 3585 	inc	sp
                           3586 ; genIpush
   0B95 3E 05              3587 	ld	a,#0x05
   0B97 F5                 3588 	push	af
   0B98 33                 3589 	inc	sp
                           3590 ; genCall
   0B99 CD 00 00           3591 	call	_move_sprite
   0B9C E8 03              3592 	lda	sp,3(sp)
                           3593 ;	game.c 441
                           3594 ; genIpush
   0B9E 3E 06              3595 	ld	a,#0x06
   0BA0 F5                 3596 	push	af
   0BA1 33                 3597 	inc	sp
                           3598 ; genIpush
   0BA2 3E 06              3599 	ld	a,#0x06
   0BA4 F5                 3600 	push	af
   0BA5 33                 3601 	inc	sp
                           3602 ; genCall
   0BA6 CD 00 00           3603 	call	_set_sprite_tile
   0BA9 E8 02              3604 	lda	sp,2(sp)
                           3605 ;	game.c 442
                           3606 ; genIpush
                           3607 ; AOP_STK for _drawJudgeWalk2_sloc0_1_0
   0BAB F8 00              3608 	lda	hl,0(sp)
   0BAD 7E                 3609 	ld	a,(hl)
   0BAE F5                 3610 	push	af
   0BAF 33                 3611 	inc	sp
                           3612 ; genIpush
                           3613 ; AOP_HL for _posXJudge
   0BB0 21 2E 00           3614 	ld	hl,#_posXJudge + 0
   0BB3 7E                 3615 	ld	a,(hl)
   0BB4 F5                 3616 	push	af
   0BB5 33                 3617 	inc	sp
                           3618 ; genIpush
   0BB6 3E 06              3619 	ld	a,#0x06
   0BB8 F5                 3620 	push	af
   0BB9 33                 3621 	inc	sp
                           3622 ; genCall
   0BBA CD 00 00           3623 	call	_move_sprite
   0BBD E8 03              3624 	lda	sp,3(sp)
                           3625 ;	game.c 444
                           3626 ; genIpush
   0BBF 3E 07              3627 	ld	a,#0x07
   0BC1 F5                 3628 	push	af
   0BC2 33                 3629 	inc	sp
                           3630 ; genIpush
   0BC3 3E 07              3631 	ld	a,#0x07
   0BC5 F5                 3632 	push	af
   0BC6 33                 3633 	inc	sp
                           3634 ; genCall
   0BC7 CD 00 00           3635 	call	_set_sprite_tile
   0BCA E8 02              3636 	lda	sp,2(sp)
                           3637 ;	game.c 445
                           3638 ; genIpush
   0BCC 79                 3639 	ld	a,c
   0BCD F5                 3640 	push	af
   0BCE 33                 3641 	inc	sp
                           3642 ; genIpush
                           3643 ; AOP_HL for _posXJudge
   0BCF 21 2E 00           3644 	ld	hl,#_posXJudge + 0
   0BD2 7E                 3645 	ld	a,(hl)
   0BD3 F5                 3646 	push	af
   0BD4 33                 3647 	inc	sp
                           3648 ; genIpush
   0BD5 3E 07              3649 	ld	a,#0x07
   0BD7 F5                 3650 	push	af
   0BD8 33                 3651 	inc	sp
                           3652 ; genCall
   0BD9 CD 00 00           3653 	call	_move_sprite
   0BDC E8 03              3654 	lda	sp,3(sp)
                           3655 ;	game.c 447
                           3656 ; genIpush
   0BDE 3E 08              3657 	ld	a,#0x08
   0BE0 F5                 3658 	push	af
   0BE1 33                 3659 	inc	sp
                           3660 ; genIpush
   0BE2 3E 08              3661 	ld	a,#0x08
   0BE4 F5                 3662 	push	af
   0BE5 33                 3663 	inc	sp
                           3664 ; genCall
   0BE6 CD 00 00           3665 	call	_set_sprite_tile
   0BE9 E8 02              3666 	lda	sp,2(sp)
                           3667 ;	game.c 448
                           3668 ; genIpush
   0BEB 3E FB              3669 	ld	a,#0xFB
   0BED F5                 3670 	push	af
   0BEE 33                 3671 	inc	sp
                           3672 ; genIpush
   0BEF 3E FB              3673 	ld	a,#0xFB
   0BF1 F5                 3674 	push	af
   0BF2 33                 3675 	inc	sp
                           3676 ; genIpush
   0BF3 3E 08              3677 	ld	a,#0x08
   0BF5 F5                 3678 	push	af
   0BF6 33                 3679 	inc	sp
                           3680 ; genCall
   0BF7 CD 00 00           3681 	call	_move_sprite
   0BFA E8 03              3682 	lda	sp,3(sp)
                           3683 ;	game.c 450
                           3684 ; genIpush
   0BFC 3E 09              3685 	ld	a,#0x09
   0BFE F5                 3686 	push	af
   0BFF 33                 3687 	inc	sp
                           3688 ; genIpush
   0C00 3E 09              3689 	ld	a,#0x09
   0C02 F5                 3690 	push	af
   0C03 33                 3691 	inc	sp
                           3692 ; genCall
   0C04 CD 00 00           3693 	call	_set_sprite_tile
   0C07 E8 02              3694 	lda	sp,2(sp)
                           3695 ;	game.c 451
                           3696 ; genIpush
   0C09 3E FB              3697 	ld	a,#0xFB
   0C0B F5                 3698 	push	af
   0C0C 33                 3699 	inc	sp
                           3700 ; genIpush
   0C0D 3E FB              3701 	ld	a,#0xFB
   0C0F F5                 3702 	push	af
   0C10 33                 3703 	inc	sp
                           3704 ; genIpush
   0C11 3E 09              3705 	ld	a,#0x09
   0C13 F5                 3706 	push	af
   0C14 33                 3707 	inc	sp
                           3708 ; genCall
   0C15 CD 00 00           3709 	call	_move_sprite
   0C18 E8 03              3710 	lda	sp,3(sp)
                           3711 ;	game.c 453
                           3712 ; genIpush
   0C1A 3E 0A              3713 	ld	a,#0x0A
   0C1C F5                 3714 	push	af
   0C1D 33                 3715 	inc	sp
                           3716 ; genIpush
   0C1E 3E 0A              3717 	ld	a,#0x0A
   0C20 F5                 3718 	push	af
   0C21 33                 3719 	inc	sp
                           3720 ; genCall
   0C22 CD 00 00           3721 	call	_set_sprite_tile
   0C25 E8 02              3722 	lda	sp,2(sp)
                           3723 ;	game.c 454
                           3724 ; genIpush
   0C27 3E FB              3725 	ld	a,#0xFB
   0C29 F5                 3726 	push	af
   0C2A 33                 3727 	inc	sp
                           3728 ; genIpush
   0C2B 3E FB              3729 	ld	a,#0xFB
   0C2D F5                 3730 	push	af
   0C2E 33                 3731 	inc	sp
                           3732 ; genIpush
   0C2F 3E 0A              3733 	ld	a,#0x0A
   0C31 F5                 3734 	push	af
   0C32 33                 3735 	inc	sp
                           3736 ; genCall
   0C33 CD 00 00           3737 	call	_move_sprite
   0C36 E8 03              3738 	lda	sp,3(sp)
                           3739 ;	game.c 456
                           3740 ; genIpush
   0C38 3E 0B              3741 	ld	a,#0x0B
   0C3A F5                 3742 	push	af
   0C3B 33                 3743 	inc	sp
                           3744 ; genIpush
   0C3C 3E 0B              3745 	ld	a,#0x0B
   0C3E F5                 3746 	push	af
   0C3F 33                 3747 	inc	sp
                           3748 ; genCall
   0C40 CD 00 00           3749 	call	_set_sprite_tile
   0C43 E8 02              3750 	lda	sp,2(sp)
                           3751 ;	game.c 457
                           3752 ; genIpush
   0C45 3E FB              3753 	ld	a,#0xFB
   0C47 F5                 3754 	push	af
   0C48 33                 3755 	inc	sp
                           3756 ; genIpush
   0C49 3E FB              3757 	ld	a,#0xFB
   0C4B F5                 3758 	push	af
   0C4C 33                 3759 	inc	sp
                           3760 ; genIpush
   0C4D 3E 0B              3761 	ld	a,#0x0B
   0C4F F5                 3762 	push	af
   0C50 33                 3763 	inc	sp
                           3764 ; genCall
   0C51 CD 00 00           3765 	call	_move_sprite
   0C54 E8 03              3766 	lda	sp,3(sp)
                           3767 ;	game.c 460
                           3768 ; genIpush
   0C56 3E 0C              3769 	ld	a,#0x0C
   0C58 F5                 3770 	push	af
   0C59 33                 3771 	inc	sp
                           3772 ; genIpush
   0C5A 3E 0C              3773 	ld	a,#0x0C
   0C5C F5                 3774 	push	af
   0C5D 33                 3775 	inc	sp
                           3776 ; genCall
   0C5E CD 00 00           3777 	call	_set_sprite_tile
   0C61 E8 02              3778 	lda	sp,2(sp)
                           3779 ;	game.c 461
                           3780 ; genPlus
                           3781 ; AOP_HL for _posXJudge
                           3782 ; genPlusIncr
   0C63 21 2E 00           3783 	ld	hl,#_posXJudge + 0
   0C66 7E                 3784 	ld	a,(hl)
   0C67 C6 08              3785 	add	a,#0x08
   0C69 47                 3786 	ld	b,a
                           3787 ; genIpush
                           3788 ; AOP_STK for _drawJudgeWalk2_sloc0_1_0
   0C6A F8 00              3789 	lda	hl,0(sp)
   0C6C 7E                 3790 	ld	a,(hl)
   0C6D F5                 3791 	push	af
   0C6E 33                 3792 	inc	sp
                           3793 ; genIpush
   0C6F 78                 3794 	ld	a,b
   0C70 F5                 3795 	push	af
   0C71 33                 3796 	inc	sp
                           3797 ; genIpush
   0C72 3E 0C              3798 	ld	a,#0x0C
   0C74 F5                 3799 	push	af
   0C75 33                 3800 	inc	sp
                           3801 ; genCall
   0C76 CD 00 00           3802 	call	_move_sprite
   0C79 E8 03              3803 	lda	sp,3(sp)
                           3804 ;	game.c 465
                           3805 ; genIpush
   0C7B 3E 0D              3806 	ld	a,#0x0D
   0C7D F5                 3807 	push	af
   0C7E 33                 3808 	inc	sp
                           3809 ; genIpush
   0C7F 3E 0D              3810 	ld	a,#0x0D
   0C81 F5                 3811 	push	af
   0C82 33                 3812 	inc	sp
                           3813 ; genCall
   0C83 CD 00 00           3814 	call	_set_sprite_tile
   0C86 E8 02              3815 	lda	sp,2(sp)
                           3816 ;	game.c 466
                           3817 ; genIpush
   0C88 79                 3818 	ld	a,c
   0C89 F5                 3819 	push	af
   0C8A 33                 3820 	inc	sp
                           3821 ; genIpush
   0C8B 78                 3822 	ld	a,b
   0C8C F5                 3823 	push	af
   0C8D 33                 3824 	inc	sp
                           3825 ; genIpush
   0C8E 3E 0D              3826 	ld	a,#0x0D
   0C90 F5                 3827 	push	af
   0C91 33                 3828 	inc	sp
                           3829 ; genCall
   0C92 CD 00 00           3830 	call	_move_sprite
   0C95 E8 03              3831 	lda	sp,3(sp)
                           3832 ;	game.c 468
                           3833 ; genIpush
   0C97 3E 0E              3834 	ld	a,#0x0E
   0C99 F5                 3835 	push	af
   0C9A 33                 3836 	inc	sp
                           3837 ; genIpush
   0C9B 3E 0E              3838 	ld	a,#0x0E
   0C9D F5                 3839 	push	af
   0C9E 33                 3840 	inc	sp
                           3841 ; genCall
   0C9F CD 00 00           3842 	call	_set_sprite_tile
   0CA2 E8 02              3843 	lda	sp,2(sp)
                           3844 ;	game.c 469
                           3845 ; genIpush
   0CA4 3E FB              3846 	ld	a,#0xFB
   0CA6 F5                 3847 	push	af
   0CA7 33                 3848 	inc	sp
                           3849 ; genIpush
   0CA8 3E FB              3850 	ld	a,#0xFB
   0CAA F5                 3851 	push	af
   0CAB 33                 3852 	inc	sp
                           3853 ; genIpush
   0CAC 3E 0E              3854 	ld	a,#0x0E
   0CAE F5                 3855 	push	af
   0CAF 33                 3856 	inc	sp
                           3857 ; genCall
   0CB0 CD 00 00           3858 	call	_move_sprite
   0CB3 E8 03              3859 	lda	sp,3(sp)
                           3860 ;	game.c 471
                           3861 ; genIpush
   0CB5 3E 0F              3862 	ld	a,#0x0F
   0CB7 F5                 3863 	push	af
   0CB8 33                 3864 	inc	sp
                           3865 ; genIpush
   0CB9 3E 0F              3866 	ld	a,#0x0F
   0CBB F5                 3867 	push	af
   0CBC 33                 3868 	inc	sp
                           3869 ; genCall
   0CBD CD 00 00           3870 	call	_set_sprite_tile
   0CC0 E8 02              3871 	lda	sp,2(sp)
                           3872 ;	game.c 472
                           3873 ; genIpush
   0CC2 3E FB              3874 	ld	a,#0xFB
   0CC4 F5                 3875 	push	af
   0CC5 33                 3876 	inc	sp
                           3877 ; genIpush
   0CC6 3E FB              3878 	ld	a,#0xFB
   0CC8 F5                 3879 	push	af
   0CC9 33                 3880 	inc	sp
                           3881 ; genIpush
   0CCA 3E 0F              3882 	ld	a,#0x0F
   0CCC F5                 3883 	push	af
   0CCD 33                 3884 	inc	sp
                           3885 ; genCall
   0CCE CD 00 00           3886 	call	_move_sprite
   0CD1 E8 03              3887 	lda	sp,3(sp)
                           3888 ; genLabel
   0CD3                    3889 00101$:
                           3890 ; genEndFunction
   0CD3 E8 01              3891 	lda	sp,1(sp)
   0CD5 C1                 3892 	pop bc
   0CD6 C9                 3893 	ret
   0CD7                    3894 ___drawJudgeWalk2_end:
                           3895 ;	game.c 478
                           3896 ; genLabel
                           3897 ; genFunction
                           3898 ;	---------------------------------
                           3899 ; Function drawJudgeHurt
                           3900 ; ---------------------------------
   0CD7                    3901 ___drawJudgeHurt_start:
   0CD7                    3902 _drawJudgeHurt:
   0CD7 C5                 3903 	push	bc
   0CD8 E8 FF              3904 	lda sp,-1(sp)
                           3905 ;	game.c 480
                           3906 ; genIpush
   0CDA 21 6E 34           3907 	ld	hl,#_JUDGEHURT + 0
   0CDD E5                 3908 	push	hl
                           3909 ; genIpush
   0CDE 3E 10              3910 	ld	a,#0x10
   0CE0 F5                 3911 	push	af
   0CE1 33                 3912 	inc	sp
                           3913 ; genIpush
   0CE2 3E 00              3914 	ld	a,#0x00
   0CE4 F5                 3915 	push	af
   0CE5 33                 3916 	inc	sp
                           3917 ; genCall
   0CE6 CD 00 00           3918 	call	_set_sprite_data
   0CE9 E8 04              3919 	lda	sp,4(sp)
                           3920 ;	game.c 482
                           3921 ; genIpush
   0CEB 3E 00              3922 	ld	a,#0x00
   0CED F5                 3923 	push	af
   0CEE 33                 3924 	inc	sp
                           3925 ; genIpush
   0CEF 3E 00              3926 	ld	a,#0x00
   0CF1 F5                 3927 	push	af
   0CF2 33                 3928 	inc	sp
                           3929 ; genCall
   0CF3 CD 00 00           3930 	call	_set_sprite_tile
   0CF6 E8 02              3931 	lda	sp,2(sp)
                           3932 ;	game.c 483
                           3933 ; genMinus
                           3934 ; AOP_HL for _posYJudge
   0CF8 21 2F 00           3935 	ld	hl,#_posYJudge + 0
   0CFB 7E                 3936 	ld	a,(hl)
   0CFC C6 F8              3937 	add	a,#0xF8
   0CFE 4F                 3938 	ld	c,a
                           3939 ; genMinus
                           3940 ; AOP_HL for _posXJudge
   0CFF 21 2E 00           3941 	ld	hl,#_posXJudge + 0
   0D02 7E                 3942 	ld	a,(hl)
   0D03 C6 F8              3943 	add	a,#0xF8
   0D05 47                 3944 	ld	b,a
                           3945 ; genIpush
   0D06 79                 3946 	ld	a,c
   0D07 F5                 3947 	push	af
   0D08 33                 3948 	inc	sp
                           3949 ; genIpush
   0D09 78                 3950 	ld	a,b
   0D0A F5                 3951 	push	af
   0D0B 33                 3952 	inc	sp
                           3953 ; genIpush
   0D0C 3E 00              3954 	ld	a,#0x00
   0D0E F5                 3955 	push	af
   0D0F 33                 3956 	inc	sp
                           3957 ; genCall
   0D10 CD 00 00           3958 	call	_move_sprite
   0D13 E8 03              3959 	lda	sp,3(sp)
                           3960 ;	game.c 485
                           3961 ; genIpush
   0D15 3E 01              3962 	ld	a,#0x01
   0D17 F5                 3963 	push	af
   0D18 33                 3964 	inc	sp
                           3965 ; genIpush
   0D19 3E 01              3966 	ld	a,#0x01
   0D1B F5                 3967 	push	af
   0D1C 33                 3968 	inc	sp
                           3969 ; genCall
   0D1D CD 00 00           3970 	call	_set_sprite_tile
   0D20 E8 02              3971 	lda	sp,2(sp)
                           3972 ;	game.c 486
                           3973 ; genIpush
                           3974 ; AOP_HL for _posYJudge
   0D22 21 2F 00           3975 	ld	hl,#_posYJudge + 0
   0D25 7E                 3976 	ld	a,(hl)
   0D26 F5                 3977 	push	af
   0D27 33                 3978 	inc	sp
                           3979 ; genIpush
   0D28 78                 3980 	ld	a,b
   0D29 F5                 3981 	push	af
   0D2A 33                 3982 	inc	sp
                           3983 ; genIpush
   0D2B 3E 01              3984 	ld	a,#0x01
   0D2D F5                 3985 	push	af
   0D2E 33                 3986 	inc	sp
                           3987 ; genCall
   0D2F CD 00 00           3988 	call	_move_sprite
   0D32 E8 03              3989 	lda	sp,3(sp)
                           3990 ;	game.c 488
                           3991 ; genIpush
   0D34 3E 02              3992 	ld	a,#0x02
   0D36 F5                 3993 	push	af
   0D37 33                 3994 	inc	sp
                           3995 ; genIpush
   0D38 3E 02              3996 	ld	a,#0x02
   0D3A F5                 3997 	push	af
   0D3B 33                 3998 	inc	sp
                           3999 ; genCall
   0D3C CD 00 00           4000 	call	_set_sprite_tile
   0D3F E8 02              4001 	lda	sp,2(sp)
                           4002 ;	game.c 489
                           4003 ; genIpush
   0D41 3E FB              4004 	ld	a,#0xFB
   0D43 F5                 4005 	push	af
   0D44 33                 4006 	inc	sp
                           4007 ; genIpush
   0D45 3E FB              4008 	ld	a,#0xFB
   0D47 F5                 4009 	push	af
   0D48 33                 4010 	inc	sp
                           4011 ; genIpush
   0D49 3E 02              4012 	ld	a,#0x02
   0D4B F5                 4013 	push	af
   0D4C 33                 4014 	inc	sp
                           4015 ; genCall
   0D4D CD 00 00           4016 	call	_move_sprite
   0D50 E8 03              4017 	lda	sp,3(sp)
                           4018 ;	game.c 492
                           4019 ; genIpush
   0D52 3E 03              4020 	ld	a,#0x03
   0D54 F5                 4021 	push	af
   0D55 33                 4022 	inc	sp
                           4023 ; genIpush
   0D56 3E 03              4024 	ld	a,#0x03
   0D58 F5                 4025 	push	af
   0D59 33                 4026 	inc	sp
                           4027 ; genCall
   0D5A CD 00 00           4028 	call	_set_sprite_tile
   0D5D E8 02              4029 	lda	sp,2(sp)
                           4030 ;	game.c 493
                           4031 ; genIpush
                           4032 ; AOP_HL for _posYJudge
   0D5F 21 2F 00           4033 	ld	hl,#_posYJudge + 0
   0D62 7E                 4034 	ld	a,(hl)
   0D63 F5                 4035 	push	af
   0D64 33                 4036 	inc	sp
                           4037 ; genIpush
                           4038 ; AOP_HL for _posXJudge
   0D65 21 2E 00           4039 	ld	hl,#_posXJudge + 0
   0D68 7E                 4040 	ld	a,(hl)
   0D69 F5                 4041 	push	af
   0D6A 33                 4042 	inc	sp
                           4043 ; genIpush
   0D6B 3E 03              4044 	ld	a,#0x03
   0D6D F5                 4045 	push	af
   0D6E 33                 4046 	inc	sp
                           4047 ; genCall
   0D6F CD 00 00           4048 	call	_move_sprite
   0D72 E8 03              4049 	lda	sp,3(sp)
                           4050 ;	game.c 495
                           4051 ; genIpush
   0D74 3E 04              4052 	ld	a,#0x04
   0D76 F5                 4053 	push	af
   0D77 33                 4054 	inc	sp
                           4055 ; genIpush
   0D78 3E 04              4056 	ld	a,#0x04
   0D7A F5                 4057 	push	af
   0D7B 33                 4058 	inc	sp
                           4059 ; genCall
   0D7C CD 00 00           4060 	call	_set_sprite_tile
   0D7F E8 02              4061 	lda	sp,2(sp)
                           4062 ;	game.c 496
                           4063 ; genPlus
                           4064 ; AOP_HL for _posYJudge
                           4065 ; AOP_STK for _drawJudgeHurt_sloc0_1_0
                           4066 ; genPlusIncr
   0D81 21 2F 00           4067 	ld	hl,#_posYJudge + 0
   0D84 7E                 4068 	ld	a,(hl)
   0D85 C6 08              4069 	add	a,#0x08
   0D87 F8 00              4070 	lda	hl,0(sp)
   0D89 77                 4071 	ld	(hl),a ; 3
                           4072 ; genIpush
                           4073 ; AOP_STK for _drawJudgeHurt_sloc0_1_0
   0D8A 7E                 4074 	ld	a,(hl)
   0D8B F5                 4075 	push	af
   0D8C 33                 4076 	inc	sp
                           4077 ; genIpush
   0D8D 78                 4078 	ld	a,b
   0D8E F5                 4079 	push	af
   0D8F 33                 4080 	inc	sp
                           4081 ; genIpush
   0D90 3E 04              4082 	ld	a,#0x04
   0D92 F5                 4083 	push	af
   0D93 33                 4084 	inc	sp
                           4085 ; genCall
   0D94 CD 00 00           4086 	call	_move_sprite
   0D97 E8 03              4087 	lda	sp,3(sp)
                           4088 ;	game.c 498
                           4089 ; genIpush
   0D99 3E 05              4090 	ld	a,#0x05
   0D9B F5                 4091 	push	af
   0D9C 33                 4092 	inc	sp
                           4093 ; genIpush
   0D9D 3E 05              4094 	ld	a,#0x05
   0D9F F5                 4095 	push	af
   0DA0 33                 4096 	inc	sp
                           4097 ; genCall
   0DA1 CD 00 00           4098 	call	_set_sprite_tile
   0DA4 E8 02              4099 	lda	sp,2(sp)
                           4100 ;	game.c 499
                           4101 ; genPlus
                           4102 ; AOP_HL for _posYJudge
                           4103 ; genPlusIncr
   0DA6 21 2F 00           4104 	ld	hl,#_posYJudge + 0
   0DA9 7E                 4105 	ld	a,(hl)
   0DAA C6 10              4106 	add	a,#0x10
   0DAC 4F                 4107 	ld	c,a
                           4108 ; genIpush
   0DAD 79                 4109 	ld	a,c
   0DAE F5                 4110 	push	af
   0DAF 33                 4111 	inc	sp
                           4112 ; genIpush
   0DB0 78                 4113 	ld	a,b
   0DB1 F5                 4114 	push	af
   0DB2 33                 4115 	inc	sp
                           4116 ; genIpush
   0DB3 3E 05              4117 	ld	a,#0x05
   0DB5 F5                 4118 	push	af
   0DB6 33                 4119 	inc	sp
                           4120 ; genCall
   0DB7 CD 00 00           4121 	call	_move_sprite
   0DBA E8 03              4122 	lda	sp,3(sp)
                           4123 ;	game.c 502
                           4124 ; genIpush
   0DBC 3E 06              4125 	ld	a,#0x06
   0DBE F5                 4126 	push	af
   0DBF 33                 4127 	inc	sp
                           4128 ; genIpush
   0DC0 3E 06              4129 	ld	a,#0x06
   0DC2 F5                 4130 	push	af
   0DC3 33                 4131 	inc	sp
                           4132 ; genCall
   0DC4 CD 00 00           4133 	call	_set_sprite_tile
   0DC7 E8 02              4134 	lda	sp,2(sp)
                           4135 ;	game.c 503
                           4136 ; genIpush
                           4137 ; AOP_STK for _drawJudgeHurt_sloc0_1_0
   0DC9 F8 00              4138 	lda	hl,0(sp)
   0DCB 7E                 4139 	ld	a,(hl)
   0DCC F5                 4140 	push	af
   0DCD 33                 4141 	inc	sp
                           4142 ; genIpush
                           4143 ; AOP_HL for _posXJudge
   0DCE 21 2E 00           4144 	ld	hl,#_posXJudge + 0
   0DD1 7E                 4145 	ld	a,(hl)
   0DD2 F5                 4146 	push	af
   0DD3 33                 4147 	inc	sp
                           4148 ; genIpush
   0DD4 3E 06              4149 	ld	a,#0x06
   0DD6 F5                 4150 	push	af
   0DD7 33                 4151 	inc	sp
                           4152 ; genCall
   0DD8 CD 00 00           4153 	call	_move_sprite
   0DDB E8 03              4154 	lda	sp,3(sp)
                           4155 ;	game.c 505
                           4156 ; genIpush
   0DDD 3E 07              4157 	ld	a,#0x07
   0DDF F5                 4158 	push	af
   0DE0 33                 4159 	inc	sp
                           4160 ; genIpush
   0DE1 3E 07              4161 	ld	a,#0x07
   0DE3 F5                 4162 	push	af
   0DE4 33                 4163 	inc	sp
                           4164 ; genCall
   0DE5 CD 00 00           4165 	call	_set_sprite_tile
   0DE8 E8 02              4166 	lda	sp,2(sp)
                           4167 ;	game.c 506
                           4168 ; genIpush
   0DEA 79                 4169 	ld	a,c
   0DEB F5                 4170 	push	af
   0DEC 33                 4171 	inc	sp
                           4172 ; genIpush
                           4173 ; AOP_HL for _posXJudge
   0DED 21 2E 00           4174 	ld	hl,#_posXJudge + 0
   0DF0 7E                 4175 	ld	a,(hl)
   0DF1 F5                 4176 	push	af
   0DF2 33                 4177 	inc	sp
                           4178 ; genIpush
   0DF3 3E 07              4179 	ld	a,#0x07
   0DF5 F5                 4180 	push	af
   0DF6 33                 4181 	inc	sp
                           4182 ; genCall
   0DF7 CD 00 00           4183 	call	_move_sprite
   0DFA E8 03              4184 	lda	sp,3(sp)
                           4185 ;	game.c 508
                           4186 ; genIpush
   0DFC 3E 08              4187 	ld	a,#0x08
   0DFE F5                 4188 	push	af
   0DFF 33                 4189 	inc	sp
                           4190 ; genIpush
   0E00 3E 08              4191 	ld	a,#0x08
   0E02 F5                 4192 	push	af
   0E03 33                 4193 	inc	sp
                           4194 ; genCall
   0E04 CD 00 00           4195 	call	_set_sprite_tile
   0E07 E8 02              4196 	lda	sp,2(sp)
                           4197 ;	game.c 509
                           4198 ; genIpush
   0E09 3E FB              4199 	ld	a,#0xFB
   0E0B F5                 4200 	push	af
   0E0C 33                 4201 	inc	sp
                           4202 ; genIpush
   0E0D 3E FB              4203 	ld	a,#0xFB
   0E0F F5                 4204 	push	af
   0E10 33                 4205 	inc	sp
                           4206 ; genIpush
   0E11 3E 08              4207 	ld	a,#0x08
   0E13 F5                 4208 	push	af
   0E14 33                 4209 	inc	sp
                           4210 ; genCall
   0E15 CD 00 00           4211 	call	_move_sprite
   0E18 E8 03              4212 	lda	sp,3(sp)
                           4213 ;	game.c 511
                           4214 ; genIpush
   0E1A 3E 09              4215 	ld	a,#0x09
   0E1C F5                 4216 	push	af
   0E1D 33                 4217 	inc	sp
                           4218 ; genIpush
   0E1E 3E 09              4219 	ld	a,#0x09
   0E20 F5                 4220 	push	af
   0E21 33                 4221 	inc	sp
                           4222 ; genCall
   0E22 CD 00 00           4223 	call	_set_sprite_tile
   0E25 E8 02              4224 	lda	sp,2(sp)
                           4225 ;	game.c 512
                           4226 ; genPlus
                           4227 ; AOP_HL for _posXJudge
                           4228 ; genPlusIncr
   0E27 21 2E 00           4229 	ld	hl,#_posXJudge + 0
   0E2A 7E                 4230 	ld	a,(hl)
   0E2B C6 08              4231 	add	a,#0x08
   0E2D 47                 4232 	ld	b,a
                           4233 ; genIpush
                           4234 ; AOP_HL for _posYJudge
   0E2E 21 2F 00           4235 	ld	hl,#_posYJudge + 0
   0E31 7E                 4236 	ld	a,(hl)
   0E32 F5                 4237 	push	af
   0E33 33                 4238 	inc	sp
                           4239 ; genIpush
   0E34 78                 4240 	ld	a,b
   0E35 F5                 4241 	push	af
   0E36 33                 4242 	inc	sp
                           4243 ; genIpush
   0E37 3E 09              4244 	ld	a,#0x09
   0E39 F5                 4245 	push	af
   0E3A 33                 4246 	inc	sp
                           4247 ; genCall
   0E3B CD 00 00           4248 	call	_move_sprite
   0E3E E8 03              4249 	lda	sp,3(sp)
                           4250 ;	game.c 514
                           4251 ; genIpush
   0E40 3E 0A              4252 	ld	a,#0x0A
   0E42 F5                 4253 	push	af
   0E43 33                 4254 	inc	sp
                           4255 ; genIpush
   0E44 3E 0A              4256 	ld	a,#0x0A
   0E46 F5                 4257 	push	af
   0E47 33                 4258 	inc	sp
                           4259 ; genCall
   0E48 CD 00 00           4260 	call	_set_sprite_tile
   0E4B E8 02              4261 	lda	sp,2(sp)
                           4262 ;	game.c 515
                           4263 ; genIpush
   0E4D 3E FB              4264 	ld	a,#0xFB
   0E4F F5                 4265 	push	af
   0E50 33                 4266 	inc	sp
                           4267 ; genIpush
   0E51 3E FB              4268 	ld	a,#0xFB
   0E53 F5                 4269 	push	af
   0E54 33                 4270 	inc	sp
                           4271 ; genIpush
   0E55 3E 0A              4272 	ld	a,#0x0A
   0E57 F5                 4273 	push	af
   0E58 33                 4274 	inc	sp
                           4275 ; genCall
   0E59 CD 00 00           4276 	call	_move_sprite
   0E5C E8 03              4277 	lda	sp,3(sp)
                           4278 ;	game.c 517
                           4279 ; genIpush
   0E5E 3E 0B              4280 	ld	a,#0x0B
   0E60 F5                 4281 	push	af
   0E61 33                 4282 	inc	sp
                           4283 ; genIpush
   0E62 3E 0B              4284 	ld	a,#0x0B
   0E64 F5                 4285 	push	af
   0E65 33                 4286 	inc	sp
                           4287 ; genCall
   0E66 CD 00 00           4288 	call	_set_sprite_tile
   0E69 E8 02              4289 	lda	sp,2(sp)
                           4290 ;	game.c 518
                           4291 ; genIpush
   0E6B 3E FB              4292 	ld	a,#0xFB
   0E6D F5                 4293 	push	af
   0E6E 33                 4294 	inc	sp
                           4295 ; genIpush
   0E6F 3E FB              4296 	ld	a,#0xFB
   0E71 F5                 4297 	push	af
   0E72 33                 4298 	inc	sp
                           4299 ; genIpush
   0E73 3E 0B              4300 	ld	a,#0x0B
   0E75 F5                 4301 	push	af
   0E76 33                 4302 	inc	sp
                           4303 ; genCall
   0E77 CD 00 00           4304 	call	_move_sprite
   0E7A E8 03              4305 	lda	sp,3(sp)
                           4306 ;	game.c 521
                           4307 ; genIpush
   0E7C 3E 0C              4308 	ld	a,#0x0C
   0E7E F5                 4309 	push	af
   0E7F 33                 4310 	inc	sp
                           4311 ; genIpush
   0E80 3E 0C              4312 	ld	a,#0x0C
   0E82 F5                 4313 	push	af
   0E83 33                 4314 	inc	sp
                           4315 ; genCall
   0E84 CD 00 00           4316 	call	_set_sprite_tile
   0E87 E8 02              4317 	lda	sp,2(sp)
                           4318 ;	game.c 522
                           4319 ; genIpush
                           4320 ; AOP_STK for _drawJudgeHurt_sloc0_1_0
   0E89 F8 00              4321 	lda	hl,0(sp)
   0E8B 7E                 4322 	ld	a,(hl)
   0E8C F5                 4323 	push	af
   0E8D 33                 4324 	inc	sp
                           4325 ; genIpush
   0E8E 78                 4326 	ld	a,b
   0E8F F5                 4327 	push	af
   0E90 33                 4328 	inc	sp
                           4329 ; genIpush
   0E91 3E 0C              4330 	ld	a,#0x0C
   0E93 F5                 4331 	push	af
   0E94 33                 4332 	inc	sp
                           4333 ; genCall
   0E95 CD 00 00           4334 	call	_move_sprite
   0E98 E8 03              4335 	lda	sp,3(sp)
                           4336 ;	game.c 526
                           4337 ; genIpush
   0E9A 3E 0D              4338 	ld	a,#0x0D
   0E9C F5                 4339 	push	af
   0E9D 33                 4340 	inc	sp
                           4341 ; genIpush
   0E9E 3E 0D              4342 	ld	a,#0x0D
   0EA0 F5                 4343 	push	af
   0EA1 33                 4344 	inc	sp
                           4345 ; genCall
   0EA2 CD 00 00           4346 	call	_set_sprite_tile
   0EA5 E8 02              4347 	lda	sp,2(sp)
                           4348 ;	game.c 527
                           4349 ; genIpush
   0EA7 79                 4350 	ld	a,c
   0EA8 F5                 4351 	push	af
   0EA9 33                 4352 	inc	sp
                           4353 ; genIpush
   0EAA 78                 4354 	ld	a,b
   0EAB F5                 4355 	push	af
   0EAC 33                 4356 	inc	sp
                           4357 ; genIpush
   0EAD 3E 0D              4358 	ld	a,#0x0D
   0EAF F5                 4359 	push	af
   0EB0 33                 4360 	inc	sp
                           4361 ; genCall
   0EB1 CD 00 00           4362 	call	_move_sprite
   0EB4 E8 03              4363 	lda	sp,3(sp)
                           4364 ;	game.c 529
                           4365 ; genIpush
   0EB6 3E 0E              4366 	ld	a,#0x0E
   0EB8 F5                 4367 	push	af
   0EB9 33                 4368 	inc	sp
                           4369 ; genIpush
   0EBA 3E 0E              4370 	ld	a,#0x0E
   0EBC F5                 4371 	push	af
   0EBD 33                 4372 	inc	sp
                           4373 ; genCall
   0EBE CD 00 00           4374 	call	_set_sprite_tile
   0EC1 E8 02              4375 	lda	sp,2(sp)
                           4376 ;	game.c 530
                           4377 ; genIpush
   0EC3 3E FB              4378 	ld	a,#0xFB
   0EC5 F5                 4379 	push	af
   0EC6 33                 4380 	inc	sp
                           4381 ; genIpush
   0EC7 3E FB              4382 	ld	a,#0xFB
   0EC9 F5                 4383 	push	af
   0ECA 33                 4384 	inc	sp
                           4385 ; genIpush
   0ECB 3E 0E              4386 	ld	a,#0x0E
   0ECD F5                 4387 	push	af
   0ECE 33                 4388 	inc	sp
                           4389 ; genCall
   0ECF CD 00 00           4390 	call	_move_sprite
   0ED2 E8 03              4391 	lda	sp,3(sp)
                           4392 ;	game.c 532
                           4393 ; genIpush
   0ED4 3E 0F              4394 	ld	a,#0x0F
   0ED6 F5                 4395 	push	af
   0ED7 33                 4396 	inc	sp
                           4397 ; genIpush
   0ED8 3E 0F              4398 	ld	a,#0x0F
   0EDA F5                 4399 	push	af
   0EDB 33                 4400 	inc	sp
                           4401 ; genCall
   0EDC CD 00 00           4402 	call	_set_sprite_tile
   0EDF E8 02              4403 	lda	sp,2(sp)
                           4404 ;	game.c 533
                           4405 ; genIpush
   0EE1 3E FB              4406 	ld	a,#0xFB
   0EE3 F5                 4407 	push	af
   0EE4 33                 4408 	inc	sp
                           4409 ; genIpush
   0EE5 3E FB              4410 	ld	a,#0xFB
   0EE7 F5                 4411 	push	af
   0EE8 33                 4412 	inc	sp
                           4413 ; genIpush
   0EE9 3E 0F              4414 	ld	a,#0x0F
   0EEB F5                 4415 	push	af
   0EEC 33                 4416 	inc	sp
                           4417 ; genCall
   0EED CD 00 00           4418 	call	_move_sprite
   0EF0 E8 03              4419 	lda	sp,3(sp)
                           4420 ;	game.c 535
                           4421 ; genIpush
   0EF2 21 89 3F           4422 	ld	hl,#_hurtLook + 0
   0EF5 E5                 4423 	push	hl
                           4424 ; genIpush
   0EF6 3E 01              4425 	ld	a,#0x01
   0EF8 F5                 4426 	push	af
   0EF9 33                 4427 	inc	sp
                           4428 ; genIpush
   0EFA 3E 01              4429 	ld	a,#0x01
   0EFC F5                 4430 	push	af
   0EFD 33                 4431 	inc	sp
                           4432 ; genIpush
   0EFE 3E 00              4433 	ld	a,#0x00
   0F00 F5                 4434 	push	af
   0F01 33                 4435 	inc	sp
                           4436 ; genIpush
   0F02 3E 03              4437 	ld	a,#0x03
   0F04 F5                 4438 	push	af
   0F05 33                 4439 	inc	sp
                           4440 ; genCall
   0F06 CD 00 00           4441 	call	_set_win_tiles
   0F09 E8 06              4442 	lda	sp,6(sp)
                           4443 ; genLabel
   0F0B                    4444 00101$:
                           4445 ; genEndFunction
   0F0B E8 01              4446 	lda	sp,1(sp)
   0F0D C1                 4447 	pop bc
   0F0E C9                 4448 	ret
   0F0F                    4449 ___drawJudgeHurt_end:
                           4450 ;	game.c 539
                           4451 ; genLabel
                           4452 ; genFunction
                           4453 ;	---------------------------------
                           4454 ; Function drawBanditIdle
                           4455 ; ---------------------------------
   0F0F                    4456 ___drawBanditIdle_start:
   0F0F                    4457 _drawBanditIdle:
   0F0F C5                 4458 	push	bc
   0F10 E8 FE              4459 	lda sp,-2(sp)
                           4460 ;	game.c 540
                           4461 ; genLeftShift
                           4462 ; AOP_STK for 
   0F12 F8 06              4463 	lda	hl,6(sp)
   0F14 7E                 4464 	ld	a,(hl)
   0F15 87                 4465 	add	a,a
   0F16 87                 4466 	add	a,a
   0F17 4F                 4467 	ld	c,a
                           4468 ; genPlus
                           4469 ; AOP_STK for _drawBanditIdle_sloc0_1_0
                           4470 ; genPlusIncr
   0F18 79                 4471 	ld	a,c
   0F19 C6 10              4472 	add	a,#0x10
   0F1B F8 01              4473 	lda	hl,1(sp)
   0F1D 77                 4474 	ld	(hl),a ; 3
                           4475 ; genIpush
   0F1E 21 EE 3B           4476 	ld	hl,#_banditIDLE + 0
   0F21 E5                 4477 	push	hl
                           4478 ; genIpush
   0F22 3E 04              4479 	ld	a,#0x04
   0F24 F5                 4480 	push	af
   0F25 33                 4481 	inc	sp
                           4482 ; genIpush
                           4483 ; AOP_STK for _drawBanditIdle_sloc0_1_0
   0F26 F8 04              4484 	lda	hl,4(sp)
   0F28 7E                 4485 	ld	a,(hl)
   0F29 F5                 4486 	push	af
   0F2A 33                 4487 	inc	sp
                           4488 ; genCall
   0F2B CD 00 00           4489 	call	_set_sprite_data
   0F2E E8 04              4490 	lda	sp,4(sp)
                           4491 ;	game.c 542
                           4492 ; genIpush
                           4493 ; AOP_STK for _drawBanditIdle_sloc0_1_0
   0F30 F8 01              4494 	lda	hl,1(sp)
   0F32 7E                 4495 	ld	a,(hl)
   0F33 F5                 4496 	push	af
   0F34 33                 4497 	inc	sp
                           4498 ; genIpush
                           4499 ; AOP_STK for _drawBanditIdle_sloc0_1_0
   0F35 7E                 4500 	ld	a,(hl)
   0F36 F5                 4501 	push	af
   0F37 33                 4502 	inc	sp
                           4503 ; genCall
   0F38 CD 00 00           4504 	call	_set_sprite_tile
   0F3B E8 02              4505 	lda	sp,2(sp)
                           4506 ;	game.c 543
                           4507 ; genMinus
                           4508 ; AOP_STK for 
                           4509 ; AOP_STK for _drawBanditIdle_sloc1_1_0
   0F3D F8 08              4510 	lda	hl,8(sp)
   0F3F 7E                 4511 	ld	a,(hl)
   0F40 C6 F8              4512 	add	a,#0xF8
   0F42 F8 00              4513 	lda	hl,0(sp)
   0F44 77                 4514 	ld	(hl),a ; 3
                           4515 ; genIpush
                           4516 ; AOP_STK for _drawBanditIdle_sloc1_1_0
   0F45 7E                 4517 	ld	a,(hl)
   0F46 F5                 4518 	push	af
   0F47 33                 4519 	inc	sp
                           4520 ; genIpush
                           4521 ; AOP_STK for 
   0F48 F8 08              4522 	lda	hl,8(sp)
   0F4A 7E                 4523 	ld	a,(hl)
   0F4B F5                 4524 	push	af
   0F4C 33                 4525 	inc	sp
                           4526 ; genIpush
                           4527 ; AOP_STK for _drawBanditIdle_sloc0_1_0
   0F4D F8 03              4528 	lda	hl,3(sp)
   0F4F 7E                 4529 	ld	a,(hl)
   0F50 F5                 4530 	push	af
   0F51 33                 4531 	inc	sp
                           4532 ; genCall
   0F52 CD 00 00           4533 	call	_move_sprite
   0F55 E8 03              4534 	lda	sp,3(sp)
                           4535 ;	game.c 545
                           4536 ; genPlus
                           4537 ; genPlusIncr
   0F57 79                 4538 	ld	a,c
   0F58 C6 11              4539 	add	a,#0x11
   0F5A 47                 4540 	ld	b,a
                           4541 ; genIpush
   0F5B 78                 4542 	ld	a,b
   0F5C F5                 4543 	push	af
   0F5D 33                 4544 	inc	sp
                           4545 ; genIpush
   0F5E 78                 4546 	ld	a,b
   0F5F F5                 4547 	push	af
   0F60 33                 4548 	inc	sp
                           4549 ; genCall
   0F61 CD 00 00           4550 	call	_set_sprite_tile
   0F64 E8 02              4551 	lda	sp,2(sp)
                           4552 ;	game.c 546
                           4553 ; genIpush
                           4554 ; AOP_STK for 
   0F66 F8 08              4555 	lda	hl,8(sp)
   0F68 7E                 4556 	ld	a,(hl)
   0F69 F5                 4557 	push	af
   0F6A 33                 4558 	inc	sp
                           4559 ; genIpush
                           4560 ; AOP_STK for 
   0F6B 2B                 4561 	dec	hl
   0F6C 7E                 4562 	ld	a,(hl)
   0F6D F5                 4563 	push	af
   0F6E 33                 4564 	inc	sp
                           4565 ; genIpush
   0F6F 78                 4566 	ld	a,b
   0F70 F5                 4567 	push	af
   0F71 33                 4568 	inc	sp
                           4569 ; genCall
   0F72 CD 00 00           4570 	call	_move_sprite
   0F75 E8 03              4571 	lda	sp,3(sp)
                           4572 ;	game.c 548
                           4573 ; genPlus
                           4574 ; AOP_STK for _drawBanditIdle_sloc0_1_0
                           4575 ; genPlusIncr
   0F77 79                 4576 	ld	a,c
   0F78 C6 12              4577 	add	a,#0x12
   0F7A F8 01              4578 	lda	hl,1(sp)
   0F7C 77                 4579 	ld	(hl),a ; 3
                           4580 ; genIpush
                           4581 ; AOP_STK for _drawBanditIdle_sloc0_1_0
   0F7D 7E                 4582 	ld	a,(hl)
   0F7E F5                 4583 	push	af
   0F7F 33                 4584 	inc	sp
                           4585 ; genIpush
                           4586 ; AOP_STK for _drawBanditIdle_sloc0_1_0
   0F80 7E                 4587 	ld	a,(hl)
   0F81 F5                 4588 	push	af
   0F82 33                 4589 	inc	sp
                           4590 ; genCall
   0F83 CD 00 00           4591 	call	_set_sprite_tile
   0F86 E8 02              4592 	lda	sp,2(sp)
                           4593 ;	game.c 549
                           4594 ; genPlus
                           4595 ; AOP_STK for 
                           4596 ; genPlusIncr
   0F88 F8 07              4597 	lda	hl,7(sp)
   0F8A 7E                 4598 	ld	a,(hl)
   0F8B C6 08              4599 	add	a,#0x08
   0F8D 47                 4600 	ld	b,a
                           4601 ; genIpush
                           4602 ; AOP_STK for _drawBanditIdle_sloc1_1_0
   0F8E F8 00              4603 	lda	hl,0(sp)
   0F90 7E                 4604 	ld	a,(hl)
   0F91 F5                 4605 	push	af
   0F92 33                 4606 	inc	sp
                           4607 ; genIpush
   0F93 78                 4608 	ld	a,b
   0F94 F5                 4609 	push	af
   0F95 33                 4610 	inc	sp
                           4611 ; genIpush
                           4612 ; AOP_STK for _drawBanditIdle_sloc0_1_0
   0F96 23                 4613 	inc	hl
   0F97 7E                 4614 	ld	a,(hl)
   0F98 F5                 4615 	push	af
   0F99 33                 4616 	inc	sp
                           4617 ; genCall
   0F9A CD 00 00           4618 	call	_move_sprite
   0F9D E8 03              4619 	lda	sp,3(sp)
                           4620 ;	game.c 551
                           4621 ; genPlus
                           4622 ; genPlusIncr
   0F9F 79                 4623 	ld	a,c
   0FA0 C6 13              4624 	add	a,#0x13
   0FA2 4F                 4625 	ld	c,a
                           4626 ; genIpush
   0FA3 79                 4627 	ld	a,c
   0FA4 F5                 4628 	push	af
   0FA5 33                 4629 	inc	sp
                           4630 ; genIpush
   0FA6 79                 4631 	ld	a,c
   0FA7 F5                 4632 	push	af
   0FA8 33                 4633 	inc	sp
                           4634 ; genCall
   0FA9 CD 00 00           4635 	call	_set_sprite_tile
   0FAC E8 02              4636 	lda	sp,2(sp)
                           4637 ;	game.c 552
                           4638 ; genIpush
                           4639 ; AOP_STK for 
   0FAE F8 08              4640 	lda	hl,8(sp)
   0FB0 7E                 4641 	ld	a,(hl)
   0FB1 F5                 4642 	push	af
   0FB2 33                 4643 	inc	sp
                           4644 ; genIpush
   0FB3 78                 4645 	ld	a,b
   0FB4 F5                 4646 	push	af
   0FB5 33                 4647 	inc	sp
                           4648 ; genIpush
   0FB6 79                 4649 	ld	a,c
   0FB7 F5                 4650 	push	af
   0FB8 33                 4651 	inc	sp
                           4652 ; genCall
   0FB9 CD 00 00           4653 	call	_move_sprite
   0FBC E8 03              4654 	lda	sp,3(sp)
                           4655 ; genLabel
   0FBE                    4656 00101$:
                           4657 ; genEndFunction
   0FBE E8 02              4658 	lda	sp,2(sp)
   0FC0 C1                 4659 	pop bc
   0FC1 C9                 4660 	ret
   0FC2                    4661 ___drawBanditIdle_end:
                           4662 ;	game.c 555
                           4663 ; genLabel
                           4664 ; genFunction
                           4665 ;	---------------------------------
                           4666 ; Function drawBanditWalk1
                           4667 ; ---------------------------------
   0FC2                    4668 ___drawBanditWalk1_start:
   0FC2                    4669 _drawBanditWalk1:
   0FC2 C5                 4670 	push	bc
   0FC3 E8 FE              4671 	lda sp,-2(sp)
                           4672 ;	game.c 556
                           4673 ; genLeftShift
                           4674 ; AOP_STK for 
   0FC5 F8 06              4675 	lda	hl,6(sp)
   0FC7 7E                 4676 	ld	a,(hl)
   0FC8 87                 4677 	add	a,a
   0FC9 87                 4678 	add	a,a
   0FCA 4F                 4679 	ld	c,a
                           4680 ; genPlus
                           4681 ; AOP_STK for _drawBanditWalk1_sloc0_1_0
                           4682 ; genPlusIncr
   0FCB 79                 4683 	ld	a,c
   0FCC C6 10              4684 	add	a,#0x10
   0FCE F8 01              4685 	lda	hl,1(sp)
   0FD0 77                 4686 	ld	(hl),a ; 3
                           4687 ; genIpush
   0FD1 21 2E 3C           4688 	ld	hl,#_banditWalk1 + 0
   0FD4 E5                 4689 	push	hl
                           4690 ; genIpush
   0FD5 3E 04              4691 	ld	a,#0x04
   0FD7 F5                 4692 	push	af
   0FD8 33                 4693 	inc	sp
                           4694 ; genIpush
                           4695 ; AOP_STK for _drawBanditWalk1_sloc0_1_0
   0FD9 F8 04              4696 	lda	hl,4(sp)
   0FDB 7E                 4697 	ld	a,(hl)
   0FDC F5                 4698 	push	af
   0FDD 33                 4699 	inc	sp
                           4700 ; genCall
   0FDE CD 00 00           4701 	call	_set_sprite_data
   0FE1 E8 04              4702 	lda	sp,4(sp)
                           4703 ;	game.c 558
                           4704 ; genIpush
                           4705 ; AOP_STK for _drawBanditWalk1_sloc0_1_0
   0FE3 F8 01              4706 	lda	hl,1(sp)
   0FE5 7E                 4707 	ld	a,(hl)
   0FE6 F5                 4708 	push	af
   0FE7 33                 4709 	inc	sp
                           4710 ; genIpush
                           4711 ; AOP_STK for _drawBanditWalk1_sloc0_1_0
   0FE8 7E                 4712 	ld	a,(hl)
   0FE9 F5                 4713 	push	af
   0FEA 33                 4714 	inc	sp
                           4715 ; genCall
   0FEB CD 00 00           4716 	call	_set_sprite_tile
   0FEE E8 02              4717 	lda	sp,2(sp)
                           4718 ;	game.c 559
                           4719 ; genMinus
                           4720 ; AOP_STK for 
                           4721 ; AOP_STK for _drawBanditWalk1_sloc1_1_0
   0FF0 F8 08              4722 	lda	hl,8(sp)
   0FF2 7E                 4723 	ld	a,(hl)
   0FF3 C6 F8              4724 	add	a,#0xF8
   0FF5 F8 00              4725 	lda	hl,0(sp)
   0FF7 77                 4726 	ld	(hl),a ; 3
                           4727 ; genIpush
                           4728 ; AOP_STK for _drawBanditWalk1_sloc1_1_0
   0FF8 7E                 4729 	ld	a,(hl)
   0FF9 F5                 4730 	push	af
   0FFA 33                 4731 	inc	sp
                           4732 ; genIpush
                           4733 ; AOP_STK for 
   0FFB F8 08              4734 	lda	hl,8(sp)
   0FFD 7E                 4735 	ld	a,(hl)
   0FFE F5                 4736 	push	af
   0FFF 33                 4737 	inc	sp
                           4738 ; genIpush
                           4739 ; AOP_STK for _drawBanditWalk1_sloc0_1_0
   1000 F8 03              4740 	lda	hl,3(sp)
   1002 7E                 4741 	ld	a,(hl)
   1003 F5                 4742 	push	af
   1004 33                 4743 	inc	sp
                           4744 ; genCall
   1005 CD 00 00           4745 	call	_move_sprite
   1008 E8 03              4746 	lda	sp,3(sp)
                           4747 ;	game.c 561
                           4748 ; genPlus
                           4749 ; genPlusIncr
   100A 79                 4750 	ld	a,c
   100B C6 11              4751 	add	a,#0x11
   100D 47                 4752 	ld	b,a
                           4753 ; genIpush
   100E 78                 4754 	ld	a,b
   100F F5                 4755 	push	af
   1010 33                 4756 	inc	sp
                           4757 ; genIpush
   1011 78                 4758 	ld	a,b
   1012 F5                 4759 	push	af
   1013 33                 4760 	inc	sp
                           4761 ; genCall
   1014 CD 00 00           4762 	call	_set_sprite_tile
   1017 E8 02              4763 	lda	sp,2(sp)
                           4764 ;	game.c 562
                           4765 ; genIpush
                           4766 ; AOP_STK for 
   1019 F8 08              4767 	lda	hl,8(sp)
   101B 7E                 4768 	ld	a,(hl)
   101C F5                 4769 	push	af
   101D 33                 4770 	inc	sp
                           4771 ; genIpush
                           4772 ; AOP_STK for 
   101E 2B                 4773 	dec	hl
   101F 7E                 4774 	ld	a,(hl)
   1020 F5                 4775 	push	af
   1021 33                 4776 	inc	sp
                           4777 ; genIpush
   1022 78                 4778 	ld	a,b
   1023 F5                 4779 	push	af
   1024 33                 4780 	inc	sp
                           4781 ; genCall
   1025 CD 00 00           4782 	call	_move_sprite
   1028 E8 03              4783 	lda	sp,3(sp)
                           4784 ;	game.c 564
                           4785 ; genPlus
                           4786 ; AOP_STK for _drawBanditWalk1_sloc0_1_0
                           4787 ; genPlusIncr
   102A 79                 4788 	ld	a,c
   102B C6 12              4789 	add	a,#0x12
   102D F8 01              4790 	lda	hl,1(sp)
   102F 77                 4791 	ld	(hl),a ; 3
                           4792 ; genIpush
                           4793 ; AOP_STK for _drawBanditWalk1_sloc0_1_0
   1030 7E                 4794 	ld	a,(hl)
   1031 F5                 4795 	push	af
   1032 33                 4796 	inc	sp
                           4797 ; genIpush
                           4798 ; AOP_STK for _drawBanditWalk1_sloc0_1_0
   1033 7E                 4799 	ld	a,(hl)
   1034 F5                 4800 	push	af
   1035 33                 4801 	inc	sp
                           4802 ; genCall
   1036 CD 00 00           4803 	call	_set_sprite_tile
   1039 E8 02              4804 	lda	sp,2(sp)
                           4805 ;	game.c 565
                           4806 ; genPlus
                           4807 ; AOP_STK for 
                           4808 ; genPlusIncr
   103B F8 07              4809 	lda	hl,7(sp)
   103D 7E                 4810 	ld	a,(hl)
   103E C6 08              4811 	add	a,#0x08
   1040 47                 4812 	ld	b,a
                           4813 ; genIpush
                           4814 ; AOP_STK for _drawBanditWalk1_sloc1_1_0
   1041 F8 00              4815 	lda	hl,0(sp)
   1043 7E                 4816 	ld	a,(hl)
   1044 F5                 4817 	push	af
   1045 33                 4818 	inc	sp
                           4819 ; genIpush
   1046 78                 4820 	ld	a,b
   1047 F5                 4821 	push	af
   1048 33                 4822 	inc	sp
                           4823 ; genIpush
                           4824 ; AOP_STK for _drawBanditWalk1_sloc0_1_0
   1049 23                 4825 	inc	hl
   104A 7E                 4826 	ld	a,(hl)
   104B F5                 4827 	push	af
   104C 33                 4828 	inc	sp
                           4829 ; genCall
   104D CD 00 00           4830 	call	_move_sprite
   1050 E8 03              4831 	lda	sp,3(sp)
                           4832 ;	game.c 567
                           4833 ; genPlus
                           4834 ; genPlusIncr
   1052 79                 4835 	ld	a,c
   1053 C6 13              4836 	add	a,#0x13
   1055 4F                 4837 	ld	c,a
                           4838 ; genIpush
   1056 79                 4839 	ld	a,c
   1057 F5                 4840 	push	af
   1058 33                 4841 	inc	sp
                           4842 ; genIpush
   1059 79                 4843 	ld	a,c
   105A F5                 4844 	push	af
   105B 33                 4845 	inc	sp
                           4846 ; genCall
   105C CD 00 00           4847 	call	_set_sprite_tile
   105F E8 02              4848 	lda	sp,2(sp)
                           4849 ;	game.c 568
                           4850 ; genIpush
                           4851 ; AOP_STK for 
   1061 F8 08              4852 	lda	hl,8(sp)
   1063 7E                 4853 	ld	a,(hl)
   1064 F5                 4854 	push	af
   1065 33                 4855 	inc	sp
                           4856 ; genIpush
   1066 78                 4857 	ld	a,b
   1067 F5                 4858 	push	af
   1068 33                 4859 	inc	sp
                           4860 ; genIpush
   1069 79                 4861 	ld	a,c
   106A F5                 4862 	push	af
   106B 33                 4863 	inc	sp
                           4864 ; genCall
   106C CD 00 00           4865 	call	_move_sprite
   106F E8 03              4866 	lda	sp,3(sp)
                           4867 ; genLabel
   1071                    4868 00101$:
                           4869 ; genEndFunction
   1071 E8 02              4870 	lda	sp,2(sp)
   1073 C1                 4871 	pop bc
   1074 C9                 4872 	ret
   1075                    4873 ___drawBanditWalk1_end:
                           4874 ;	game.c 572
                           4875 ; genLabel
                           4876 ; genFunction
                           4877 ;	---------------------------------
                           4878 ; Function drawBanditWalk2
                           4879 ; ---------------------------------
   1075                    4880 ___drawBanditWalk2_start:
   1075                    4881 _drawBanditWalk2:
   1075 C5                 4882 	push	bc
   1076 E8 FE              4883 	lda sp,-2(sp)
                           4884 ;	game.c 573
                           4885 ; genLeftShift
                           4886 ; AOP_STK for 
   1078 F8 06              4887 	lda	hl,6(sp)
   107A 7E                 4888 	ld	a,(hl)
   107B 87                 4889 	add	a,a
   107C 87                 4890 	add	a,a
   107D 4F                 4891 	ld	c,a
                           4892 ; genPlus
                           4893 ; AOP_STK for _drawBanditWalk2_sloc0_1_0
                           4894 ; genPlusIncr
   107E 79                 4895 	ld	a,c
   107F C6 10              4896 	add	a,#0x10
   1081 F8 01              4897 	lda	hl,1(sp)
   1083 77                 4898 	ld	(hl),a ; 3
                           4899 ; genIpush
   1084 21 6E 3C           4900 	ld	hl,#_banditWalk2 + 0
   1087 E5                 4901 	push	hl
                           4902 ; genIpush
   1088 3E 04              4903 	ld	a,#0x04
   108A F5                 4904 	push	af
   108B 33                 4905 	inc	sp
                           4906 ; genIpush
                           4907 ; AOP_STK for _drawBanditWalk2_sloc0_1_0
   108C F8 04              4908 	lda	hl,4(sp)
   108E 7E                 4909 	ld	a,(hl)
   108F F5                 4910 	push	af
   1090 33                 4911 	inc	sp
                           4912 ; genCall
   1091 CD 00 00           4913 	call	_set_sprite_data
   1094 E8 04              4914 	lda	sp,4(sp)
                           4915 ;	game.c 575
                           4916 ; genIpush
                           4917 ; AOP_STK for _drawBanditWalk2_sloc0_1_0
   1096 F8 01              4918 	lda	hl,1(sp)
   1098 7E                 4919 	ld	a,(hl)
   1099 F5                 4920 	push	af
   109A 33                 4921 	inc	sp
                           4922 ; genIpush
                           4923 ; AOP_STK for _drawBanditWalk2_sloc0_1_0
   109B 7E                 4924 	ld	a,(hl)
   109C F5                 4925 	push	af
   109D 33                 4926 	inc	sp
                           4927 ; genCall
   109E CD 00 00           4928 	call	_set_sprite_tile
   10A1 E8 02              4929 	lda	sp,2(sp)
                           4930 ;	game.c 576
                           4931 ; genMinus
                           4932 ; AOP_STK for 
                           4933 ; AOP_STK for _drawBanditWalk2_sloc1_1_0
   10A3 F8 08              4934 	lda	hl,8(sp)
   10A5 7E                 4935 	ld	a,(hl)
   10A6 C6 F8              4936 	add	a,#0xF8
   10A8 F8 00              4937 	lda	hl,0(sp)
   10AA 77                 4938 	ld	(hl),a ; 3
                           4939 ; genIpush
                           4940 ; AOP_STK for _drawBanditWalk2_sloc1_1_0
   10AB 7E                 4941 	ld	a,(hl)
   10AC F5                 4942 	push	af
   10AD 33                 4943 	inc	sp
                           4944 ; genIpush
                           4945 ; AOP_STK for 
   10AE F8 08              4946 	lda	hl,8(sp)
   10B0 7E                 4947 	ld	a,(hl)
   10B1 F5                 4948 	push	af
   10B2 33                 4949 	inc	sp
                           4950 ; genIpush
                           4951 ; AOP_STK for _drawBanditWalk2_sloc0_1_0
   10B3 F8 03              4952 	lda	hl,3(sp)
   10B5 7E                 4953 	ld	a,(hl)
   10B6 F5                 4954 	push	af
   10B7 33                 4955 	inc	sp
                           4956 ; genCall
   10B8 CD 00 00           4957 	call	_move_sprite
   10BB E8 03              4958 	lda	sp,3(sp)
                           4959 ;	game.c 578
                           4960 ; genPlus
                           4961 ; genPlusIncr
   10BD 79                 4962 	ld	a,c
   10BE C6 11              4963 	add	a,#0x11
   10C0 47                 4964 	ld	b,a
                           4965 ; genIpush
   10C1 78                 4966 	ld	a,b
   10C2 F5                 4967 	push	af
   10C3 33                 4968 	inc	sp
                           4969 ; genIpush
   10C4 78                 4970 	ld	a,b
   10C5 F5                 4971 	push	af
   10C6 33                 4972 	inc	sp
                           4973 ; genCall
   10C7 CD 00 00           4974 	call	_set_sprite_tile
   10CA E8 02              4975 	lda	sp,2(sp)
                           4976 ;	game.c 579
                           4977 ; genIpush
                           4978 ; AOP_STK for 
   10CC F8 08              4979 	lda	hl,8(sp)
   10CE 7E                 4980 	ld	a,(hl)
   10CF F5                 4981 	push	af
   10D0 33                 4982 	inc	sp
                           4983 ; genIpush
                           4984 ; AOP_STK for 
   10D1 2B                 4985 	dec	hl
   10D2 7E                 4986 	ld	a,(hl)
   10D3 F5                 4987 	push	af
   10D4 33                 4988 	inc	sp
                           4989 ; genIpush
   10D5 78                 4990 	ld	a,b
   10D6 F5                 4991 	push	af
   10D7 33                 4992 	inc	sp
                           4993 ; genCall
   10D8 CD 00 00           4994 	call	_move_sprite
   10DB E8 03              4995 	lda	sp,3(sp)
                           4996 ;	game.c 581
                           4997 ; genPlus
                           4998 ; AOP_STK for _drawBanditWalk2_sloc0_1_0
                           4999 ; genPlusIncr
   10DD 79                 5000 	ld	a,c
   10DE C6 12              5001 	add	a,#0x12
   10E0 F8 01              5002 	lda	hl,1(sp)
   10E2 77                 5003 	ld	(hl),a ; 3
                           5004 ; genIpush
                           5005 ; AOP_STK for _drawBanditWalk2_sloc0_1_0
   10E3 7E                 5006 	ld	a,(hl)
   10E4 F5                 5007 	push	af
   10E5 33                 5008 	inc	sp
                           5009 ; genIpush
                           5010 ; AOP_STK for _drawBanditWalk2_sloc0_1_0
   10E6 7E                 5011 	ld	a,(hl)
   10E7 F5                 5012 	push	af
   10E8 33                 5013 	inc	sp
                           5014 ; genCall
   10E9 CD 00 00           5015 	call	_set_sprite_tile
   10EC E8 02              5016 	lda	sp,2(sp)
                           5017 ;	game.c 582
                           5018 ; genPlus
                           5019 ; AOP_STK for 
                           5020 ; genPlusIncr
   10EE F8 07              5021 	lda	hl,7(sp)
   10F0 7E                 5022 	ld	a,(hl)
   10F1 C6 08              5023 	add	a,#0x08
   10F3 47                 5024 	ld	b,a
                           5025 ; genIpush
                           5026 ; AOP_STK for _drawBanditWalk2_sloc1_1_0
   10F4 F8 00              5027 	lda	hl,0(sp)
   10F6 7E                 5028 	ld	a,(hl)
   10F7 F5                 5029 	push	af
   10F8 33                 5030 	inc	sp
                           5031 ; genIpush
   10F9 78                 5032 	ld	a,b
   10FA F5                 5033 	push	af
   10FB 33                 5034 	inc	sp
                           5035 ; genIpush
                           5036 ; AOP_STK for _drawBanditWalk2_sloc0_1_0
   10FC 23                 5037 	inc	hl
   10FD 7E                 5038 	ld	a,(hl)
   10FE F5                 5039 	push	af
   10FF 33                 5040 	inc	sp
                           5041 ; genCall
   1100 CD 00 00           5042 	call	_move_sprite
   1103 E8 03              5043 	lda	sp,3(sp)
                           5044 ;	game.c 584
                           5045 ; genPlus
                           5046 ; genPlusIncr
   1105 79                 5047 	ld	a,c
   1106 C6 13              5048 	add	a,#0x13
   1108 4F                 5049 	ld	c,a
                           5050 ; genIpush
   1109 79                 5051 	ld	a,c
   110A F5                 5052 	push	af
   110B 33                 5053 	inc	sp
                           5054 ; genIpush
   110C 79                 5055 	ld	a,c
   110D F5                 5056 	push	af
   110E 33                 5057 	inc	sp
                           5058 ; genCall
   110F CD 00 00           5059 	call	_set_sprite_tile
   1112 E8 02              5060 	lda	sp,2(sp)
                           5061 ;	game.c 585
                           5062 ; genIpush
                           5063 ; AOP_STK for 
   1114 F8 08              5064 	lda	hl,8(sp)
   1116 7E                 5065 	ld	a,(hl)
   1117 F5                 5066 	push	af
   1118 33                 5067 	inc	sp
                           5068 ; genIpush
   1119 78                 5069 	ld	a,b
   111A F5                 5070 	push	af
   111B 33                 5071 	inc	sp
                           5072 ; genIpush
   111C 79                 5073 	ld	a,c
   111D F5                 5074 	push	af
   111E 33                 5075 	inc	sp
                           5076 ; genCall
   111F CD 00 00           5077 	call	_move_sprite
   1122 E8 03              5078 	lda	sp,3(sp)
                           5079 ; genLabel
   1124                    5080 00101$:
                           5081 ; genEndFunction
   1124 E8 02              5082 	lda	sp,2(sp)
   1126 C1                 5083 	pop bc
   1127 C9                 5084 	ret
   1128                    5085 ___drawBanditWalk2_end:
                           5086 ;	game.c 589
                           5087 ; genLabel
                           5088 ; genFunction
                           5089 ;	---------------------------------
                           5090 ; Function drawBanditAttack1
                           5091 ; ---------------------------------
   1128                    5092 ___drawBanditAttack1_start:
   1128                    5093 _drawBanditAttack1:
   1128 C5                 5094 	push	bc
   1129 E8 FE              5095 	lda sp,-2(sp)
                           5096 ;	game.c 590
                           5097 ; genLeftShift
                           5098 ; AOP_STK for 
   112B F8 06              5099 	lda	hl,6(sp)
   112D 7E                 5100 	ld	a,(hl)
   112E 87                 5101 	add	a,a
   112F 87                 5102 	add	a,a
   1130 4F                 5103 	ld	c,a
                           5104 ; genPlus
                           5105 ; AOP_STK for _drawBanditAttack1_sloc0_1_0
                           5106 ; genPlusIncr
   1131 79                 5107 	ld	a,c
   1132 C6 10              5108 	add	a,#0x10
   1134 F8 01              5109 	lda	hl,1(sp)
   1136 77                 5110 	ld	(hl),a ; 3
                           5111 ; genIpush
   1137 21 EE 3C           5112 	ld	hl,#_banditAttack1 + 0
   113A E5                 5113 	push	hl
                           5114 ; genIpush
   113B 3E 04              5115 	ld	a,#0x04
   113D F5                 5116 	push	af
   113E 33                 5117 	inc	sp
                           5118 ; genIpush
                           5119 ; AOP_STK for _drawBanditAttack1_sloc0_1_0
   113F F8 04              5120 	lda	hl,4(sp)
   1141 7E                 5121 	ld	a,(hl)
   1142 F5                 5122 	push	af
   1143 33                 5123 	inc	sp
                           5124 ; genCall
   1144 CD 00 00           5125 	call	_set_sprite_data
   1147 E8 04              5126 	lda	sp,4(sp)
                           5127 ;	game.c 592
                           5128 ; genIpush
                           5129 ; AOP_STK for _drawBanditAttack1_sloc0_1_0
   1149 F8 01              5130 	lda	hl,1(sp)
   114B 7E                 5131 	ld	a,(hl)
   114C F5                 5132 	push	af
   114D 33                 5133 	inc	sp
                           5134 ; genIpush
                           5135 ; AOP_STK for _drawBanditAttack1_sloc0_1_0
   114E 7E                 5136 	ld	a,(hl)
   114F F5                 5137 	push	af
   1150 33                 5138 	inc	sp
                           5139 ; genCall
   1151 CD 00 00           5140 	call	_set_sprite_tile
   1154 E8 02              5141 	lda	sp,2(sp)
                           5142 ;	game.c 593
                           5143 ; genMinus
                           5144 ; AOP_STK for 
                           5145 ; AOP_STK for _drawBanditAttack1_sloc1_1_0
   1156 F8 08              5146 	lda	hl,8(sp)
   1158 7E                 5147 	ld	a,(hl)
   1159 C6 F8              5148 	add	a,#0xF8
   115B F8 00              5149 	lda	hl,0(sp)
   115D 77                 5150 	ld	(hl),a ; 3
                           5151 ; genIpush
                           5152 ; AOP_STK for _drawBanditAttack1_sloc1_1_0
   115E 7E                 5153 	ld	a,(hl)
   115F F5                 5154 	push	af
   1160 33                 5155 	inc	sp
                           5156 ; genIpush
                           5157 ; AOP_STK for 
   1161 F8 08              5158 	lda	hl,8(sp)
   1163 7E                 5159 	ld	a,(hl)
   1164 F5                 5160 	push	af
   1165 33                 5161 	inc	sp
                           5162 ; genIpush
                           5163 ; AOP_STK for _drawBanditAttack1_sloc0_1_0
   1166 F8 03              5164 	lda	hl,3(sp)
   1168 7E                 5165 	ld	a,(hl)
   1169 F5                 5166 	push	af
   116A 33                 5167 	inc	sp
                           5168 ; genCall
   116B CD 00 00           5169 	call	_move_sprite
   116E E8 03              5170 	lda	sp,3(sp)
                           5171 ;	game.c 595
                           5172 ; genPlus
                           5173 ; genPlusIncr
   1170 79                 5174 	ld	a,c
   1171 C6 11              5175 	add	a,#0x11
   1173 47                 5176 	ld	b,a
                           5177 ; genIpush
   1174 78                 5178 	ld	a,b
   1175 F5                 5179 	push	af
   1176 33                 5180 	inc	sp
                           5181 ; genIpush
   1177 78                 5182 	ld	a,b
   1178 F5                 5183 	push	af
   1179 33                 5184 	inc	sp
                           5185 ; genCall
   117A CD 00 00           5186 	call	_set_sprite_tile
   117D E8 02              5187 	lda	sp,2(sp)
                           5188 ;	game.c 596
                           5189 ; genIpush
                           5190 ; AOP_STK for 
   117F F8 08              5191 	lda	hl,8(sp)
   1181 7E                 5192 	ld	a,(hl)
   1182 F5                 5193 	push	af
   1183 33                 5194 	inc	sp
                           5195 ; genIpush
                           5196 ; AOP_STK for 
   1184 2B                 5197 	dec	hl
   1185 7E                 5198 	ld	a,(hl)
   1186 F5                 5199 	push	af
   1187 33                 5200 	inc	sp
                           5201 ; genIpush
   1188 78                 5202 	ld	a,b
   1189 F5                 5203 	push	af
   118A 33                 5204 	inc	sp
                           5205 ; genCall
   118B CD 00 00           5206 	call	_move_sprite
   118E E8 03              5207 	lda	sp,3(sp)
                           5208 ;	game.c 598
                           5209 ; genPlus
                           5210 ; AOP_STK for _drawBanditAttack1_sloc0_1_0
                           5211 ; genPlusIncr
   1190 79                 5212 	ld	a,c
   1191 C6 12              5213 	add	a,#0x12
   1193 F8 01              5214 	lda	hl,1(sp)
   1195 77                 5215 	ld	(hl),a ; 3
                           5216 ; genIpush
                           5217 ; AOP_STK for _drawBanditAttack1_sloc0_1_0
   1196 7E                 5218 	ld	a,(hl)
   1197 F5                 5219 	push	af
   1198 33                 5220 	inc	sp
                           5221 ; genIpush
                           5222 ; AOP_STK for _drawBanditAttack1_sloc0_1_0
   1199 7E                 5223 	ld	a,(hl)
   119A F5                 5224 	push	af
   119B 33                 5225 	inc	sp
                           5226 ; genCall
   119C CD 00 00           5227 	call	_set_sprite_tile
   119F E8 02              5228 	lda	sp,2(sp)
                           5229 ;	game.c 599
                           5230 ; genPlus
                           5231 ; AOP_STK for 
                           5232 ; genPlusIncr
   11A1 F8 07              5233 	lda	hl,7(sp)
   11A3 7E                 5234 	ld	a,(hl)
   11A4 C6 08              5235 	add	a,#0x08
   11A6 47                 5236 	ld	b,a
                           5237 ; genIpush
                           5238 ; AOP_STK for _drawBanditAttack1_sloc1_1_0
   11A7 F8 00              5239 	lda	hl,0(sp)
   11A9 7E                 5240 	ld	a,(hl)
   11AA F5                 5241 	push	af
   11AB 33                 5242 	inc	sp
                           5243 ; genIpush
   11AC 78                 5244 	ld	a,b
   11AD F5                 5245 	push	af
   11AE 33                 5246 	inc	sp
                           5247 ; genIpush
                           5248 ; AOP_STK for _drawBanditAttack1_sloc0_1_0
   11AF 23                 5249 	inc	hl
   11B0 7E                 5250 	ld	a,(hl)
   11B1 F5                 5251 	push	af
   11B2 33                 5252 	inc	sp
                           5253 ; genCall
   11B3 CD 00 00           5254 	call	_move_sprite
   11B6 E8 03              5255 	lda	sp,3(sp)
                           5256 ;	game.c 601
                           5257 ; genPlus
                           5258 ; genPlusIncr
   11B8 79                 5259 	ld	a,c
   11B9 C6 13              5260 	add	a,#0x13
   11BB 4F                 5261 	ld	c,a
                           5262 ; genIpush
   11BC 79                 5263 	ld	a,c
   11BD F5                 5264 	push	af
   11BE 33                 5265 	inc	sp
                           5266 ; genIpush
   11BF 79                 5267 	ld	a,c
   11C0 F5                 5268 	push	af
   11C1 33                 5269 	inc	sp
                           5270 ; genCall
   11C2 CD 00 00           5271 	call	_set_sprite_tile
   11C5 E8 02              5272 	lda	sp,2(sp)
                           5273 ;	game.c 602
                           5274 ; genIpush
                           5275 ; AOP_STK for 
   11C7 F8 08              5276 	lda	hl,8(sp)
   11C9 7E                 5277 	ld	a,(hl)
   11CA F5                 5278 	push	af
   11CB 33                 5279 	inc	sp
                           5280 ; genIpush
   11CC 78                 5281 	ld	a,b
   11CD F5                 5282 	push	af
   11CE 33                 5283 	inc	sp
                           5284 ; genIpush
   11CF 79                 5285 	ld	a,c
   11D0 F5                 5286 	push	af
   11D1 33                 5287 	inc	sp
                           5288 ; genCall
   11D2 CD 00 00           5289 	call	_move_sprite
   11D5 E8 03              5290 	lda	sp,3(sp)
                           5291 ; genLabel
   11D7                    5292 00101$:
                           5293 ; genEndFunction
   11D7 E8 02              5294 	lda	sp,2(sp)
   11D9 C1                 5295 	pop bc
   11DA C9                 5296 	ret
   11DB                    5297 ___drawBanditAttack1_end:
                           5298 ;	game.c 606
                           5299 ; genLabel
                           5300 ; genFunction
                           5301 ;	---------------------------------
                           5302 ; Function drawBanditAttack2
                           5303 ; ---------------------------------
   11DB                    5304 ___drawBanditAttack2_start:
   11DB                    5305 _drawBanditAttack2:
   11DB C5                 5306 	push	bc
   11DC E8 FE              5307 	lda sp,-2(sp)
                           5308 ;	game.c 607
                           5309 ; genLeftShift
                           5310 ; AOP_STK for 
   11DE F8 06              5311 	lda	hl,6(sp)
   11E0 7E                 5312 	ld	a,(hl)
   11E1 87                 5313 	add	a,a
   11E2 87                 5314 	add	a,a
   11E3 4F                 5315 	ld	c,a
                           5316 ; genPlus
                           5317 ; AOP_STK for _drawBanditAttack2_sloc0_1_0
                           5318 ; genPlusIncr
   11E4 79                 5319 	ld	a,c
   11E5 C6 10              5320 	add	a,#0x10
   11E7 F8 01              5321 	lda	hl,1(sp)
   11E9 77                 5322 	ld	(hl),a ; 3
                           5323 ; genIpush
   11EA 21 2E 3D           5324 	ld	hl,#_banditAttack2 + 0
   11ED E5                 5325 	push	hl
                           5326 ; genIpush
   11EE 3E 04              5327 	ld	a,#0x04
   11F0 F5                 5328 	push	af
   11F1 33                 5329 	inc	sp
                           5330 ; genIpush
                           5331 ; AOP_STK for _drawBanditAttack2_sloc0_1_0
   11F2 F8 04              5332 	lda	hl,4(sp)
   11F4 7E                 5333 	ld	a,(hl)
   11F5 F5                 5334 	push	af
   11F6 33                 5335 	inc	sp
                           5336 ; genCall
   11F7 CD 00 00           5337 	call	_set_sprite_data
   11FA E8 04              5338 	lda	sp,4(sp)
                           5339 ;	game.c 609
                           5340 ; genIpush
                           5341 ; AOP_STK for _drawBanditAttack2_sloc0_1_0
   11FC F8 01              5342 	lda	hl,1(sp)
   11FE 7E                 5343 	ld	a,(hl)
   11FF F5                 5344 	push	af
   1200 33                 5345 	inc	sp
                           5346 ; genIpush
                           5347 ; AOP_STK for _drawBanditAttack2_sloc0_1_0
   1201 7E                 5348 	ld	a,(hl)
   1202 F5                 5349 	push	af
   1203 33                 5350 	inc	sp
                           5351 ; genCall
   1204 CD 00 00           5352 	call	_set_sprite_tile
   1207 E8 02              5353 	lda	sp,2(sp)
                           5354 ;	game.c 610
                           5355 ; genMinus
                           5356 ; AOP_STK for 
                           5357 ; AOP_STK for _drawBanditAttack2_sloc1_1_0
   1209 F8 08              5358 	lda	hl,8(sp)
   120B 7E                 5359 	ld	a,(hl)
   120C C6 F8              5360 	add	a,#0xF8
   120E F8 00              5361 	lda	hl,0(sp)
   1210 77                 5362 	ld	(hl),a ; 3
                           5363 ; genIpush
                           5364 ; AOP_STK for _drawBanditAttack2_sloc1_1_0
   1211 7E                 5365 	ld	a,(hl)
   1212 F5                 5366 	push	af
   1213 33                 5367 	inc	sp
                           5368 ; genIpush
                           5369 ; AOP_STK for 
   1214 F8 08              5370 	lda	hl,8(sp)
   1216 7E                 5371 	ld	a,(hl)
   1217 F5                 5372 	push	af
   1218 33                 5373 	inc	sp
                           5374 ; genIpush
                           5375 ; AOP_STK for _drawBanditAttack2_sloc0_1_0
   1219 F8 03              5376 	lda	hl,3(sp)
   121B 7E                 5377 	ld	a,(hl)
   121C F5                 5378 	push	af
   121D 33                 5379 	inc	sp
                           5380 ; genCall
   121E CD 00 00           5381 	call	_move_sprite
   1221 E8 03              5382 	lda	sp,3(sp)
                           5383 ;	game.c 612
                           5384 ; genPlus
                           5385 ; genPlusIncr
   1223 79                 5386 	ld	a,c
   1224 C6 11              5387 	add	a,#0x11
   1226 47                 5388 	ld	b,a
                           5389 ; genIpush
   1227 78                 5390 	ld	a,b
   1228 F5                 5391 	push	af
   1229 33                 5392 	inc	sp
                           5393 ; genIpush
   122A 78                 5394 	ld	a,b
   122B F5                 5395 	push	af
   122C 33                 5396 	inc	sp
                           5397 ; genCall
   122D CD 00 00           5398 	call	_set_sprite_tile
   1230 E8 02              5399 	lda	sp,2(sp)
                           5400 ;	game.c 613
                           5401 ; genIpush
                           5402 ; AOP_STK for 
   1232 F8 08              5403 	lda	hl,8(sp)
   1234 7E                 5404 	ld	a,(hl)
   1235 F5                 5405 	push	af
   1236 33                 5406 	inc	sp
                           5407 ; genIpush
                           5408 ; AOP_STK for 
   1237 2B                 5409 	dec	hl
   1238 7E                 5410 	ld	a,(hl)
   1239 F5                 5411 	push	af
   123A 33                 5412 	inc	sp
                           5413 ; genIpush
   123B 78                 5414 	ld	a,b
   123C F5                 5415 	push	af
   123D 33                 5416 	inc	sp
                           5417 ; genCall
   123E CD 00 00           5418 	call	_move_sprite
   1241 E8 03              5419 	lda	sp,3(sp)
                           5420 ;	game.c 615
                           5421 ; genPlus
                           5422 ; AOP_STK for _drawBanditAttack2_sloc0_1_0
                           5423 ; genPlusIncr
   1243 79                 5424 	ld	a,c
   1244 C6 12              5425 	add	a,#0x12
   1246 F8 01              5426 	lda	hl,1(sp)
   1248 77                 5427 	ld	(hl),a ; 3
                           5428 ; genIpush
                           5429 ; AOP_STK for _drawBanditAttack2_sloc0_1_0
   1249 7E                 5430 	ld	a,(hl)
   124A F5                 5431 	push	af
   124B 33                 5432 	inc	sp
                           5433 ; genIpush
                           5434 ; AOP_STK for _drawBanditAttack2_sloc0_1_0
   124C 7E                 5435 	ld	a,(hl)
   124D F5                 5436 	push	af
   124E 33                 5437 	inc	sp
                           5438 ; genCall
   124F CD 00 00           5439 	call	_set_sprite_tile
   1252 E8 02              5440 	lda	sp,2(sp)
                           5441 ;	game.c 616
                           5442 ; genPlus
                           5443 ; AOP_STK for 
                           5444 ; genPlusIncr
   1254 F8 07              5445 	lda	hl,7(sp)
   1256 7E                 5446 	ld	a,(hl)
   1257 C6 08              5447 	add	a,#0x08
   1259 47                 5448 	ld	b,a
                           5449 ; genIpush
                           5450 ; AOP_STK for _drawBanditAttack2_sloc1_1_0
   125A F8 00              5451 	lda	hl,0(sp)
   125C 7E                 5452 	ld	a,(hl)
   125D F5                 5453 	push	af
   125E 33                 5454 	inc	sp
                           5455 ; genIpush
   125F 78                 5456 	ld	a,b
   1260 F5                 5457 	push	af
   1261 33                 5458 	inc	sp
                           5459 ; genIpush
                           5460 ; AOP_STK for _drawBanditAttack2_sloc0_1_0
   1262 23                 5461 	inc	hl
   1263 7E                 5462 	ld	a,(hl)
   1264 F5                 5463 	push	af
   1265 33                 5464 	inc	sp
                           5465 ; genCall
   1266 CD 00 00           5466 	call	_move_sprite
   1269 E8 03              5467 	lda	sp,3(sp)
                           5468 ;	game.c 618
                           5469 ; genPlus
                           5470 ; genPlusIncr
   126B 79                 5471 	ld	a,c
   126C C6 13              5472 	add	a,#0x13
   126E 4F                 5473 	ld	c,a
                           5474 ; genIpush
   126F 79                 5475 	ld	a,c
   1270 F5                 5476 	push	af
   1271 33                 5477 	inc	sp
                           5478 ; genIpush
   1272 79                 5479 	ld	a,c
   1273 F5                 5480 	push	af
   1274 33                 5481 	inc	sp
                           5482 ; genCall
   1275 CD 00 00           5483 	call	_set_sprite_tile
   1278 E8 02              5484 	lda	sp,2(sp)
                           5485 ;	game.c 619
                           5486 ; genIpush
                           5487 ; AOP_STK for 
   127A F8 08              5488 	lda	hl,8(sp)
   127C 7E                 5489 	ld	a,(hl)
   127D F5                 5490 	push	af
   127E 33                 5491 	inc	sp
                           5492 ; genIpush
   127F 78                 5493 	ld	a,b
   1280 F5                 5494 	push	af
   1281 33                 5495 	inc	sp
                           5496 ; genIpush
   1282 79                 5497 	ld	a,c
   1283 F5                 5498 	push	af
   1284 33                 5499 	inc	sp
                           5500 ; genCall
   1285 CD 00 00           5501 	call	_move_sprite
   1288 E8 03              5502 	lda	sp,3(sp)
                           5503 ; genLabel
   128A                    5504 00101$:
                           5505 ; genEndFunction
   128A E8 02              5506 	lda	sp,2(sp)
   128C C1                 5507 	pop bc
   128D C9                 5508 	ret
   128E                    5509 ___drawBanditAttack2_end:
                           5510 ;	game.c 623
                           5511 ; genLabel
                           5512 ; genFunction
                           5513 ;	---------------------------------
                           5514 ; Function drawBanditDead
                           5515 ; ---------------------------------
   128E                    5516 ___drawBanditDead_start:
   128E                    5517 _drawBanditDead:
   128E C5                 5518 	push	bc
   128F E8 FE              5519 	lda sp,-2(sp)
                           5520 ;	game.c 624
                           5521 ; genLeftShift
                           5522 ; AOP_STK for 
   1291 F8 06              5523 	lda	hl,6(sp)
   1293 7E                 5524 	ld	a,(hl)
   1294 87                 5525 	add	a,a
   1295 87                 5526 	add	a,a
   1296 4F                 5527 	ld	c,a
                           5528 ; genPlus
                           5529 ; AOP_STK for _drawBanditDead_sloc0_1_0
                           5530 ; genPlusIncr
   1297 79                 5531 	ld	a,c
   1298 C6 10              5532 	add	a,#0x10
   129A F8 01              5533 	lda	hl,1(sp)
   129C 77                 5534 	ld	(hl),a ; 3
                           5535 ; genIpush
   129D 21 AE 3C           5536 	ld	hl,#_banditDead + 0
   12A0 E5                 5537 	push	hl
                           5538 ; genIpush
   12A1 3E 04              5539 	ld	a,#0x04
   12A3 F5                 5540 	push	af
   12A4 33                 5541 	inc	sp
                           5542 ; genIpush
                           5543 ; AOP_STK for _drawBanditDead_sloc0_1_0
   12A5 F8 04              5544 	lda	hl,4(sp)
   12A7 7E                 5545 	ld	a,(hl)
   12A8 F5                 5546 	push	af
   12A9 33                 5547 	inc	sp
                           5548 ; genCall
   12AA CD 00 00           5549 	call	_set_sprite_data
   12AD E8 04              5550 	lda	sp,4(sp)
                           5551 ;	game.c 626
                           5552 ; genIpush
                           5553 ; AOP_STK for _drawBanditDead_sloc0_1_0
   12AF F8 01              5554 	lda	hl,1(sp)
   12B1 7E                 5555 	ld	a,(hl)
   12B2 F5                 5556 	push	af
   12B3 33                 5557 	inc	sp
                           5558 ; genIpush
                           5559 ; AOP_STK for _drawBanditDead_sloc0_1_0
   12B4 7E                 5560 	ld	a,(hl)
   12B5 F5                 5561 	push	af
   12B6 33                 5562 	inc	sp
                           5563 ; genCall
   12B7 CD 00 00           5564 	call	_set_sprite_tile
   12BA E8 02              5565 	lda	sp,2(sp)
                           5566 ;	game.c 627
                           5567 ; genMinus
                           5568 ; AOP_STK for 
                           5569 ; AOP_STK for _drawBanditDead_sloc1_1_0
   12BC F8 08              5570 	lda	hl,8(sp)
   12BE 7E                 5571 	ld	a,(hl)
   12BF C6 F8              5572 	add	a,#0xF8
   12C1 F8 00              5573 	lda	hl,0(sp)
   12C3 77                 5574 	ld	(hl),a ; 3
                           5575 ; genIpush
                           5576 ; AOP_STK for _drawBanditDead_sloc1_1_0
   12C4 7E                 5577 	ld	a,(hl)
   12C5 F5                 5578 	push	af
   12C6 33                 5579 	inc	sp
                           5580 ; genIpush
                           5581 ; AOP_STK for 
   12C7 F8 08              5582 	lda	hl,8(sp)
   12C9 7E                 5583 	ld	a,(hl)
   12CA F5                 5584 	push	af
   12CB 33                 5585 	inc	sp
                           5586 ; genIpush
                           5587 ; AOP_STK for _drawBanditDead_sloc0_1_0
   12CC F8 03              5588 	lda	hl,3(sp)
   12CE 7E                 5589 	ld	a,(hl)
   12CF F5                 5590 	push	af
   12D0 33                 5591 	inc	sp
                           5592 ; genCall
   12D1 CD 00 00           5593 	call	_move_sprite
   12D4 E8 03              5594 	lda	sp,3(sp)
                           5595 ;	game.c 629
                           5596 ; genPlus
                           5597 ; genPlusIncr
   12D6 79                 5598 	ld	a,c
   12D7 C6 11              5599 	add	a,#0x11
   12D9 47                 5600 	ld	b,a
                           5601 ; genIpush
   12DA 78                 5602 	ld	a,b
   12DB F5                 5603 	push	af
   12DC 33                 5604 	inc	sp
                           5605 ; genIpush
   12DD 78                 5606 	ld	a,b
   12DE F5                 5607 	push	af
   12DF 33                 5608 	inc	sp
                           5609 ; genCall
   12E0 CD 00 00           5610 	call	_set_sprite_tile
   12E3 E8 02              5611 	lda	sp,2(sp)
                           5612 ;	game.c 630
                           5613 ; genIpush
                           5614 ; AOP_STK for 
   12E5 F8 08              5615 	lda	hl,8(sp)
   12E7 7E                 5616 	ld	a,(hl)
   12E8 F5                 5617 	push	af
   12E9 33                 5618 	inc	sp
                           5619 ; genIpush
                           5620 ; AOP_STK for 
   12EA 2B                 5621 	dec	hl
   12EB 7E                 5622 	ld	a,(hl)
   12EC F5                 5623 	push	af
   12ED 33                 5624 	inc	sp
                           5625 ; genIpush
   12EE 78                 5626 	ld	a,b
   12EF F5                 5627 	push	af
   12F0 33                 5628 	inc	sp
                           5629 ; genCall
   12F1 CD 00 00           5630 	call	_move_sprite
   12F4 E8 03              5631 	lda	sp,3(sp)
                           5632 ;	game.c 632
                           5633 ; genPlus
                           5634 ; AOP_STK for _drawBanditDead_sloc0_1_0
                           5635 ; genPlusIncr
   12F6 79                 5636 	ld	a,c
   12F7 C6 12              5637 	add	a,#0x12
   12F9 F8 01              5638 	lda	hl,1(sp)
   12FB 77                 5639 	ld	(hl),a ; 3
                           5640 ; genIpush
                           5641 ; AOP_STK for _drawBanditDead_sloc0_1_0
   12FC 7E                 5642 	ld	a,(hl)
   12FD F5                 5643 	push	af
   12FE 33                 5644 	inc	sp
                           5645 ; genIpush
                           5646 ; AOP_STK for _drawBanditDead_sloc0_1_0
   12FF 7E                 5647 	ld	a,(hl)
   1300 F5                 5648 	push	af
   1301 33                 5649 	inc	sp
                           5650 ; genCall
   1302 CD 00 00           5651 	call	_set_sprite_tile
   1305 E8 02              5652 	lda	sp,2(sp)
                           5653 ;	game.c 633
                           5654 ; genPlus
                           5655 ; AOP_STK for 
                           5656 ; genPlusIncr
   1307 F8 07              5657 	lda	hl,7(sp)
   1309 7E                 5658 	ld	a,(hl)
   130A C6 08              5659 	add	a,#0x08
   130C 47                 5660 	ld	b,a
                           5661 ; genIpush
                           5662 ; AOP_STK for _drawBanditDead_sloc1_1_0
   130D F8 00              5663 	lda	hl,0(sp)
   130F 7E                 5664 	ld	a,(hl)
   1310 F5                 5665 	push	af
   1311 33                 5666 	inc	sp
                           5667 ; genIpush
   1312 78                 5668 	ld	a,b
   1313 F5                 5669 	push	af
   1314 33                 5670 	inc	sp
                           5671 ; genIpush
                           5672 ; AOP_STK for _drawBanditDead_sloc0_1_0
   1315 23                 5673 	inc	hl
   1316 7E                 5674 	ld	a,(hl)
   1317 F5                 5675 	push	af
   1318 33                 5676 	inc	sp
                           5677 ; genCall
   1319 CD 00 00           5678 	call	_move_sprite
   131C E8 03              5679 	lda	sp,3(sp)
                           5680 ;	game.c 635
                           5681 ; genPlus
                           5682 ; genPlusIncr
   131E 79                 5683 	ld	a,c
   131F C6 13              5684 	add	a,#0x13
   1321 4F                 5685 	ld	c,a
                           5686 ; genIpush
   1322 79                 5687 	ld	a,c
   1323 F5                 5688 	push	af
   1324 33                 5689 	inc	sp
                           5690 ; genIpush
   1325 79                 5691 	ld	a,c
   1326 F5                 5692 	push	af
   1327 33                 5693 	inc	sp
                           5694 ; genCall
   1328 CD 00 00           5695 	call	_set_sprite_tile
   132B E8 02              5696 	lda	sp,2(sp)
                           5697 ;	game.c 636
                           5698 ; genIpush
                           5699 ; AOP_STK for 
   132D F8 08              5700 	lda	hl,8(sp)
   132F 7E                 5701 	ld	a,(hl)
   1330 F5                 5702 	push	af
   1331 33                 5703 	inc	sp
                           5704 ; genIpush
   1332 78                 5705 	ld	a,b
   1333 F5                 5706 	push	af
   1334 33                 5707 	inc	sp
                           5708 ; genIpush
   1335 79                 5709 	ld	a,c
   1336 F5                 5710 	push	af
   1337 33                 5711 	inc	sp
                           5712 ; genCall
   1338 CD 00 00           5713 	call	_move_sprite
   133B E8 03              5714 	lda	sp,3(sp)
                           5715 ; genLabel
   133D                    5716 00101$:
                           5717 ; genEndFunction
   133D E8 02              5718 	lda	sp,2(sp)
   133F C1                 5719 	pop bc
   1340 C9                 5720 	ret
   1341                    5721 ___drawBanditDead_end:
                           5722 ;	game.c 640
                           5723 ; genLabel
                           5724 ; genFunction
                           5725 ;	---------------------------------
                           5726 ; Function BanditWalk
                           5727 ; ---------------------------------
   1341                    5728 ___BanditWalk_start:
   1341                    5729 _BanditWalk:
   1341 C5                 5730 	push	bc
   1342 E8 FC              5731 	lda sp,-4(sp)
                           5732 ;	game.c 641
                           5733 ; genIpush
   1344 3E 0E              5734 	ld	a,#0x0E
   1346 F5                 5735 	push	af
   1347 33                 5736 	inc	sp
                           5737 ; genIpush
                           5738 ; AOP_STK for 
   1348 F8 09              5739 	lda	hl,9(sp)
   134A 7E                 5740 	ld	a,(hl)
   134B F5                 5741 	push	af
   134C 33                 5742 	inc	sp
                           5743 ; genCall
   134D CD 00 00           5744 	call	__muluchar
   1350 4B                 5745 	ld	c,e
   1351 E8 02              5746 	lda	sp,2(sp)
                           5747 ; genPlus
                           5748 ; AOP_STK for _BanditWalk_sloc0_1_0
   1353 3E 02              5749 	ld	a,#<_bandits
   1355 81                 5750 	add	a,c
   1356 F8 02              5751 	lda	hl,2(sp)
   1358 77                 5752 	ld	(hl),a ; 3
   1359 3E 00              5753 	ld	a,#>_bandits
   135B CE 00              5754 	adc	a,#0x00
   135D 23                 5755 	inc	hl
   135E 77                 5756 	ld	(hl),a ; 3
                           5757 ; genPlus
                           5758 ; AOP_STK for _BanditWalk_sloc0_1_0
                           5759 ; genPlusIncr
   135F 2B                 5760 	dec	hl
   1360 7E                 5761 	ld	a,(hl)
   1361 C6 0A              5762 	add	a,#0x0A
   1363 5F                 5763 	ld	e,a
   1364 23                 5764 	inc	hl
   1365 7E                 5765 	ld	a,(hl)
   1366 CE 00              5766 	adc	a,#0x00
   1368 57                 5767 	ld	d,a
                           5768 ; genAssign (pointer)
   1369 3E 01              5769 	ld	a,#0x01
   136B 12                 5770 	ld	(de),a
                           5771 ;	game.c 644
                           5772 ; genPlus
                           5773 ; AOP_STK for _BanditWalk_sloc0_1_0
                           5774 ; genPlusIncr
   136C 2B                 5775 	dec	hl
   136D 7E                 5776 	ld	a,(hl)
   136E C6 0B              5777 	add	a,#0x0B
   1370 5F                 5778 	ld	e,a
   1371 23                 5779 	inc	hl
   1372 7E                 5780 	ld	a,(hl)
   1373 CE 00              5781 	adc	a,#0x00
   1375 57                 5782 	ld	d,a
                           5783 ; genPointerGet
   1376 1A                 5784 	ld	a,(de)
   1377 4F                 5785 	ld	c,a
                           5786 ; genCmpEq
   1378 79                 5787 	ld	a,c
   1379 B7                 5788 	or	a,a
   137A C2 7F 13           5789 	jp	nz,00118$
   137D 18 03              5790 	jr	00119$
   137F                    5791 00118$:
   137F C3 08 14           5792 	jp	00111$
   1382                    5793 00119$:
                           5794 ;	game.c 645
                           5795 ; genPlus
                           5796 ; AOP_STK for _BanditWalk_sloc0_1_0
                           5797 ; AOP_STK for _BanditWalk_sloc1_1_0
                           5798 ; genPlusIncr
   1382 F8 02              5799 	lda	hl,2(sp)
   1384 7E                 5800 	ld	a,(hl)
   1385 C6 07              5801 	add	a,#0x07
   1387 2B                 5802 	dec	hl
   1388 2B                 5803 	dec	hl
   1389 77                 5804 	ld	(hl),a ; 3
   138A F8 03              5805 	lda	hl,3(sp)
   138C 7E                 5806 	ld	a,(hl)
   138D CE 00              5807 	adc	a,#0x00
   138F 2B                 5808 	dec	hl
   1390 2B                 5809 	dec	hl
   1391 77                 5810 	ld	(hl),a ; 3
                           5811 ; genPointerGet
                           5812 ; AOP_STK for _BanditWalk_sloc1_1_0
                           5813 ; AOP_STK for _BanditWalk_sloc0_1_0
   1392 2B                 5814 	dec	hl
   1393 5E                 5815 	ld	e,(hl)
   1394 23                 5816 	inc	hl
   1395 56                 5817 	ld	d,(hl)
   1396 1A                 5818 	ld	a,(de)
   1397 23                 5819 	inc	hl
   1398 77                 5820 	ld	(hl),a ; 3
                           5821 ; genRightShift
                           5822 ; AOP_HL for _MAX_TIMER
                           5823 ; shift right 	result 1, left 1
   1399 21 00 00           5824 	ld	hl,#_MAX_TIMER + 0
   139C 4E                 5825 	ld	c,(hl)
   139D CB 39              5826 	srl	c
                           5827 ; genCmpLt
                           5828 ; AOP_STK for _BanditWalk_sloc0_1_0
   139F AF                 5829 	xor	a,a
   13A0 F8 02              5830 	lda	hl,2(sp)
   13A2 7E                 5831 	ld	a,(hl)
   13A3 99                 5832 	sbc	a,c ; 2
   13A4 3E 00              5833 	ld	a,#0x00
   13A6 17                 5834 	rla
   13A7 4F                 5835 	ld	c,a
                           5836 ; genIfx
                           5837 ; Removed redundent or a,a
   13A8 AF                 5838 	xor	a,a
   13A9 B1                 5839 	or	a,c
   13AA C2 C7 13           5840 	jp	nz,00105$
                           5841 ;	game.c 646
                           5842 ; genPlus
                           5843 ; AOP_STK for 
                           5844 ; genPlusIncr
   13AD F8 08              5845 	lda	hl,8(sp)
   13AF 7E                 5846 	ld	a,(hl)
   13B0 C6 01              5847 	add	a,#0x01
   13B2 47                 5848 	ld	b,a
                           5849 ; genIpush
                           5850 ; AOP_STK for 
   13B3 23                 5851 	inc	hl
   13B4 23                 5852 	inc	hl
   13B5 7E                 5853 	ld	a,(hl)
   13B6 F5                 5854 	push	af
   13B7 33                 5855 	inc	sp
                           5856 ; genIpush
                           5857 ; AOP_STK for 
   13B8 2B                 5858 	dec	hl
   13B9 7E                 5859 	ld	a,(hl)
   13BA F5                 5860 	push	af
   13BB 33                 5861 	inc	sp
                           5862 ; genIpush
   13BC 78                 5863 	ld	a,b
   13BD F5                 5864 	push	af
   13BE 33                 5865 	inc	sp
                           5866 ; genCall
   13BF CD C2 0F           5867 	call	_drawBanditWalk1
   13C2 E8 03              5868 	lda	sp,3(sp)
                           5869 ; genGoto
   13C4 C3 EB 13           5870 	jp	00106$
                           5871 ; genLabel
   13C7                    5872 00105$:
                           5873 ;	game.c 647
                           5874 ; genCmpLt
                           5875 ; AOP_STK for _BanditWalk_sloc0_1_0
   13C7 F8 02              5876 	lda	hl,2(sp)
   13C9 7E                 5877 	ld	a,(hl)
   13CA FE 00              5878 	cp	#0x00
   13CC DA EB 13           5879 	jp	c,00106$
                           5880 ; genIfx
                           5881 ; Removed redundent or a,a
   13CF AF                 5882 	xor	a,a
   13D0 B1                 5883 	or	a,c
   13D1 CA EB 13           5884 	jp	z,00106$
                           5885 ;	game.c 648
                           5886 ; genPlus
                           5887 ; AOP_STK for 
                           5888 ; genPlusIncr
   13D4 F8 08              5889 	lda	hl,8(sp)
   13D6 7E                 5890 	ld	a,(hl)
   13D7 C6 01              5891 	add	a,#0x01
   13D9 4F                 5892 	ld	c,a
                           5893 ; genIpush
                           5894 ; AOP_STK for 
   13DA 23                 5895 	inc	hl
   13DB 23                 5896 	inc	hl
   13DC 7E                 5897 	ld	a,(hl)
   13DD F5                 5898 	push	af
   13DE 33                 5899 	inc	sp
                           5900 ; genIpush
                           5901 ; AOP_STK for 
   13DF 2B                 5902 	dec	hl
   13E0 7E                 5903 	ld	a,(hl)
   13E1 F5                 5904 	push	af
   13E2 33                 5905 	inc	sp
                           5906 ; genIpush
   13E3 79                 5907 	ld	a,c
   13E4 F5                 5908 	push	af
   13E5 33                 5909 	inc	sp
                           5910 ; genCall
   13E6 CD 75 10           5911 	call	_drawBanditWalk2
   13E9 E8 03              5912 	lda	sp,3(sp)
                           5913 ; genLabel
   13EB                    5914 00106$:
                           5915 ;	game.c 651
                           5916 ; genMinus
                           5917 ; AOP_STK for _BanditWalk_sloc0_1_0
   13EB F8 02              5918 	lda	hl,2(sp)
   13ED 7E                 5919 	ld	a,(hl)
   13EE C6 FF              5920 	add	a,#0xFF
   13F0 4F                 5921 	ld	c,a
                           5922 ; genAssign (pointer)
                           5923 ; AOP_STK for _BanditWalk_sloc1_1_0
   13F1 2B                 5924 	dec	hl
   13F2 2B                 5925 	dec	hl
   13F3 5E                 5926 	ld	e,(hl)
   13F4 23                 5927 	inc	hl
   13F5 56                 5928 	ld	d,(hl)
   13F6 79                 5929 	ld	a,c
   13F7 12                 5930 	ld	(de),a
                           5931 ;	game.c 653
                           5932 ; genCmpGt
   13F8 AF                 5933 	xor	a,a
   13F9 3E 00              5934 	ld	a,#0x00
   13FB 99                 5935 	sbc	a,c ; 2
   13FC DA 08 14           5936 	jp	c,00111$
                           5937 ;	game.c 654
                           5938 ; genAssign (pointer)
                           5939 ; AOP_STK for _BanditWalk_sloc1_1_0
                           5940 ; AOP_HL for _MAX_TIMER
   13FF 2B                 5941 	dec	hl
   1400 5E                 5942 	ld	e,(hl)
   1401 23                 5943 	inc	hl
   1402 56                 5944 	ld	d,(hl)
   1403 21 00 00           5945 	ld	hl,#_MAX_TIMER + 0
   1406 7E                 5946 	ld	a,(hl)
   1407 12                 5947 	ld	(de),a
                           5948 ; genLabel
   1408                    5949 00111$:
                           5950 ; genEndFunction
   1408 E8 04              5951 	lda	sp,4(sp)
   140A C1                 5952 	pop bc
   140B C9                 5953 	ret
   140C                    5954 ___BanditWalk_end:
                           5955 ;	game.c 663
                           5956 ; genLabel
                           5957 ; genFunction
                           5958 ;	---------------------------------
                           5959 ; Function BanditAttack
                           5960 ; ---------------------------------
   140C                    5961 ___BanditAttack_start:
   140C                    5962 _BanditAttack:
   140C C5                 5963 	push	bc
   140D E8 FD              5964 	lda sp,-3(sp)
                           5965 ;	game.c 664
                           5966 ; genIpush
   140F 3E 0E              5967 	ld	a,#0x0E
   1411 F5                 5968 	push	af
   1412 33                 5969 	inc	sp
                           5970 ; genIpush
                           5971 ; AOP_STK for 
   1413 F8 08              5972 	lda	hl,8(sp)
   1415 7E                 5973 	ld	a,(hl)
   1416 F5                 5974 	push	af
   1417 33                 5975 	inc	sp
                           5976 ; genCall
   1418 CD 00 00           5977 	call	__muluchar
   141B 4B                 5978 	ld	c,e
   141C E8 02              5979 	lda	sp,2(sp)
                           5980 ; genPlus
   141E 3E 02              5981 	ld	a,#<_bandits
   1420 81                 5982 	add	a,c
   1421 4F                 5983 	ld	c,a
   1422 3E 00              5984 	ld	a,#>_bandits
   1424 CE 00              5985 	adc	a,#0x00
   1426 47                 5986 	ld	b,a
                           5987 ; genPlus
                           5988 ; genPlusIncr
   1427 79                 5989 	ld	a,c
   1428 C6 0B              5990 	add	a,#0x0B
   142A 5F                 5991 	ld	e,a
   142B 78                 5992 	ld	a,b
   142C CE 00              5993 	adc	a,#0x00
   142E 57                 5994 	ld	d,a
                           5995 ; genAssign (pointer)
   142F 3E 01              5996 	ld	a,#0x01
   1431 12                 5997 	ld	(de),a
                           5998 ;	game.c 665
                           5999 ; genPlus
                           6000 ; genPlusIncr
   1432 79                 6001 	ld	a,c
   1433 C6 0A              6002 	add	a,#0x0A
   1435 5F                 6003 	ld	e,a
   1436 78                 6004 	ld	a,b
   1437 CE 00              6005 	adc	a,#0x00
   1439 57                 6006 	ld	d,a
                           6007 ; genAssign (pointer)
   143A 3E 00              6008 	ld	a,#0x00
   143C 12                 6009 	ld	(de),a
                           6010 ;	game.c 667
                           6011 ; genPlus
                           6012 ; AOP_STK for _BanditAttack_sloc1_1_0
                           6013 ; genPlusIncr
   143D 79                 6014 	ld	a,c
   143E C6 08              6015 	add	a,#0x08
   1440 F8 00              6016 	lda	hl,0(sp)
   1442 77                 6017 	ld	(hl),a ; 3
   1443 78                 6018 	ld	a,b
   1444 CE 00              6019 	adc	a,#0x00
   1446 23                 6020 	inc	hl
   1447 77                 6021 	ld	(hl),a ; 3
                           6022 ; genPointerGet
                           6023 ; AOP_STK for _BanditAttack_sloc1_1_0
                           6024 ; AOP_STK for _BanditAttack_sloc0_1_0
   1448 2B                 6025 	dec	hl
   1449 5E                 6026 	ld	e,(hl)
   144A 23                 6027 	inc	hl
   144B 56                 6028 	ld	d,(hl)
   144C 1A                 6029 	ld	a,(de)
   144D 23                 6030 	inc	hl
   144E 77                 6031 	ld	(hl),a ; 3
                           6032 ; genRightShift
                           6033 ; AOP_HL for _MAX_TIMER
                           6034 ; shift right 	result 1, left 1
   144F 21 00 00           6035 	ld	hl,#_MAX_TIMER + 0
   1452 4E                 6036 	ld	c,(hl)
   1453 CB 39              6037 	srl	c
                           6038 ; genCmpLt
                           6039 ; AOP_STK for _BanditAttack_sloc0_1_0
   1455 AF                 6040 	xor	a,a
   1456 F8 02              6041 	lda	hl,2(sp)
   1458 7E                 6042 	ld	a,(hl)
   1459 99                 6043 	sbc	a,c ; 2
   145A 3E 00              6044 	ld	a,#0x00
   145C 17                 6045 	rla
   145D 4F                 6046 	ld	c,a
                           6047 ; genIfx
                           6048 ; Removed redundent or a,a
   145E AF                 6049 	xor	a,a
   145F B1                 6050 	or	a,c
   1460 C2 7D 14           6051 	jp	nz,00107$
                           6052 ;	game.c 668
                           6053 ; genPlus
                           6054 ; AOP_STK for 
                           6055 ; genPlusIncr
   1463 F8 07              6056 	lda	hl,7(sp)
   1465 7E                 6057 	ld	a,(hl)
   1466 C6 01              6058 	add	a,#0x01
   1468 47                 6059 	ld	b,a
                           6060 ; genIpush
                           6061 ; AOP_STK for 
   1469 23                 6062 	inc	hl
   146A 23                 6063 	inc	hl
   146B 7E                 6064 	ld	a,(hl)
   146C F5                 6065 	push	af
   146D 33                 6066 	inc	sp
                           6067 ; genIpush
                           6068 ; AOP_STK for 
   146E 2B                 6069 	dec	hl
   146F 7E                 6070 	ld	a,(hl)
   1470 F5                 6071 	push	af
   1471 33                 6072 	inc	sp
                           6073 ; genIpush
   1472 78                 6074 	ld	a,b
   1473 F5                 6075 	push	af
   1474 33                 6076 	inc	sp
                           6077 ; genCall
   1475 CD 28 11           6078 	call	_drawBanditAttack1
   1478 E8 03              6079 	lda	sp,3(sp)
                           6080 ; genGoto
   147A C3 B3 14           6081 	jp	00108$
                           6082 ; genLabel
   147D                    6083 00107$:
                           6084 ;	game.c 669
                           6085 ; genCmpLt
                           6086 ; AOP_STK for _BanditAttack_sloc0_1_0
   147D F8 02              6087 	lda	hl,2(sp)
   147F 7E                 6088 	ld	a,(hl)
   1480 FE 00              6089 	cp	#0x00
   1482 DA B3 14           6090 	jp	c,00108$
                           6091 ; genIfx
                           6092 ; Removed redundent or a,a
   1485 AF                 6093 	xor	a,a
   1486 B1                 6094 	or	a,c
   1487 CA B3 14           6095 	jp	z,00108$
                           6096 ;	game.c 670
                           6097 ; genPlus
                           6098 ; AOP_STK for 
                           6099 ; genPlusIncr
   148A F8 07              6100 	lda	hl,7(sp)
   148C 7E                 6101 	ld	a,(hl)
   148D C6 01              6102 	add	a,#0x01
   148F 4F                 6103 	ld	c,a
                           6104 ; genIpush
                           6105 ; AOP_STK for 
   1490 23                 6106 	inc	hl
   1491 23                 6107 	inc	hl
   1492 7E                 6108 	ld	a,(hl)
   1493 F5                 6109 	push	af
   1494 33                 6110 	inc	sp
                           6111 ; genIpush
                           6112 ; AOP_STK for 
   1495 2B                 6113 	dec	hl
   1496 7E                 6114 	ld	a,(hl)
   1497 F5                 6115 	push	af
   1498 33                 6116 	inc	sp
                           6117 ; genIpush
   1499 79                 6118 	ld	a,c
   149A F5                 6119 	push	af
   149B 33                 6120 	inc	sp
                           6121 ; genCall
   149C CD DB 11           6122 	call	_drawBanditAttack2
   149F E8 03              6123 	lda	sp,3(sp)
                           6124 ;	game.c 671
                           6125 ; genCmpEq
                           6126 ; AOP_HL for _isHurt
   14A1 21 3C 00           6127 	ld	hl,#_isHurt + 0
   14A4 7E                 6128 	ld	a,(hl)
   14A5 B7                 6129 	or	a,a
   14A6 C2 AB 14           6130 	jp	nz,00118$
   14A9 18 03              6131 	jr	00119$
   14AB                    6132 00118$:
   14AB C3 B3 14           6133 	jp	00108$
   14AE                    6134 00119$:
                           6135 ;	game.c 672
                           6136 ; genAssign
                           6137 ; AOP_HL for _isHurt
   14AE 21 3C 00           6138 	ld	hl,#_isHurt + 0
   14B1 36 01              6139 	ld	(hl),#0x01
                           6140 ; genLabel
   14B3                    6141 00108$:
                           6142 ;	game.c 680
                           6143 ; genMinus
                           6144 ; AOP_STK for _BanditAttack_sloc0_1_0
   14B3 F8 02              6145 	lda	hl,2(sp)
   14B5 7E                 6146 	ld	a,(hl)
   14B6 C6 FF              6147 	add	a,#0xFF
   14B8 4F                 6148 	ld	c,a
                           6149 ; genAssign (pointer)
                           6150 ; AOP_STK for _BanditAttack_sloc1_1_0
   14B9 2B                 6151 	dec	hl
   14BA 2B                 6152 	dec	hl
   14BB 5E                 6153 	ld	e,(hl)
   14BC 23                 6154 	inc	hl
   14BD 56                 6155 	ld	d,(hl)
   14BE 79                 6156 	ld	a,c
   14BF 12                 6157 	ld	(de),a
                           6158 ;	game.c 682
                           6159 ; genCmpGt
   14C0 AF                 6160 	xor	a,a
   14C1 3E 00              6161 	ld	a,#0x00
   14C3 99                 6162 	sbc	a,c ; 2
   14C4 DA D0 14           6163 	jp	c,00111$
                           6164 ;	game.c 684
                           6165 ; genAssign (pointer)
                           6166 ; AOP_STK for _BanditAttack_sloc1_1_0
                           6167 ; AOP_HL for _MAX_TIMER
   14C7 2B                 6168 	dec	hl
   14C8 5E                 6169 	ld	e,(hl)
   14C9 23                 6170 	inc	hl
   14CA 56                 6171 	ld	d,(hl)
   14CB 21 00 00           6172 	ld	hl,#_MAX_TIMER + 0
   14CE 7E                 6173 	ld	a,(hl)
   14CF 12                 6174 	ld	(de),a
                           6175 ; genLabel
   14D0                    6176 00111$:
                           6177 ; genEndFunction
   14D0 E8 03              6178 	lda	sp,3(sp)
   14D2 C1                 6179 	pop bc
   14D3 C9                 6180 	ret
   14D4                    6181 ___BanditAttack_end:
                           6182 ;	game.c 689
                           6183 ; genLabel
                           6184 ; genFunction
                           6185 ;	---------------------------------
                           6186 ; Function BanditDie
                           6187 ; ---------------------------------
   14D4                    6188 ___BanditDie_start:
   14D4                    6189 _BanditDie:
   14D4 C5                 6190 	push	bc
   14D5 E8 FA              6191 	lda sp,-6(sp)
                           6192 ;	game.c 690
                           6193 ; genIpush
   14D7 3E 0E              6194 	ld	a,#0x0E
   14D9 F5                 6195 	push	af
   14DA 33                 6196 	inc	sp
                           6197 ; genIpush
                           6198 ; AOP_STK for 
   14DB F8 0B              6199 	lda	hl,11(sp)
   14DD 7E                 6200 	ld	a,(hl)
   14DE F5                 6201 	push	af
   14DF 33                 6202 	inc	sp
                           6203 ; genCall
   14E0 CD 00 00           6204 	call	__muluchar
   14E3 4B                 6205 	ld	c,e
   14E4 E8 02              6206 	lda	sp,2(sp)
                           6207 ; genPlus
                           6208 ; AOP_STK for _BanditDie_sloc0_1_0
   14E6 3E 02              6209 	ld	a,#<_bandits
   14E8 81                 6210 	add	a,c
   14E9 F8 04              6211 	lda	hl,4(sp)
   14EB 77                 6212 	ld	(hl),a ; 3
   14EC 3E 00              6213 	ld	a,#>_bandits
   14EE CE 00              6214 	adc	a,#0x00
   14F0 23                 6215 	inc	hl
   14F1 77                 6216 	ld	(hl),a ; 3
                           6217 ; genPlus
                           6218 ; AOP_STK for _BanditDie_sloc0_1_0
                           6219 ; genPlusIncr
   14F2 2B                 6220 	dec	hl
   14F3 7E                 6221 	ld	a,(hl)
   14F4 C6 0C              6222 	add	a,#0x0C
   14F6 5F                 6223 	ld	e,a
   14F7 23                 6224 	inc	hl
   14F8 7E                 6225 	ld	a,(hl)
   14F9 CE 00              6226 	adc	a,#0x00
   14FB 57                 6227 	ld	d,a
                           6228 ; genAssign (pointer)
   14FC 3E 01              6229 	ld	a,#0x01
   14FE 12                 6230 	ld	(de),a
                           6231 ;	game.c 691
                           6232 ; genPlus
                           6233 ; AOP_STK for _BanditDie_sloc0_1_0
                           6234 ; genPlusIncr
   14FF 2B                 6235 	dec	hl
   1500 7E                 6236 	ld	a,(hl)
   1501 C6 0A              6237 	add	a,#0x0A
   1503 5F                 6238 	ld	e,a
   1504 23                 6239 	inc	hl
   1505 7E                 6240 	ld	a,(hl)
   1506 CE 00              6241 	adc	a,#0x00
   1508 57                 6242 	ld	d,a
                           6243 ; genAssign (pointer)
   1509 3E 00              6244 	ld	a,#0x00
   150B 12                 6245 	ld	(de),a
                           6246 ;	game.c 692
                           6247 ; genPlus
                           6248 ; AOP_STK for _BanditDie_sloc0_1_0
                           6249 ; genPlusIncr
   150C 2B                 6250 	dec	hl
   150D 7E                 6251 	ld	a,(hl)
   150E C6 0B              6252 	add	a,#0x0B
   1510 5F                 6253 	ld	e,a
   1511 23                 6254 	inc	hl
   1512 7E                 6255 	ld	a,(hl)
   1513 CE 00              6256 	adc	a,#0x00
   1515 57                 6257 	ld	d,a
                           6258 ; genAssign (pointer)
   1516 3E 00              6259 	ld	a,#0x00
   1518 12                 6260 	ld	(de),a
                           6261 ;	game.c 695
                           6262 ; genPlus
                           6263 ; AOP_STK for 
                           6264 ; AOP_STK for _BanditDie_sloc1_1_0
                           6265 ; genPlusIncr
   1519 F8 0A              6266 	lda	hl,10(sp)
   151B 7E                 6267 	ld	a,(hl)
   151C C6 01              6268 	add	a,#0x01
   151E F8 03              6269 	lda	hl,3(sp)
   1520 77                 6270 	ld	(hl),a ; 3
                           6271 ; genIpush
                           6272 ; AOP_STK for 
   1521 F8 0C              6273 	lda	hl,12(sp)
   1523 7E                 6274 	ld	a,(hl)
   1524 F5                 6275 	push	af
   1525 33                 6276 	inc	sp
                           6277 ; genIpush
                           6278 ; AOP_STK for 
   1526 2B                 6279 	dec	hl
   1527 7E                 6280 	ld	a,(hl)
   1528 F5                 6281 	push	af
   1529 33                 6282 	inc	sp
                           6283 ; genIpush
                           6284 ; AOP_STK for _BanditDie_sloc1_1_0
   152A F8 05              6285 	lda	hl,5(sp)
   152C 7E                 6286 	ld	a,(hl)
   152D F5                 6287 	push	af
   152E 33                 6288 	inc	sp
                           6289 ; genCall
   152F CD 8E 12           6290 	call	_drawBanditDead
   1532 E8 03              6291 	lda	sp,3(sp)
                           6292 ;	game.c 699
                           6293 ; genPlus
                           6294 ; AOP_STK for _BanditDie_sloc0_1_0
                           6295 ; AOP_STK for _BanditDie_sloc3_1_0
                           6296 ; genPlusIncr
   1534 F8 04              6297 	lda	hl,4(sp)
   1536 7E                 6298 	ld	a,(hl)
   1537 C6 09              6299 	add	a,#0x09
   1539 F8 00              6300 	lda	hl,0(sp)
   153B 77                 6301 	ld	(hl),a ; 3
   153C F8 05              6302 	lda	hl,5(sp)
   153E 7E                 6303 	ld	a,(hl)
   153F CE 00              6304 	adc	a,#0x00
   1541 F8 01              6305 	lda	hl,1(sp)
   1543 77                 6306 	ld	(hl),a ; 3
                           6307 ; genPointerGet
                           6308 ; AOP_STK for _BanditDie_sloc3_1_0
                           6309 ; AOP_STK for _BanditDie_sloc2_1_0
   1544 2B                 6310 	dec	hl
   1545 5E                 6311 	ld	e,(hl)
   1546 23                 6312 	inc	hl
   1547 56                 6313 	ld	d,(hl)
   1548 1A                 6314 	ld	a,(de)
   1549 23                 6315 	inc	hl
   154A 77                 6316 	ld	(hl),a ; 3
                           6317 ; genMinus
                           6318 ; AOP_STK for _BanditDie_sloc2_1_0
   154B 7E                 6319 	ld	a,(hl)
   154C C6 FF              6320 	add	a,#0xFF
   154E 4F                 6321 	ld	c,a
                           6322 ; genAssign (pointer)
                           6323 ; AOP_STK for _BanditDie_sloc3_1_0
   154F 2B                 6324 	dec	hl
   1550 2B                 6325 	dec	hl
   1551 5E                 6326 	ld	e,(hl)
   1552 23                 6327 	inc	hl
   1553 56                 6328 	ld	d,(hl)
   1554 79                 6329 	ld	a,c
   1555 12                 6330 	ld	(de),a
                           6331 ;	game.c 701
                           6332 ; genCmpGt
   1556 AF                 6333 	xor	a,a
   1557 3E 00              6334 	ld	a,#0x00
   1559 99                 6335 	sbc	a,c ; 2
   155A DA 80 15           6336 	jp	c,00103$
                           6337 ;	game.c 702
                           6338 ; genAssign (pointer)
                           6339 ; AOP_STK for _BanditDie_sloc3_1_0
                           6340 ; AOP_HL for _MAX_TIMER
   155D 2B                 6341 	dec	hl
   155E 5E                 6342 	ld	e,(hl)
   155F 23                 6343 	inc	hl
   1560 56                 6344 	ld	d,(hl)
   1561 21 00 00           6345 	ld	hl,#_MAX_TIMER + 0
   1564 7E                 6346 	ld	a,(hl)
   1565 12                 6347 	ld	(de),a
                           6348 ;	game.c 703
                           6349 ; genIpush
   1566 3E FB              6350 	ld	a,#0xFB
   1568 F5                 6351 	push	af
   1569 33                 6352 	inc	sp
                           6353 ; genIpush
   156A 3E FB              6354 	ld	a,#0xFB
   156C F5                 6355 	push	af
   156D 33                 6356 	inc	sp
                           6357 ; genIpush
                           6358 ; AOP_STK for _BanditDie_sloc1_1_0
   156E F8 05              6359 	lda	hl,5(sp)
   1570 7E                 6360 	ld	a,(hl)
   1571 F5                 6361 	push	af
   1572 33                 6362 	inc	sp
                           6363 ; genCall
   1573 CD 8E 12           6364 	call	_drawBanditDead
   1576 E8 03              6365 	lda	sp,3(sp)
                           6366 ;	game.c 704
                           6367 ; genAssign (pointer)
                           6368 ; AOP_STK for _BanditDie_sloc0_1_0
   1578 F8 04              6369 	lda	hl,4(sp)
   157A 5E                 6370 	ld	e,(hl)
   157B 23                 6371 	inc	hl
   157C 56                 6372 	ld	d,(hl)
   157D 3E 00              6373 	ld	a,#0x00
   157F 12                 6374 	ld	(de),a
                           6375 ; genLabel
   1580                    6376 00103$:
                           6377 ; genEndFunction
   1580 E8 06              6378 	lda	sp,6(sp)
   1582 C1                 6379 	pop bc
   1583 C9                 6380 	ret
   1584                    6381 ___BanditDie_end:
                           6382 ;	game.c 710
                           6383 ; genLabel
                           6384 ; genFunction
                           6385 ;	---------------------------------
                           6386 ; Function JudgeDoHurt
                           6387 ; ---------------------------------
   1584                    6388 ___JudgeDoHurt_start:
   1584                    6389 _JudgeDoHurt:
   1584 C5                 6390 	push	bc
                           6391 ;	game.c 711
                           6392 ; genAssign
                           6393 ; AOP_HL for _isHurt
   1585 21 3C 00           6394 	ld	hl,#_isHurt + 0
   1588 36 01              6395 	ld	(hl),#0x01
                           6396 ;	game.c 714
                           6397 ; genCmpEq
                           6398 ; AOP_HL for _isAttacking
   158A 21 3B 00           6399 	ld	hl,#_isAttacking + 0
   158D 7E                 6400 	ld	a,(hl)
   158E B7                 6401 	or	a,a
   158F C2 94 15           6402 	jp	nz,00109$
   1592 18 03              6403 	jr	00110$
   1594                    6404 00109$:
   1594 C3 9A 15           6405 	jp	00102$
   1597                    6406 00110$:
                           6407 ;	game.c 715
                           6408 ; genCall
   1597 CD D7 0C           6409 	call	_drawJudgeHurt
                           6410 ; genLabel
   159A                    6411 00102$:
                           6412 ;	game.c 719
                           6413 ; genMinus
                           6414 ; AOP_HL for _TimerAnimationHurt
   159A 21 38 00           6415 	ld	hl,#_TimerAnimationHurt + 0
   159D 35                 6416 	dec	(hl)
                           6417 ;	game.c 721
                           6418 ; genCmpGt
                           6419 ; AOP_HL for _TimerAnimationHurt
   159E AF                 6420 	xor	a,a
   159F 3E 00              6421 	ld	a,#0x00
   15A1 9E                 6422 	sbc	a,(hl) ; 2
   15A2 DA C2 15           6423 	jp	c,00105$
                           6424 ;	game.c 722
                           6425 ; genRightShift
                           6426 ; AOP_HL for _MAX_TIMER
                           6427 ; AOP_HL for _TimerAnimationHurt
                           6428 ; shift right 	result 1, left 1
   15A5 21 00 00           6429 	ld	hl,#_MAX_TIMER + 0
   15A8 7E                 6430 	ld	a,(hl)
   15A9 CB 3F              6431 	srl	a
   15AB 21 38 00           6432 	ld	hl,#_TimerAnimationHurt + 0
   15AE 77                 6433 	ld	(hl),a
                           6434 ;	game.c 723
                           6435 ; genAssign
                           6436 ; AOP_HL for _isHurt
   15AF 21 3C 00           6437 	ld	hl,#_isHurt + 0
   15B2 36 00              6438 	ld	(hl),#0x00
                           6439 ;	game.c 724
                           6440 ; genMinus
                           6441 ; AOP_HL for _JudgePV
   15B4 21 34 00           6442 	ld	hl,#_JudgePV + 0
   15B7 35                 6443 	dec	(hl)
                           6444 ;	game.c 725
                           6445 ; genMinus
                           6446 ; AOP_HL for _posXJudge
   15B8 21 2E 00           6447 	ld	hl,#_posXJudge + 0
   15BB 7E                 6448 	ld	a,(hl)
   15BC C6 F8              6449 	add	a,#0xF8
   15BE 77                 6450 	ld	(hl),a
                           6451 ;	game.c 726
                           6452 ; genCall
   15BF CD D7 0C           6453 	call	_drawJudgeHurt
                           6454 ; genLabel
   15C2                    6455 00105$:
                           6456 ; genEndFunction
   15C2 C1                 6457 	pop	bc
   15C3 C9                 6458 	ret
   15C4                    6459 ___JudgeDoHurt_end:
                           6460 ;	game.c 732
                           6461 ; genLabel
                           6462 ; genFunction
                           6463 ;	---------------------------------
                           6464 ; Function JudgeWalk
                           6465 ; ---------------------------------
   15C4                    6466 ___JudgeWalk_start:
   15C4                    6467 _JudgeWalk:
   15C4 C5                 6468 	push	bc
                           6469 ;	game.c 735
                           6470 ; genAssign
                           6471 ; AOP_HL for _isWalking
   15C5 21 3A 00           6472 	ld	hl,#_isWalking + 0
   15C8 36 01              6473 	ld	(hl),#0x01
                           6474 ;	game.c 737
                           6475 ; genCmpEq
                           6476 ; AOP_HL for _isAttacking
   15CA 21 3B 00           6477 	ld	hl,#_isAttacking + 0
   15CD 7E                 6478 	ld	a,(hl)
   15CE B7                 6479 	or	a,a
   15CF C2 D4 15           6480 	jp	nz,00120$
   15D2 18 03              6481 	jr	00121$
   15D4                    6482 00120$:
   15D4 C3 23 16           6483 	jp	00112$
   15D7                    6484 00121$:
                           6485 ; genCmpEq
                           6486 ; AOP_HL for _isHurt
   15D7 21 3C 00           6487 	ld	hl,#_isHurt + 0
   15DA 7E                 6488 	ld	a,(hl)
   15DB B7                 6489 	or	a,a
   15DC C2 E1 15           6490 	jp	nz,00122$
   15DF 18 03              6491 	jr	00123$
   15E1                    6492 00122$:
   15E1 C3 23 16           6493 	jp	00112$
   15E4                    6494 00123$:
                           6495 ;	game.c 738
                           6496 ; genRightShift
                           6497 ; AOP_HL for _MAX_TIMER
                           6498 ; shift right 	result 1, left 1
   15E4 21 00 00           6499 	ld	hl,#_MAX_TIMER + 0
   15E7 4E                 6500 	ld	c,(hl)
   15E8 CB 39              6501 	srl	c
                           6502 ; genCmpLt
                           6503 ; AOP_HL for _TimerAnimationWalk
   15EA AF                 6504 	xor	a,a
   15EB 21 35 00           6505 	ld	hl,#_TimerAnimationWalk + 0
   15EE 7E                 6506 	ld	a,(hl)
   15EF 99                 6507 	sbc	a,c ; 2
   15F0 3E 00              6508 	ld	a,#0x00
   15F2 17                 6509 	rla
   15F3 4F                 6510 	ld	c,a
                           6511 ; genIfx
                           6512 ; Removed redundent or a,a
   15F4 AF                 6513 	xor	a,a
   15F5 B1                 6514 	or	a,c
   15F6 C2 FF 15           6515 	jp	nz,00105$
                           6516 ;	game.c 739
                           6517 ; genCall
   15F9 CD 82 08           6518 	call	_drawJudgeWalk1
                           6519 ; genGoto
   15FC C3 10 16           6520 	jp	00106$
                           6521 ; genLabel
   15FF                    6522 00105$:
                           6523 ;	game.c 740
                           6524 ; genCmpLt
                           6525 ; AOP_HL for _TimerAnimationWalk
   15FF 21 35 00           6526 	ld	hl,#_TimerAnimationWalk + 0
   1602 7E                 6527 	ld	a,(hl)
   1603 FE 00              6528 	cp	#0x00
   1605 DA 10 16           6529 	jp	c,00106$
                           6530 ; genIfx
                           6531 ; Removed redundent or a,a
   1608 AF                 6532 	xor	a,a
   1609 B1                 6533 	or	a,c
   160A CA 10 16           6534 	jp	z,00106$
                           6535 ;	game.c 741
                           6536 ; genCall
   160D CD B9 0A           6537 	call	_drawJudgeWalk2
                           6538 ; genLabel
   1610                    6539 00106$:
                           6540 ;	game.c 744
                           6541 ; genMinus
                           6542 ; AOP_HL for _TimerAnimationWalk
   1610 21 35 00           6543 	ld	hl,#_TimerAnimationWalk + 0
   1613 35                 6544 	dec	(hl)
                           6545 ;	game.c 746
                           6546 ; genCmpGt
                           6547 ; AOP_HL for _TimerAnimationWalk
   1614 AF                 6548 	xor	a,a
   1615 3E 00              6549 	ld	a,#0x00
   1617 9E                 6550 	sbc	a,(hl) ; 2
   1618 DA 23 16           6551 	jp	c,00112$
                           6552 ;	game.c 748
                           6553 ; genAssign
                           6554 ; AOP_HL for _MAX_TIMER
                           6555 ; AOP_HL for _TimerAnimationWalk
   161B 21 00 00           6556 	ld	hl,#_MAX_TIMER + 0
   161E 7E                 6557 	ld	a,(hl)
   161F 21 35 00           6558 	ld	hl,#_TimerAnimationWalk + 0
   1622 77                 6559 	ld	(hl),a
                           6560 ; genLabel
   1623                    6561 00112$:
                           6562 ; genEndFunction
   1623 C1                 6563 	pop	bc
   1624 C9                 6564 	ret
   1625                    6565 ___JudgeWalk_end:
                           6566 ;	game.c 755
                           6567 ; genLabel
                           6568 ; genFunction
                           6569 ;	---------------------------------
                           6570 ; Function JudgeGroundAttack
                           6571 ; ---------------------------------
   1625                    6572 ___JudgeGroundAttack_start:
   1625                    6573 _JudgeGroundAttack:
   1625 C5                 6574 	push	bc
                           6575 ;	game.c 756
                           6576 ; genAssign
                           6577 ; AOP_HL for _isAttacking
   1626 21 3B 00           6578 	ld	hl,#_isAttacking + 0
   1629 36 01              6579 	ld	(hl),#0x01
                           6580 ;	game.c 758
                           6581 ; genRightShift
                           6582 ; AOP_HL for _MAX_TIMER
                           6583 ; shift right 	result 1, left 1
   162B 21 00 00           6584 	ld	hl,#_MAX_TIMER + 0
   162E 4E                 6585 	ld	c,(hl)
   162F CB 39              6586 	srl	c
                           6587 ; genCmpLt
                           6588 ; AOP_HL for _TimerAnimationAttack
   1631 AF                 6589 	xor	a,a
   1632 21 37 00           6590 	ld	hl,#_TimerAnimationAttack + 0
   1635 7E                 6591 	ld	a,(hl)
   1636 99                 6592 	sbc	a,c ; 2
   1637 3E 00              6593 	ld	a,#0x00
   1639 17                 6594 	rla
   163A 4F                 6595 	ld	c,a
                           6596 ; genIfx
                           6597 ; Removed redundent or a,a
   163B AF                 6598 	xor	a,a
   163C B1                 6599 	or	a,c
   163D C2 46 16           6600 	jp	nz,00105$
                           6601 ;	game.c 759
                           6602 ; genCall
   1640 CD BD 01           6603 	call	_drawJudgeAttack1
                           6604 ; genGoto
   1643 C3 5A 16           6605 	jp	00106$
                           6606 ; genLabel
   1646                    6607 00105$:
                           6608 ;	game.c 760
                           6609 ; genCmpLt
                           6610 ; AOP_HL for _TimerAnimationAttack
   1646 21 37 00           6611 	ld	hl,#_TimerAnimationAttack + 0
   1649 7E                 6612 	ld	a,(hl)
   164A FE 00              6613 	cp	#0x00
   164C DA 5A 16           6614 	jp	c,00106$
                           6615 ; genIfx
                           6616 ; Removed redundent or a,a
   164F AF                 6617 	xor	a,a
   1650 B1                 6618 	or	a,c
   1651 CA 5A 16           6619 	jp	z,00106$
                           6620 ;	game.c 761
                           6621 ; genCall
   1654 CD 01 04           6622 	call	_drawJudgeAttack2
                           6623 ;	game.c 762
                           6624 ; genCall
   1657 CD F2 1D           6625 	call	_checkColliderHammerAttack
                           6626 ; genLabel
   165A                    6627 00106$:
                           6628 ;	game.c 765
                           6629 ; genMinus
                           6630 ; AOP_HL for _TimerAnimationAttack
   165A 21 37 00           6631 	ld	hl,#_TimerAnimationAttack + 0
   165D 35                 6632 	dec	(hl)
                           6633 ;	game.c 767
                           6634 ; genCmpGt
                           6635 ; AOP_HL for _TimerAnimationAttack
   165E AF                 6636 	xor	a,a
   165F 3E 00              6637 	ld	a,#0x00
   1661 9E                 6638 	sbc	a,(hl) ; 2
   1662 DA 72 16           6639 	jp	c,00109$
                           6640 ;	game.c 769
                           6641 ; genAssign
                           6642 ; AOP_HL for _MAX_TIMER
                           6643 ; AOP_HL for _TimerAnimationAttack
   1665 21 00 00           6644 	ld	hl,#_MAX_TIMER + 0
   1668 7E                 6645 	ld	a,(hl)
   1669 21 37 00           6646 	ld	hl,#_TimerAnimationAttack + 0
   166C 77                 6647 	ld	(hl),a
                           6648 ;	game.c 770
                           6649 ; genAssign
                           6650 ; AOP_HL for _isAttacking
   166D 21 3B 00           6651 	ld	hl,#_isAttacking + 0
   1670 36 00              6652 	ld	(hl),#0x00
                           6653 ; genLabel
   1672                    6654 00109$:
                           6655 ; genEndFunction
   1672 C1                 6656 	pop	bc
   1673 C9                 6657 	ret
   1674                    6658 ___JudgeGroundAttack_end:
                           6659 ;	game.c 776
                           6660 ; genLabel
                           6661 ; genFunction
                           6662 ;	---------------------------------
                           6663 ; Function JudgeSendSentence
                           6664 ; ---------------------------------
   1674                    6665 ___JudgeSendSentence_start:
   1674                    6666 _JudgeSendSentence:
   1674 C5                 6667 	push	bc
                           6668 ;	game.c 777
                           6669 ; genCall
   1675 CD 23 00           6670 	call	_drawjudgeShockWave
                           6671 ; genLabel
   1678                    6672 00101$:
                           6673 ; genEndFunction
   1678 C1                 6674 	pop	bc
   1679 C9                 6675 	ret
   167A                    6676 ___JudgeSendSentence_end:
                           6677 ;	game.c 781
                           6678 ; genLabel
                           6679 ; genFunction
                           6680 ;	---------------------------------
                           6681 ; Function initBandits
                           6682 ; ---------------------------------
   167A                    6683 ___initBandits_start:
   167A                    6684 _initBandits:
   167A C5                 6685 	push	bc
   167B E8 FE              6686 	lda sp,-2(sp)
                           6687 ;	game.c 783
                           6688 ; genAssign
                           6689 ; AOP_HL for _i
   167D 21 3D 00           6690 	ld	hl,#_i + 0
   1680 36 00              6691 	ld	(hl),#0x00
                           6692 ; genLabel
   1682                    6693 00101$:
                           6694 ; genCmpLt
                           6695 ; AOP_HL for _i
   1682 21 3D 00           6696 	ld	hl,#_i + 0
   1685 7E                 6697 	ld	a,(hl)
   1686 FE 03              6698 	cp	#0x03
   1688 D2 55 17           6699 	jp	nc,00105$
                           6700 ;	game.c 784
                           6701 ; genIpush
   168B 3E 0E              6702 	ld	a,#0x0E
   168D F5                 6703 	push	af
   168E 33                 6704 	inc	sp
                           6705 ; genIpush
                           6706 ; AOP_HL for _i
   168F 7E                 6707 	ld	a,(hl)
   1690 F5                 6708 	push	af
   1691 33                 6709 	inc	sp
                           6710 ; genCall
   1692 CD 00 00           6711 	call	__muluchar
   1695 4B                 6712 	ld	c,e
   1696 E8 02              6713 	lda	sp,2(sp)
                           6714 ; genPlus
                           6715 ; AOP_STK for _initBandits_sloc0_1_0
   1698 3E 02              6716 	ld	a,#<_bandits
   169A 81                 6717 	add	a,c
   169B F8 00              6718 	lda	hl,0(sp)
   169D 77                 6719 	ld	(hl),a ; 3
   169E 3E 00              6720 	ld	a,#>_bandits
   16A0 CE 00              6721 	adc	a,#0x00
   16A2 23                 6722 	inc	hl
   16A3 77                 6723 	ld	(hl),a ; 3
                           6724 ; genAssign (pointer)
                           6725 ; AOP_STK for _initBandits_sloc0_1_0
   16A4 2B                 6726 	dec	hl
   16A5 5E                 6727 	ld	e,(hl)
   16A6 23                 6728 	inc	hl
   16A7 56                 6729 	ld	d,(hl)
   16A8 3E 00              6730 	ld	a,#0x00
   16AA 12                 6731 	ld	(de),a
                           6732 ;	game.c 785
                           6733 ; genPlus
                           6734 ; AOP_STK for _initBandits_sloc0_1_0
                           6735 ; genPlusIncr
   16AB 2B                 6736 	dec	hl
   16AC 7E                 6737 	ld	a,(hl)
   16AD C6 03              6738 	add	a,#0x03
   16AF 5F                 6739 	ld	e,a
   16B0 23                 6740 	inc	hl
   16B1 7E                 6741 	ld	a,(hl)
   16B2 CE 00              6742 	adc	a,#0x00
   16B4 57                 6743 	ld	d,a
                           6744 ; genAssign (pointer)
   16B5 3E 01              6745 	ld	a,#0x01
   16B7 12                 6746 	ld	(de),a
                           6747 ;	game.c 786
                           6748 ; genPlus
                           6749 ; AOP_STK for _initBandits_sloc0_1_0
                           6750 ; genPlusIncr
   16B8 2B                 6751 	dec	hl
   16B9 7E                 6752 	ld	a,(hl)
   16BA C6 04              6753 	add	a,#0x04
   16BC 5F                 6754 	ld	e,a
   16BD 23                 6755 	inc	hl
   16BE 7E                 6756 	ld	a,(hl)
   16BF CE 00              6757 	adc	a,#0x00
   16C1 57                 6758 	ld	d,a
                           6759 ; genAssign (pointer)
   16C2 3E 01              6760 	ld	a,#0x01
   16C4 12                 6761 	ld	(de),a
                           6762 ;	game.c 787
                           6763 ; genPlus
                           6764 ; AOP_STK for _initBandits_sloc0_1_0
                           6765 ; genPlusIncr
   16C5 2B                 6766 	dec	hl
   16C6 5E                 6767 	ld	e,(hl)
   16C7 23                 6768 	inc	hl
   16C8 56                 6769 	ld	d,(hl)
   16C9 13                 6770 	inc	de
                           6771 ; genAssign (pointer)
   16CA 3E FB              6772 	ld	a,#0xFB
   16CC 12                 6773 	ld	(de),a
                           6774 ;	game.c 788
                           6775 ; genPlus
                           6776 ; AOP_STK for _initBandits_sloc0_1_0
                           6777 ; genPlusIncr
   16CD 2B                 6778 	dec	hl
   16CE 5E                 6779 	ld	e,(hl)
   16CF 23                 6780 	inc	hl
   16D0 56                 6781 	ld	d,(hl)
   16D1 13                 6782 	inc	de
   16D2 13                 6783 	inc	de
                           6784 ; genAssign (pointer)
   16D3 3E FB              6785 	ld	a,#0xFB
   16D5 12                 6786 	ld	(de),a
                           6787 ;	game.c 789
                           6788 ; genPlus
                           6789 ; AOP_STK for _initBandits_sloc0_1_0
                           6790 ; genPlusIncr
   16D6 2B                 6791 	dec	hl
   16D7 7E                 6792 	ld	a,(hl)
   16D8 C6 05              6793 	add	a,#0x05
   16DA 5F                 6794 	ld	e,a
   16DB 23                 6795 	inc	hl
   16DC 7E                 6796 	ld	a,(hl)
   16DD CE 00              6797 	adc	a,#0x00
   16DF 57                 6798 	ld	d,a
                           6799 ; genPlus
                           6800 ; AOP_HL for _i
                           6801 ; genPlusIncr
   16E0 21 3D 00           6802 	ld	hl,#_i + 0
   16E3 7E                 6803 	ld	a,(hl)
   16E4 C6 01              6804 	add	a,#0x01
   16E6 4F                 6805 	ld	c,a
                           6806 ; genAssign (pointer)
   16E7 79                 6807 	ld	a,c
   16E8 12                 6808 	ld	(de),a
                           6809 ;	game.c 790
                           6810 ; genPlus
                           6811 ; AOP_STK for _initBandits_sloc0_1_0
                           6812 ; genPlusIncr
   16E9 F8 00              6813 	lda	hl,0(sp)
   16EB 7E                 6814 	ld	a,(hl)
   16EC C6 06              6815 	add	a,#0x06
   16EE 5F                 6816 	ld	e,a
   16EF 23                 6817 	inc	hl
   16F0 7E                 6818 	ld	a,(hl)
   16F1 CE 00              6819 	adc	a,#0x00
   16F3 57                 6820 	ld	d,a
                           6821 ; genAssign (pointer)
   16F4 3E 00              6822 	ld	a,#0x00
   16F6 12                 6823 	ld	(de),a
                           6824 ;	game.c 791
                           6825 ; genPlus
                           6826 ; AOP_STK for _initBandits_sloc0_1_0
                           6827 ; genPlusIncr
   16F7 2B                 6828 	dec	hl
   16F8 7E                 6829 	ld	a,(hl)
   16F9 C6 07              6830 	add	a,#0x07
   16FB 5F                 6831 	ld	e,a
   16FC 23                 6832 	inc	hl
   16FD 7E                 6833 	ld	a,(hl)
   16FE CE 00              6834 	adc	a,#0x00
   1700 57                 6835 	ld	d,a
                           6836 ; genAssign (pointer)
                           6837 ; AOP_HL for _MAX_TIMER_BANDIT
   1701 21 01 00           6838 	ld	hl,#_MAX_TIMER_BANDIT + 0
   1704 7E                 6839 	ld	a,(hl)
   1705 12                 6840 	ld	(de),a
                           6841 ;	game.c 792
                           6842 ; genPlus
                           6843 ; AOP_STK for _initBandits_sloc0_1_0
                           6844 ; genPlusIncr
   1706 F8 00              6845 	lda	hl,0(sp)
   1708 7E                 6846 	ld	a,(hl)
   1709 C6 08              6847 	add	a,#0x08
   170B 5F                 6848 	ld	e,a
   170C 23                 6849 	inc	hl
   170D 7E                 6850 	ld	a,(hl)
   170E CE 00              6851 	adc	a,#0x00
   1710 57                 6852 	ld	d,a
                           6853 ; genAssign (pointer)
                           6854 ; AOP_HL for _MAX_TIMER_BANDIT
   1711 21 01 00           6855 	ld	hl,#_MAX_TIMER_BANDIT + 0
   1714 7E                 6856 	ld	a,(hl)
   1715 12                 6857 	ld	(de),a
                           6858 ;	game.c 793
                           6859 ; genPlus
                           6860 ; AOP_STK for _initBandits_sloc0_1_0
                           6861 ; genPlusIncr
   1716 F8 00              6862 	lda	hl,0(sp)
   1718 7E                 6863 	ld	a,(hl)
   1719 C6 09              6864 	add	a,#0x09
   171B 5F                 6865 	ld	e,a
   171C 23                 6866 	inc	hl
   171D 7E                 6867 	ld	a,(hl)
   171E CE 00              6868 	adc	a,#0x00
   1720 57                 6869 	ld	d,a
                           6870 ; genAssign (pointer)
                           6871 ; AOP_HL for _MAX_TIMER_BANDIT
   1721 21 01 00           6872 	ld	hl,#_MAX_TIMER_BANDIT + 0
   1724 7E                 6873 	ld	a,(hl)
   1725 12                 6874 	ld	(de),a
                           6875 ;	game.c 794
                           6876 ; genPlus
                           6877 ; AOP_STK for _initBandits_sloc0_1_0
                           6878 ; genPlusIncr
   1726 F8 00              6879 	lda	hl,0(sp)
   1728 7E                 6880 	ld	a,(hl)
   1729 C6 0B              6881 	add	a,#0x0B
   172B 5F                 6882 	ld	e,a
   172C 23                 6883 	inc	hl
   172D 7E                 6884 	ld	a,(hl)
   172E CE 00              6885 	adc	a,#0x00
   1730 57                 6886 	ld	d,a
                           6887 ; genAssign (pointer)
   1731 3E 00              6888 	ld	a,#0x00
   1733 12                 6889 	ld	(de),a
                           6890 ;	game.c 795
                           6891 ; genPlus
                           6892 ; AOP_STK for _initBandits_sloc0_1_0
                           6893 ; genPlusIncr
   1734 2B                 6894 	dec	hl
   1735 7E                 6895 	ld	a,(hl)
   1736 C6 0A              6896 	add	a,#0x0A
   1738 5F                 6897 	ld	e,a
   1739 23                 6898 	inc	hl
   173A 7E                 6899 	ld	a,(hl)
   173B CE 00              6900 	adc	a,#0x00
   173D 57                 6901 	ld	d,a
                           6902 ; genAssign (pointer)
   173E 3E 00              6903 	ld	a,#0x00
   1740 12                 6904 	ld	(de),a
                           6905 ;	game.c 796
                           6906 ; genPlus
                           6907 ; AOP_STK for _initBandits_sloc0_1_0
                           6908 ; genPlusIncr
   1741 2B                 6909 	dec	hl
   1742 7E                 6910 	ld	a,(hl)
   1743 C6 0C              6911 	add	a,#0x0C
   1745 5F                 6912 	ld	e,a
   1746 23                 6913 	inc	hl
   1747 7E                 6914 	ld	a,(hl)
   1748 CE 00              6915 	adc	a,#0x00
   174A 57                 6916 	ld	d,a
                           6917 ; genAssign (pointer)
   174B 3E 00              6918 	ld	a,#0x00
   174D 12                 6919 	ld	(de),a
                           6920 ;	game.c 783
                           6921 ; genAssign
                           6922 ; AOP_HL for _i
   174E 21 3D 00           6923 	ld	hl,#_i + 0
   1751 71                 6924 	ld	(hl),c
                           6925 ; genGoto
   1752 C3 82 16           6926 	jp	00101$
                           6927 ; genLabel
   1755                    6928 00105$:
                           6929 ; genEndFunction
   1755 E8 02              6930 	lda	sp,2(sp)
   1757 C1                 6931 	pop bc
   1758 C9                 6932 	ret
   1759                    6933 ___initBandits_end:
                           6934 ;	game.c 802
                           6935 ; genLabel
                           6936 ; genFunction
                           6937 ;	---------------------------------
                           6938 ; Function generateBanditsST
                           6939 ; ---------------------------------
   1759                    6940 ___generateBanditsST_start:
   1759                    6941 _generateBanditsST:
   1759 C5                 6942 	push	bc
   175A E8 EF              6943 	lda sp,-17(sp)
                           6944 ;	game.c 804
                           6945 ; genPlus
                           6946 ; genPlusIncr
   175C 11 2B 00           6947 	ld	de,#_bandits + 41
                           6948 ; genAssign (pointer)
   175F 3E 00              6949 	ld	a,#0x00
   1761 12                 6950 	ld	(de),a
                           6951 ;	game.c 805
                           6952 ; genPlus
                           6953 ; genPlusIncr
   1762 11 1D 00           6954 	ld	de,#_bandits + 27
                           6955 ; genAssign (pointer)
   1765 3E 00              6956 	ld	a,#0x00
   1767 12                 6957 	ld	(de),a
                           6958 ;	game.c 806
                           6959 ; genPlus
                           6960 ; genPlusIncr
   1768 11 0F 00           6961 	ld	de,#_bandits + 13
                           6962 ; genAssign (pointer)
   176B 3E 00              6963 	ld	a,#0x00
   176D 12                 6964 	ld	(de),a
                           6965 ;	game.c 808
                           6966 ; genAssign
                           6967 ; AOP_HL for _i
   176E 21 3D 00           6968 	ld	hl,#_i + 0
   1771 36 00              6969 	ld	(hl),#0x00
                           6970 ; genLabel
   1773                    6971 00117$:
                           6972 ; genCmpLt
                           6973 ; AOP_HL for _i
   1773 21 3D 00           6974 	ld	hl,#_i + 0
   1776 7E                 6975 	ld	a,(hl)
   1777 FE 03              6976 	cp	#0x03
   1779 D2 94 19           6977 	jp	nc,00121$
                           6978 ;	game.c 809
                           6979 ; genIpush
   177C 3E 0E              6980 	ld	a,#0x0E
   177E F5                 6981 	push	af
   177F 33                 6982 	inc	sp
                           6983 ; genIpush
                           6984 ; AOP_HL for _i
   1780 7E                 6985 	ld	a,(hl)
   1781 F5                 6986 	push	af
   1782 33                 6987 	inc	sp
                           6988 ; genCall
   1783 CD 00 00           6989 	call	__muluchar
   1786 4B                 6990 	ld	c,e
   1787 E8 02              6991 	lda	sp,2(sp)
                           6992 ; genPlus
                           6993 ; AOP_STK for _generateBanditsST_sloc2_1_0
   1789 3E 02              6994 	ld	a,#<_bandits
   178B 81                 6995 	add	a,c
   178C F8 0C              6996 	lda	hl,12(sp)
   178E 77                 6997 	ld	(hl),a ; 3
   178F 3E 00              6998 	ld	a,#>_bandits
   1791 CE 00              6999 	adc	a,#0x00
   1793 23                 7000 	inc	hl
   1794 77                 7001 	ld	(hl),a ; 3
                           7002 ; genPointerGet
                           7003 ; AOP_STK for _generateBanditsST_sloc2_1_0
                           7004 ; AOP_STK for _generateBanditsST_sloc0_1_0
   1795 2B                 7005 	dec	hl
   1796 5E                 7006 	ld	e,(hl)
   1797 23                 7007 	inc	hl
   1798 56                 7008 	ld	d,(hl)
   1799 1A                 7009 	ld	a,(de)
   179A F8 10              7010 	lda	hl,16(sp)
   179C 77                 7011 	ld	(hl),a ; 3
                           7012 ; genCmpEq
                           7013 ; AOP_STK for _generateBanditsST_sloc0_1_0
   179D 7E                 7014 	ld	a,(hl)
   179E B7                 7015 	or	a,a
   179F C2 A4 17           7016 	jp	nz,00133$
   17A2 18 03              7017 	jr	00134$
   17A4                    7018 00133$:
   17A4 C3 8D 19           7019 	jp	00119$
   17A7                    7020 00134$:
                           7021 ;	game.c 810
                           7022 ; genAssign (pointer)
                           7023 ; AOP_STK for _generateBanditsST_sloc2_1_0
   17A7 F8 0C              7024 	lda	hl,12(sp)
   17A9 5E                 7025 	ld	e,(hl)
   17AA 23                 7026 	inc	hl
   17AB 56                 7027 	ld	d,(hl)
   17AC 3E 01              7028 	ld	a,#0x01
   17AE 12                 7029 	ld	(de),a
                           7030 ;	game.c 811
                           7031 ; genPlus
                           7032 ; AOP_STK for _generateBanditsST_sloc2_1_0
                           7033 ; genPlusIncr
   17AF 2B                 7034 	dec	hl
   17B0 7E                 7035 	ld	a,(hl)
   17B1 C6 0C              7036 	add	a,#0x0C
   17B3 5F                 7037 	ld	e,a
   17B4 23                 7038 	inc	hl
   17B5 7E                 7039 	ld	a,(hl)
   17B6 CE 00              7040 	adc	a,#0x00
   17B8 57                 7041 	ld	d,a
                           7042 ; genAssign (pointer)
   17B9 3E 00              7043 	ld	a,#0x00
   17BB 12                 7044 	ld	(de),a
                           7045 ;	game.c 812
                           7046 ; genPlus
                           7047 ; AOP_STK for _generateBanditsST_sloc2_1_0
                           7048 ; AOP_STK for _generateBanditsST_sloc1_1_0
                           7049 ; genPlusIncr
   17BC 2B                 7050 	dec	hl
   17BD 7E                 7051 	ld	a,(hl)
   17BE C6 01              7052 	add	a,#0x01
   17C0 23                 7053 	inc	hl
   17C1 23                 7054 	inc	hl
   17C2 77                 7055 	ld	(hl),a ; 3
   17C3 2B                 7056 	dec	hl
   17C4 7E                 7057 	ld	a,(hl)
   17C5 CE 00              7058 	adc	a,#0x00
   17C7 23                 7059 	inc	hl
   17C8 23                 7060 	inc	hl
   17C9 77                 7061 	ld	(hl),a ; 3
                           7062 ; genPlus
                           7063 ; AOP_HL for _borderRight
                           7064 ; genPlusIncr
   17CA 21 3F 00           7065 	ld	hl,#_borderRight + 0
   17CD 7E                 7066 	ld	a,(hl)
   17CE C6 32              7067 	add	a,#0x32
   17D0 4F                 7068 	ld	c,a
                           7069 ; genCall
   17D1 CD 00 00           7070 	call	_rand
   17D4 43                 7071 	ld	b,e
                           7072 ; genIpush
   17D5 3E 32              7073 	ld	a,#0x32
   17D7 F5                 7074 	push	af
   17D8 33                 7075 	inc	sp
                           7076 ; genIpush
   17D9 78                 7077 	ld	a,b
   17DA F5                 7078 	push	af
   17DB 33                 7079 	inc	sp
                           7080 ; genCall
   17DC CD 00 00           7081 	call	__modschar
   17DF 43                 7082 	ld	b,e
   17E0 E8 02              7083 	lda	sp,2(sp)
                           7084 ; genPlus
   17E2 79                 7085 	ld	a,c
   17E3 80                 7086 	add	a,b
   17E4 4F                 7087 	ld	c,a
                           7088 ; genAssign (pointer)
                           7089 ; AOP_STK for _generateBanditsST_sloc1_1_0
   17E5 F8 0E              7090 	lda	hl,14(sp)
   17E7 5E                 7091 	ld	e,(hl)
   17E8 23                 7092 	inc	hl
   17E9 56                 7093 	ld	d,(hl)
   17EA 79                 7094 	ld	a,c
   17EB 12                 7095 	ld	(de),a
                           7096 ;	game.c 813
                           7097 ; genPlus
                           7098 ; AOP_STK for _generateBanditsST_sloc2_1_0
                           7099 ; genPlusIncr
   17EC F8 0C              7100 	lda	hl,12(sp)
   17EE 7E                 7101 	ld	a,(hl)
   17EF C6 09              7102 	add	a,#0x09
   17F1 5F                 7103 	ld	e,a
   17F2 23                 7104 	inc	hl
   17F3 7E                 7105 	ld	a,(hl)
   17F4 CE 00              7106 	adc	a,#0x00
   17F6 57                 7107 	ld	d,a
                           7108 ; genAssign (pointer)
                           7109 ; AOP_HL for _MAX_TIMER
   17F7 21 00 00           7110 	ld	hl,#_MAX_TIMER + 0
   17FA 7E                 7111 	ld	a,(hl)
   17FB 12                 7112 	ld	(de),a
                           7113 ;	game.c 814
                           7114 ; genPlus
                           7115 ; AOP_STK for _generateBanditsST_sloc2_1_0
                           7116 ; genPlusIncr
   17FC F8 0C              7117 	lda	hl,12(sp)
   17FE 7E                 7118 	ld	a,(hl)
   17FF C6 08              7119 	add	a,#0x08
   1801 5F                 7120 	ld	e,a
   1802 23                 7121 	inc	hl
   1803 7E                 7122 	ld	a,(hl)
   1804 CE 00              7123 	adc	a,#0x00
   1806 57                 7124 	ld	d,a
                           7125 ; genAssign (pointer)
                           7126 ; AOP_HL for _MAX_TIMER
   1807 21 00 00           7127 	ld	hl,#_MAX_TIMER + 0
   180A 7E                 7128 	ld	a,(hl)
   180B 12                 7129 	ld	(de),a
                           7130 ;	game.c 815
                           7131 ; genPlus
                           7132 ; AOP_STK for _generateBanditsST_sloc2_1_0
                           7133 ; genPlusIncr
   180C F8 0C              7134 	lda	hl,12(sp)
   180E 7E                 7135 	ld	a,(hl)
   180F C6 07              7136 	add	a,#0x07
   1811 5F                 7137 	ld	e,a
   1812 23                 7138 	inc	hl
   1813 7E                 7139 	ld	a,(hl)
   1814 CE 00              7140 	adc	a,#0x00
   1816 57                 7141 	ld	d,a
                           7142 ; genAssign (pointer)
                           7143 ; AOP_HL for _MAX_TIMER
   1817 21 00 00           7144 	ld	hl,#_MAX_TIMER + 0
   181A 7E                 7145 	ld	a,(hl)
   181B 12                 7146 	ld	(de),a
                           7147 ;	game.c 816
                           7148 ; genPlus
                           7149 ; AOP_STK for _generateBanditsST_sloc2_1_0
                           7150 ; AOP_STK for _generateBanditsST_sloc1_1_0
                           7151 ; genPlusIncr
   181C F8 0C              7152 	lda	hl,12(sp)
   181E 7E                 7153 	ld	a,(hl)
   181F C6 02              7154 	add	a,#0x02
   1821 23                 7155 	inc	hl
   1822 23                 7156 	inc	hl
   1823 77                 7157 	ld	(hl),a ; 3
   1824 2B                 7158 	dec	hl
   1825 7E                 7159 	ld	a,(hl)
   1826 CE 00              7160 	adc	a,#0x00
   1828 23                 7161 	inc	hl
   1829 23                 7162 	inc	hl
   182A 77                 7163 	ld	(hl),a ; 3
                           7164 ; genLabel
   182B                    7165 00102$:
                           7166 ;	game.c 817
                           7167 ; genCall
   182B CD 00 00           7168 	call	_rand
                           7169 ; AOP_STK for _generateBanditsST_sloc0_1_0
   182E F8 10              7170 	lda	hl,16(sp)
   1830 73                 7171 	ld	(hl),e ; 3
                           7172 ; genIpush
   1831 3E 90              7173 	ld	a,#0x90
   1833 F5                 7174 	push	af
   1834 33                 7175 	inc	sp
                           7176 ; genIpush
                           7177 ; AOP_STK for _generateBanditsST_sloc0_1_0
   1835 7E                 7178 	ld	a,(hl)
   1836 F5                 7179 	push	af
   1837 33                 7180 	inc	sp
                           7181 ; genCall
   1838 CD 00 00           7182 	call	__modschar
                           7183 ; AOP_STK for _generateBanditsST_sloc3_1_0
   183B F8 0D              7184 	lda	hl,13(sp)
   183D 73                 7185 	ld	(hl),e ; 3
   183E E8 02              7186 	lda	sp,2(sp)
                           7187 ; genPlus
                           7188 ; AOP_STK for _generateBanditsST_sloc3_1_0
                           7189 ; AOP_STK for _generateBanditsST_sloc7_1_0
                           7190 ; genPlusIncr
   1840 7E                 7191 	ld	a,(hl)
   1841 C6 28              7192 	add	a,#0x28
   1843 F8 06              7193 	lda	hl,6(sp)
   1845 77                 7194 	ld	(hl),a ; 3
                           7195 ; genAssign (pointer)
                           7196 ; AOP_STK for _generateBanditsST_sloc1_1_0
                           7197 ; AOP_STK for _generateBanditsST_sloc7_1_0
   1846 F8 0E              7198 	lda	hl,14(sp)
   1848 5E                 7199 	ld	e,(hl)
   1849 23                 7200 	inc	hl
   184A 56                 7201 	ld	d,(hl)
   184B F8 06              7202 	lda	hl,6(sp)
   184D 7E                 7203 	ld	a,(hl)
   184E 12                 7204 	ld	(de),a
                           7205 ;	game.c 818
                           7206 ; genCast
                           7207 ; AOP_STK for _generateBanditsST_sloc7_1_0
                           7208 ; AOP_STK for _generateBanditsST_sloc4_1_0
   184F 7E                 7209 	ld	a,(hl)
   1850 F8 09              7210 	lda	hl,9(sp)
   1852 77                 7211 	ld	(hl),a ; 3
   1853 23                 7212 	inc	hl
   1854 36 00              7213 	ld	(hl),#0x00 ; 3
                           7214 ; genCmpGt
                           7215 ; AOP_STK for _generateBanditsST_sloc4_1_0
                           7216 ; AOP_STK for _generateBanditsST_sloc5_1_0
   1856 AF                 7217 	xor	a,a
   1857 3E B8              7218 	ld	a,#0xB8
   1859 2B                 7219 	dec	hl
   185A 9E                 7220 	sbc	a,(hl) ; 2
   185B 3E 00              7221 	ld	a,#0x00
   185D 23                 7222 	inc	hl
   185E 9E                 7223 	sbc	a,(hl) ; 2
   185F 3E 00              7224 	ld	a,#0x00
   1861 17                 7225 	rla
   1862 2B                 7226 	dec	hl
   1863 2B                 7227 	dec	hl
   1864 77                 7228 	ld	(hl),a ; 3
                           7229 ; genIfx
                           7230 ; AOP_STK for _generateBanditsST_sloc5_1_0
                           7231 ; Removed redundent or a,a
   1865 AF                 7232 	xor	a,a
   1866 B6                 7233 	or	a,(hl)
   1867 C2 2B 18           7234 	jp	nz,00102$
                           7235 ; genPointerGet
                           7236 ; AOP_STK for _generateBanditsST_sloc1_1_0
                           7237 ; AOP_STK for _generateBanditsST_sloc6_1_0
   186A F8 0E              7238 	lda	hl,14(sp)
   186C 5E                 7239 	ld	e,(hl)
   186D 23                 7240 	inc	hl
   186E 56                 7241 	ld	d,(hl)
   186F 1A                 7242 	ld	a,(de)
   1870 F8 07              7243 	lda	hl,7(sp)
   1872 77                 7244 	ld	(hl),a ; 3
                           7245 ; genLeftShift
                           7246 ; AOP_HL for _borderTop
   1873 21 41 00           7247 	ld	hl,#_borderTop + 0
   1876 7E                 7248 	ld	a,(hl)
   1877 87                 7249 	add	a,a
   1878 47                 7250 	ld	b,a
                           7251 ; genPlus
                           7252 ; AOP_STK for _generateBanditsST_sloc8_1_0
                           7253 ; genPlusIncr
   1879 78                 7254 	ld	a,b
   187A C6 30              7255 	add	a,#0x30
   187C F8 05              7256 	lda	hl,5(sp)
   187E 77                 7257 	ld	(hl),a ; 3
                           7258 ; genCmpLt
                           7259 ; AOP_STK for _generateBanditsST_sloc6_1_0
                           7260 ; AOP_STK for _generateBanditsST_sloc8_1_0
   187F AF                 7261 	xor	a,a
   1880 23                 7262 	inc	hl
   1881 23                 7263 	inc	hl
   1882 7E                 7264 	ld	a,(hl)
   1883 2B                 7265 	dec	hl
   1884 2B                 7266 	dec	hl
   1885 9E                 7267 	sbc	a,(hl) ; 2
   1886 DA 2B 18           7268 	jp	c,00102$
                           7269 ;	game.c 820
                           7270 ; genCmpGt
                           7271 ; AOP_HL for _i
   1889 AF                 7272 	xor	a,a
   188A 3E 00              7273 	ld	a,#0x00
   188C 21 3D 00           7274 	ld	hl,#_i + 0
   188F 9E                 7275 	sbc	a,(hl) ; 2
   1890 D2 24 19           7276 	jp	nc,00111$
                           7277 ;	game.c 821
                           7278 ; genLabel
   1893                    7279 00107$:
                           7280 ;	game.c 822
                           7281 ; genCall
   1893 CD 00 00           7282 	call	_rand
                           7283 ; AOP_STK for _generateBanditsST_sloc7_1_0
   1896 F8 06              7284 	lda	hl,6(sp)
   1898 73                 7285 	ld	(hl),e ; 3
                           7286 ; genIpush
   1899 3E 90              7287 	ld	a,#0x90
   189B F5                 7288 	push	af
   189C 33                 7289 	inc	sp
                           7290 ; genIpush
                           7291 ; AOP_STK for _generateBanditsST_sloc7_1_0
   189D 7E                 7292 	ld	a,(hl)
   189E F5                 7293 	push	af
   189F 33                 7294 	inc	sp
                           7295 ; genCall
   18A0 CD 00 00           7296 	call	__modschar
                           7297 ; AOP_STK for _generateBanditsST_sloc6_1_0
   18A3 F8 09              7298 	lda	hl,9(sp)
   18A5 73                 7299 	ld	(hl),e ; 3
   18A6 E8 02              7300 	lda	sp,2(sp)
                           7301 ; genPlus
                           7302 ; AOP_STK for _generateBanditsST_sloc6_1_0
                           7303 ; AOP_STK for _generateBanditsST_sloc4_1_0
                           7304 ; genPlusIncr
   18A8 7E                 7305 	ld	a,(hl)
   18A9 C6 28              7306 	add	a,#0x28
   18AB 23                 7307 	inc	hl
   18AC 23                 7308 	inc	hl
   18AD 77                 7309 	ld	(hl),a ; 3
                           7310 ; genAssign (pointer)
                           7311 ; AOP_STK for _generateBanditsST_sloc1_1_0
                           7312 ; AOP_STK for _generateBanditsST_sloc4_1_0
   18AE F8 0E              7313 	lda	hl,14(sp)
   18B0 5E                 7314 	ld	e,(hl)
   18B1 23                 7315 	inc	hl
   18B2 56                 7316 	ld	d,(hl)
   18B3 F8 09              7317 	lda	hl,9(sp)
   18B5 7E                 7318 	ld	a,(hl)
   18B6 12                 7319 	ld	(de),a
                           7320 ;	game.c 823
                           7321 ; genMinus
                           7322 ; AOP_HL for _i
                           7323 ; AOP_STK for _generateBanditsST_sloc5_1_0
   18B7 21 3D 00           7324 	ld	hl,#_i + 0
   18BA 7E                 7325 	ld	a,(hl)
   18BB C6 FF              7326 	add	a,#0xFF
   18BD F8 08              7327 	lda	hl,8(sp)
   18BF 77                 7328 	ld	(hl),a ; 3
                           7329 ; genIpush
   18C0 3E 0E              7330 	ld	a,#0x0E
   18C2 F5                 7331 	push	af
   18C3 33                 7332 	inc	sp
                           7333 ; genIpush
                           7334 ; AOP_STK for _generateBanditsST_sloc5_1_0
   18C4 7E                 7335 	ld	a,(hl)
   18C5 F5                 7336 	push	af
   18C6 33                 7337 	inc	sp
                           7338 ; genCall
   18C7 CD 00 00           7339 	call	__muluchar
                           7340 ; AOP_STK for _generateBanditsST_sloc0_1_0
   18CA F8 12              7341 	lda	hl,18(sp)
   18CC 73                 7342 	ld	(hl),e ; 3
   18CD E8 02              7343 	lda	sp,2(sp)
                           7344 ; genPlus
                           7345 ; AOP_STK for _generateBanditsST_sloc0_1_0
                           7346 ; AOP_STK for _generateBanditsST_sloc9_1_0
   18CF 3E 02              7347 	ld	a,#<_bandits
   18D1 86                 7348 	add	a,(hl)
   18D2 F8 03              7349 	lda	hl,3(sp)
   18D4 77                 7350 	ld	(hl),a ; 3
   18D5 3E 00              7351 	ld	a,#>_bandits
   18D7 CE 00              7352 	adc	a,#0x00
   18D9 23                 7353 	inc	hl
   18DA 77                 7354 	ld	(hl),a ; 3
                           7355 ; genPlus
                           7356 ; AOP_STK for _generateBanditsST_sloc9_1_0
                           7357 ; genPlusIncr
   18DB 2B                 7358 	dec	hl
   18DC 5E                 7359 	ld	e,(hl)
   18DD 23                 7360 	inc	hl
   18DE 56                 7361 	ld	d,(hl)
   18DF 13                 7362 	inc	de
   18E0 13                 7363 	inc	de
                           7364 ; genPointerGet
   18E1 1A                 7365 	ld	a,(de)
                           7366 ; genCmpEq
                           7367 ; AOP_STK for _generateBanditsST_sloc4_1_0
                           7368 ; AOP_STK for _generateBanditsST_sloc3_1_0
   18E2 F8 09              7369 	lda	hl,9(sp)
   18E4 BE                 7370 	cp	(hl) ; 5
   18E5 20 04              7371 	jr	nz,00135$
   18E7 3E 01              7372 	ld	a,#0x01
   18E9 18 01              7373 	jr	00136$
   18EB                    7374 00135$:
   18EB AF                 7375 	xor	a,a
   18EC                    7376 00136$:
   18EC F8 0B              7377 	lda	hl,11(sp)
   18EE 77                 7378 	ld	(hl),a ; 3
                           7379 ; genIfx
                           7380 ; AOP_STK for _generateBanditsST_sloc3_1_0
                           7381 ; Removed redundent or a,a
   18EF AF                 7382 	xor	a,a
   18F0 B6                 7383 	or	a,(hl)
   18F1 C2 93 18           7384 	jp	nz,00107$
                           7385 ; genPointerGet
                           7386 ; AOP_STK for _generateBanditsST_sloc1_1_0
   18F4 F8 0E              7387 	lda	hl,14(sp)
   18F6 5E                 7388 	ld	e,(hl)
   18F7 23                 7389 	inc	hl
   18F8 56                 7390 	ld	d,(hl)
   18F9 1A                 7391 	ld	a,(de)
   18FA 4F                 7392 	ld	c,a
                           7393 ; genCast
                           7394 ; AOP_STK for _generateBanditsST_sloc10_1_0
   18FB F8 01              7395 	lda	hl,1(sp)
   18FD 71                 7396 	ld	(hl),c ; 3
   18FE 23                 7397 	inc	hl
   18FF 36 00              7398 	ld	(hl),#0x00 ; 3
                           7399 ; genCmpGt
                           7400 ; AOP_STK for _generateBanditsST_sloc10_1_0
                           7401 ; AOP_STK for _generateBanditsST_sloc11_1_0
   1901 AF                 7402 	xor	a,a
   1902 3E B8              7403 	ld	a,#0xB8
   1904 2B                 7404 	dec	hl
   1905 9E                 7405 	sbc	a,(hl) ; 2
   1906 3E 00              7406 	ld	a,#0x00
   1908 23                 7407 	inc	hl
   1909 9E                 7408 	sbc	a,(hl) ; 2
   190A 3E 00              7409 	ld	a,#0x00
   190C 17                 7410 	rla
   190D 2B                 7411 	dec	hl
   190E 2B                 7412 	dec	hl
   190F 77                 7413 	ld	(hl),a ; 3
                           7414 ; genIfx
                           7415 ; AOP_STK for _generateBanditsST_sloc11_1_0
                           7416 ; Removed redundent or a,a
   1910 AF                 7417 	xor	a,a
   1911 B6                 7418 	or	a,(hl)
   1912 C2 93 18           7419 	jp	nz,00107$
                           7420 ; genPointerGet
                           7421 ; AOP_STK for _generateBanditsST_sloc1_1_0
   1915 F8 0E              7422 	lda	hl,14(sp)
   1917 5E                 7423 	ld	e,(hl)
   1918 23                 7424 	inc	hl
   1919 56                 7425 	ld	d,(hl)
   191A 1A                 7426 	ld	a,(de)
   191B 47                 7427 	ld	b,a
                           7428 ; genCmpLt
                           7429 ; AOP_STK for _generateBanditsST_sloc8_1_0
   191C AF                 7430 	xor	a,a
   191D 78                 7431 	ld	a,b
   191E F8 05              7432 	lda	hl,5(sp)
   1920 9E                 7433 	sbc	a,(hl) ; 2
   1921 DA 93 18           7434 	jp	c,00107$
                           7435 ; genLabel
   1924                    7436 00111$:
                           7437 ;	game.c 826
                           7438 ; genPlus
                           7439 ; AOP_STK for _generateBanditsST_sloc2_1_0
                           7440 ; genPlusIncr
   1924 F8 0C              7441 	lda	hl,12(sp)
   1926 7E                 7442 	ld	a,(hl)
   1927 C6 05              7443 	add	a,#0x05
   1929 5F                 7444 	ld	e,a
   192A 23                 7445 	inc	hl
   192B 7E                 7446 	ld	a,(hl)
   192C CE 00              7447 	adc	a,#0x00
   192E 57                 7448 	ld	d,a
                           7449 ; genPlus
                           7450 ; AOP_HL for _i
                           7451 ; genPlusIncr
   192F 21 3D 00           7452 	ld	hl,#_i + 0
   1932 7E                 7453 	ld	a,(hl)
   1933 C6 01              7454 	add	a,#0x01
   1935 4F                 7455 	ld	c,a
                           7456 ; genAssign (pointer)
   1936 79                 7457 	ld	a,c
   1937 12                 7458 	ld	(de),a
                           7459 ;	game.c 828
                           7460 ; genPlus
                           7461 ; AOP_STK for _generateBanditsST_sloc2_1_0
                           7462 ; genPlusIncr
   1938 F8 0C              7463 	lda	hl,12(sp)
   193A 7E                 7464 	ld	a,(hl)
   193B C6 06              7465 	add	a,#0x06
   193D 5F                 7466 	ld	e,a
   193E 23                 7467 	inc	hl
   193F 7E                 7468 	ld	a,(hl)
   1940 CE 00              7469 	adc	a,#0x00
   1942 57                 7470 	ld	d,a
                           7471 ; genAssign (pointer)
   1943 3E 01              7472 	ld	a,#0x01
   1945 12                 7473 	ld	(de),a
                           7474 ;	game.c 830
                           7475 ; genPlus
                           7476 ; AOP_STK for _generateBanditsST_sloc2_1_0
                           7477 ; genPlusIncr
   1946 2B                 7478 	dec	hl
   1947 7E                 7479 	ld	a,(hl)
   1948 C6 0A              7480 	add	a,#0x0A
   194A 5F                 7481 	ld	e,a
   194B 23                 7482 	inc	hl
   194C 7E                 7483 	ld	a,(hl)
   194D CE 00              7484 	adc	a,#0x00
   194F 57                 7485 	ld	d,a
                           7486 ; genAssign (pointer)
   1950 3E 01              7487 	ld	a,#0x01
   1952 12                 7488 	ld	(de),a
                           7489 ;	game.c 832
                           7490 ; genCall
   1953 CD 00 00           7491 	call	_rand
   1956 4B                 7492 	ld	c,e
                           7493 ; genIpush
   1957 3E 64              7494 	ld	a,#0x64
   1959 F5                 7495 	push	af
   195A 33                 7496 	inc	sp
                           7497 ; genIpush
   195B 79                 7498 	ld	a,c
   195C F5                 7499 	push	af
   195D 33                 7500 	inc	sp
                           7501 ; genCall
   195E CD 00 00           7502 	call	__modschar
                           7503 ; AOP_HL for _pickComportement
   1961 21 2C 00           7504 	ld	hl,#_pickComportement + 0
   1964 73                 7505 	ld	(hl),e
   1965 E8 02              7506 	lda	sp,2(sp)
                           7507 ;	game.c 833
                           7508 ; genCmpGt
                           7509 ; AOP_HL for _pickComportement
   1967 AF                 7510 	xor	a,a
   1968 3E 14              7511 	ld	a,#0x14
   196A 9E                 7512 	sbc	a,(hl) ; 2
   196B D2 7F 19           7513 	jp	nc,00113$
                           7514 ;	game.c 834
                           7515 ; genPlus
                           7516 ; AOP_STK for _generateBanditsST_sloc2_1_0
                           7517 ; genPlusIncr
   196E F8 0C              7518 	lda	hl,12(sp)
   1970 7E                 7519 	ld	a,(hl)
   1971 C6 03              7520 	add	a,#0x03
   1973 5F                 7521 	ld	e,a
   1974 23                 7522 	inc	hl
   1975 7E                 7523 	ld	a,(hl)
   1976 CE 00              7524 	adc	a,#0x00
   1978 57                 7525 	ld	d,a
                           7526 ; genAssign (pointer)
   1979 3E 01              7527 	ld	a,#0x01
   197B 12                 7528 	ld	(de),a
                           7529 ; genGoto
   197C C3 8D 19           7530 	jp	00119$
                           7531 ; genLabel
   197F                    7532 00113$:
                           7533 ;	game.c 836
                           7534 ; genPlus
                           7535 ; AOP_STK for _generateBanditsST_sloc2_1_0
                           7536 ; genPlusIncr
   197F F8 0C              7537 	lda	hl,12(sp)
   1981 7E                 7538 	ld	a,(hl)
   1982 C6 03              7539 	add	a,#0x03
   1984 5F                 7540 	ld	e,a
   1985 23                 7541 	inc	hl
   1986 7E                 7542 	ld	a,(hl)
   1987 CE 00              7543 	adc	a,#0x00
   1989 57                 7544 	ld	d,a
                           7545 ; genAssign (pointer)
   198A 3E 02              7546 	ld	a,#0x02
   198C 12                 7547 	ld	(de),a
                           7548 ; genLabel
   198D                    7549 00119$:
                           7550 ;	game.c 808
                           7551 ; genPlus
                           7552 ; AOP_HL for _i
                           7553 ; genPlusIncr
   198D 21 3D 00           7554 	ld	hl,#_i + 0
   1990 34                 7555 	inc	(hl)
                           7556 ; genGoto
   1991 C3 73 17           7557 	jp	00117$
                           7558 ; genLabel
   1994                    7559 00121$:
                           7560 ; genEndFunction
   1994 E8 11              7561 	lda	sp,17(sp)
   1996 C1                 7562 	pop bc
   1997 C9                 7563 	ret
   1998                    7564 ___generateBanditsST_end:
                           7565 ;	game.c 843
                           7566 ; genLabel
                           7567 ; genFunction
                           7568 ;	---------------------------------
                           7569 ; Function generateBandits
                           7570 ; ---------------------------------
   1998                    7571 ___generateBandits_start:
   1998                    7572 _generateBandits:
   1998 C5                 7573 	push	bc
   1999 E8 F2              7574 	lda sp,-14(sp)
                           7575 ;	game.c 846
                           7576 ; genCmpGt
                           7577 ; AOP_HL for _score_bandit
   199B AF                 7578 	xor	a,a
   199C 3E 05              7579 	ld	a,#0x05
   199E 21 47 00           7580 	ld	hl,#_score_bandit + 0
   19A1 9E                 7581 	sbc	a,(hl) ; 2
   19A2 DA BA 19           7582 	jp	c,00107$
                           7583 ;	game.c 847
                           7584 ; genPlus
                           7585 ; genPlusIncr
   19A5 11 2B 00           7586 	ld	de,#_bandits + 41
                           7587 ; genAssign (pointer)
   19A8 3E 01              7588 	ld	a,#0x01
   19AA 12                 7589 	ld	(de),a
                           7590 ;	game.c 848
                           7591 ; genPlus
                           7592 ; genPlusIncr
   19AB 11 1D 00           7593 	ld	de,#_bandits + 27
                           7594 ; genAssign (pointer)
   19AE 3E 01              7595 	ld	a,#0x01
   19B0 12                 7596 	ld	(de),a
                           7597 ;	game.c 849
                           7598 ; genPlus
                           7599 ; genPlusIncr
   19B1 11 0F 00           7600 	ld	de,#_bandits + 13
                           7601 ; genAssign (pointer)
   19B4 3E 00              7602 	ld	a,#0x00
   19B6 12                 7603 	ld	(de),a
                           7604 ; genGoto
   19B7 C3 F5 19           7605 	jp	00108$
                           7606 ; genLabel
   19BA                    7607 00107$:
                           7608 ;	game.c 850
                           7609 ; genCmpGt
                           7610 ; AOP_HL for _score_bandit
   19BA AF                 7611 	xor	a,a
   19BB 3E 0A              7612 	ld	a,#0x0A
   19BD 21 47 00           7613 	ld	hl,#_score_bandit + 0
   19C0 9E                 7614 	sbc	a,(hl) ; 2
   19C1 DA D9 19           7615 	jp	c,00104$
                           7616 ;	game.c 851
                           7617 ; genPlus
                           7618 ; genPlusIncr
   19C4 11 2B 00           7619 	ld	de,#_bandits + 41
                           7620 ; genAssign (pointer)
   19C7 3E 01              7621 	ld	a,#0x01
   19C9 12                 7622 	ld	(de),a
                           7623 ;	game.c 852
                           7624 ; genPlus
                           7625 ; genPlusIncr
   19CA 11 1D 00           7626 	ld	de,#_bandits + 27
                           7627 ; genAssign (pointer)
   19CD 3E 00              7628 	ld	a,#0x00
   19CF 12                 7629 	ld	(de),a
                           7630 ;	game.c 853
                           7631 ; genPlus
                           7632 ; genPlusIncr
   19D0 11 0F 00           7633 	ld	de,#_bandits + 13
                           7634 ; genAssign (pointer)
   19D3 3E 00              7635 	ld	a,#0x00
   19D5 12                 7636 	ld	(de),a
                           7637 ; genGoto
   19D6 C3 F5 19           7638 	jp	00108$
                           7639 ; genLabel
   19D9                    7640 00104$:
                           7641 ;	game.c 854
                           7642 ; genCmpGt
                           7643 ; AOP_HL for _score_bandit
   19D9 AF                 7644 	xor	a,a
   19DA 3E 0F              7645 	ld	a,#0x0F
   19DC 21 47 00           7646 	ld	hl,#_score_bandit + 0
   19DF 9E                 7647 	sbc	a,(hl) ; 2
   19E0 D2 F5 19           7648 	jp	nc,00108$
                           7649 ;	game.c 855
                           7650 ; genPlus
                           7651 ; genPlusIncr
   19E3 11 2B 00           7652 	ld	de,#_bandits + 41
                           7653 ; genAssign (pointer)
   19E6 3E 00              7654 	ld	a,#0x00
   19E8 12                 7655 	ld	(de),a
                           7656 ;	game.c 856
                           7657 ; genPlus
                           7658 ; genPlusIncr
   19E9 11 1D 00           7659 	ld	de,#_bandits + 27
                           7660 ; genAssign (pointer)
   19EC 3E 00              7661 	ld	a,#0x00
   19EE 12                 7662 	ld	(de),a
                           7663 ;	game.c 857
                           7664 ; genPlus
                           7665 ; genPlusIncr
   19EF 11 0F 00           7666 	ld	de,#_bandits + 13
                           7667 ; genAssign (pointer)
   19F2 3E 00              7668 	ld	a,#0x00
   19F4 12                 7669 	ld	(de),a
                           7670 ; genLabel
   19F5                    7671 00108$:
                           7672 ;	game.c 863
                           7673 ; genAssign
                           7674 ; AOP_HL for _i
   19F5 21 3D 00           7675 	ld	hl,#_i + 0
   19F8 36 00              7676 	ld	(hl),#0x00
                           7677 ; genLabel
   19FA                    7678 00125$:
                           7679 ; genCmpLt
                           7680 ; AOP_HL for _i
   19FA 21 3D 00           7681 	ld	hl,#_i + 0
   19FD 7E                 7682 	ld	a,(hl)
   19FE FE 03              7683 	cp	#0x03
   1A00 D2 CE 1B           7684 	jp	nc,00129$
                           7685 ;	game.c 864
                           7686 ; genIpush
   1A03 3E 0E              7687 	ld	a,#0x0E
   1A05 F5                 7688 	push	af
   1A06 33                 7689 	inc	sp
                           7690 ; genIpush
                           7691 ; AOP_HL for _i
   1A07 7E                 7692 	ld	a,(hl)
   1A08 F5                 7693 	push	af
   1A09 33                 7694 	inc	sp
                           7695 ; genCall
   1A0A CD 00 00           7696 	call	__muluchar
   1A0D 4B                 7697 	ld	c,e
   1A0E E8 02              7698 	lda	sp,2(sp)
                           7699 ; genPlus
                           7700 ; AOP_STK for _generateBandits_sloc1_1_0
   1A10 3E 02              7701 	ld	a,#<_bandits
   1A12 81                 7702 	add	a,c
   1A13 F8 0B              7703 	lda	hl,11(sp)
   1A15 77                 7704 	ld	(hl),a ; 3
   1A16 3E 00              7705 	ld	a,#>_bandits
   1A18 CE 00              7706 	adc	a,#0x00
   1A1A 23                 7707 	inc	hl
   1A1B 77                 7708 	ld	(hl),a ; 3
                           7709 ; genPointerGet
                           7710 ; AOP_STK for _generateBandits_sloc1_1_0
                           7711 ; AOP_STK for _generateBandits_sloc0_1_0
   1A1C 2B                 7712 	dec	hl
   1A1D 5E                 7713 	ld	e,(hl)
   1A1E 23                 7714 	inc	hl
   1A1F 56                 7715 	ld	d,(hl)
   1A20 1A                 7716 	ld	a,(de)
   1A21 23                 7717 	inc	hl
   1A22 77                 7718 	ld	(hl),a ; 3
                           7719 ; genCmpEq
                           7720 ; AOP_STK for _generateBandits_sloc0_1_0
   1A23 7E                 7721 	ld	a,(hl)
   1A24 B7                 7722 	or	a,a
   1A25 C2 2A 1A           7723 	jp	nz,00144$
   1A28 18 03              7724 	jr	00145$
   1A2A                    7725 00144$:
   1A2A C3 C7 1B           7726 	jp	00127$
   1A2D                    7727 00145$:
                           7728 ;	game.c 865
                           7729 ; genAssign (pointer)
                           7730 ; AOP_STK for _generateBandits_sloc1_1_0
   1A2D F8 0B              7731 	lda	hl,11(sp)
   1A2F 5E                 7732 	ld	e,(hl)
   1A30 23                 7733 	inc	hl
   1A31 56                 7734 	ld	d,(hl)
   1A32 3E 01              7735 	ld	a,#0x01
   1A34 12                 7736 	ld	(de),a
                           7737 ;	game.c 866
                           7738 ; genPlus
                           7739 ; AOP_STK for _generateBandits_sloc1_1_0
                           7740 ; genPlusIncr
   1A35 2B                 7741 	dec	hl
   1A36 7E                 7742 	ld	a,(hl)
   1A37 C6 0C              7743 	add	a,#0x0C
   1A39 5F                 7744 	ld	e,a
   1A3A 23                 7745 	inc	hl
   1A3B 7E                 7746 	ld	a,(hl)
   1A3C CE 00              7747 	adc	a,#0x00
   1A3E 57                 7748 	ld	d,a
                           7749 ; genAssign (pointer)
   1A3F 3E 00              7750 	ld	a,#0x00
   1A41 12                 7751 	ld	(de),a
                           7752 ;	game.c 867
                           7753 ; genPlus
                           7754 ; AOP_STK for _generateBandits_sloc1_1_0
                           7755 ; genPlusIncr
   1A42 2B                 7756 	dec	hl
   1A43 5E                 7757 	ld	e,(hl)
   1A44 23                 7758 	inc	hl
   1A45 56                 7759 	ld	d,(hl)
   1A46 13                 7760 	inc	de
                           7761 ; genPlus
                           7762 ; AOP_HL for _borderRight
                           7763 ; genPlusIncr
   1A47 21 3F 00           7764 	ld	hl,#_borderRight + 0
   1A4A 7E                 7765 	ld	a,(hl)
   1A4B C6 10              7766 	add	a,#0x10
   1A4D 4F                 7767 	ld	c,a
                           7768 ; genAssign (pointer)
   1A4E 79                 7769 	ld	a,c
   1A4F 12                 7770 	ld	(de),a
                           7771 ;	game.c 868
                           7772 ; genPlus
                           7773 ; AOP_STK for _generateBandits_sloc1_1_0
                           7774 ; genPlusIncr
   1A50 F8 0B              7775 	lda	hl,11(sp)
   1A52 7E                 7776 	ld	a,(hl)
   1A53 C6 09              7777 	add	a,#0x09
   1A55 5F                 7778 	ld	e,a
   1A56 23                 7779 	inc	hl
   1A57 7E                 7780 	ld	a,(hl)
   1A58 CE 00              7781 	adc	a,#0x00
   1A5A 57                 7782 	ld	d,a
                           7783 ; genAssign (pointer)
                           7784 ; AOP_HL for _MAX_TIMER
   1A5B 21 00 00           7785 	ld	hl,#_MAX_TIMER + 0
   1A5E 7E                 7786 	ld	a,(hl)
   1A5F 12                 7787 	ld	(de),a
                           7788 ;	game.c 869
                           7789 ; genPlus
                           7790 ; AOP_STK for _generateBandits_sloc1_1_0
                           7791 ; genPlusIncr
   1A60 F8 0B              7792 	lda	hl,11(sp)
   1A62 7E                 7793 	ld	a,(hl)
   1A63 C6 08              7794 	add	a,#0x08
   1A65 5F                 7795 	ld	e,a
   1A66 23                 7796 	inc	hl
   1A67 7E                 7797 	ld	a,(hl)
   1A68 CE 00              7798 	adc	a,#0x00
   1A6A 57                 7799 	ld	d,a
                           7800 ; genAssign (pointer)
                           7801 ; AOP_HL for _MAX_TIMER
   1A6B 21 00 00           7802 	ld	hl,#_MAX_TIMER + 0
   1A6E 7E                 7803 	ld	a,(hl)
   1A6F 12                 7804 	ld	(de),a
                           7805 ;	game.c 870
                           7806 ; genPlus
                           7807 ; AOP_STK for _generateBandits_sloc1_1_0
                           7808 ; genPlusIncr
   1A70 F8 0B              7809 	lda	hl,11(sp)
   1A72 7E                 7810 	ld	a,(hl)
   1A73 C6 07              7811 	add	a,#0x07
   1A75 5F                 7812 	ld	e,a
   1A76 23                 7813 	inc	hl
   1A77 7E                 7814 	ld	a,(hl)
   1A78 CE 00              7815 	adc	a,#0x00
   1A7A 57                 7816 	ld	d,a
                           7817 ; genAssign (pointer)
                           7818 ; AOP_HL for _MAX_TIMER
   1A7B 21 00 00           7819 	ld	hl,#_MAX_TIMER + 0
   1A7E 7E                 7820 	ld	a,(hl)
   1A7F 12                 7821 	ld	(de),a
                           7822 ;	game.c 871
                           7823 ; genPlus
                           7824 ; AOP_STK for _generateBandits_sloc1_1_0
                           7825 ; AOP_STK for _generateBandits_sloc2_1_0
                           7826 ; genPlusIncr
   1A80 F8 0B              7827 	lda	hl,11(sp)
   1A82 7E                 7828 	ld	a,(hl)
   1A83 C6 02              7829 	add	a,#0x02
   1A85 2B                 7830 	dec	hl
   1A86 2B                 7831 	dec	hl
   1A87 77                 7832 	ld	(hl),a ; 3
   1A88 F8 0C              7833 	lda	hl,12(sp)
   1A8A 7E                 7834 	ld	a,(hl)
   1A8B CE 00              7835 	adc	a,#0x00
   1A8D 2B                 7836 	dec	hl
   1A8E 2B                 7837 	dec	hl
   1A8F 77                 7838 	ld	(hl),a ; 3
                           7839 ; genLabel
   1A90                    7840 00110$:
                           7841 ;	game.c 872
                           7842 ; genCall
   1A90 CD 00 00           7843 	call	_rand
                           7844 ; AOP_STK for _generateBandits_sloc0_1_0
   1A93 F8 0D              7845 	lda	hl,13(sp)
   1A95 73                 7846 	ld	(hl),e ; 3
                           7847 ; genIpush
                           7848 ; AOP_HL for _borderBottom
   1A96 21 42 00           7849 	ld	hl,#_borderBottom + 0
   1A99 7E                 7850 	ld	a,(hl)
   1A9A F5                 7851 	push	af
   1A9B 33                 7852 	inc	sp
                           7853 ; genIpush
                           7854 ; AOP_STK for _generateBandits_sloc0_1_0
   1A9C F8 0E              7855 	lda	hl,14(sp)
   1A9E 7E                 7856 	ld	a,(hl)
   1A9F F5                 7857 	push	af
   1AA0 33                 7858 	inc	sp
                           7859 ; genCall
   1AA1 CD 00 00           7860 	call	__modschar
   1AA4 43                 7861 	ld	b,e
   1AA5 E8 02              7862 	lda	sp,2(sp)
                           7863 ; genAssign (pointer)
                           7864 ; AOP_STK for _generateBandits_sloc2_1_0
   1AA7 F8 09              7865 	lda	hl,9(sp)
   1AA9 5E                 7866 	ld	e,(hl)
   1AAA 23                 7867 	inc	hl
   1AAB 56                 7868 	ld	d,(hl)
   1AAC 78                 7869 	ld	a,b
   1AAD 12                 7870 	ld	(de),a
                           7871 ;	game.c 873
                           7872 ; genPlus
                           7873 ; AOP_HL for _borderBottom
                           7874 ; AOP_STK for _generateBandits_sloc4_1_0
                           7875 ; genPlusIncr
   1AAE 21 42 00           7876 	ld	hl,#_borderBottom + 0
   1AB1 7E                 7877 	ld	a,(hl)
   1AB2 C6 10              7878 	add	a,#0x10
   1AB4 F8 07              7879 	lda	hl,7(sp)
   1AB6 77                 7880 	ld	(hl),a ; 3
                           7881 ; genCmpGt
                           7882 ; AOP_STK for _generateBandits_sloc4_1_0
                           7883 ; AOP_STK for _generateBandits_sloc3_1_0
   1AB7 AF                 7884 	xor	a,a
   1AB8 7E                 7885 	ld	a,(hl)
   1AB9 98                 7886 	sbc	a,b ; 2
   1ABA 3E 00              7887 	ld	a,#0x00
   1ABC 17                 7888 	rla
   1ABD 23                 7889 	inc	hl
   1ABE 77                 7890 	ld	(hl),a ; 3
                           7891 ; genIfx
                           7892 ; AOP_STK for _generateBandits_sloc3_1_0
                           7893 ; Removed redundent or a,a
   1ABF AF                 7894 	xor	a,a
   1AC0 B6                 7895 	or	a,(hl)
   1AC1 C2 90 1A           7896 	jp	nz,00110$
                           7897 ; genPointerGet
                           7898 ; AOP_STK for _generateBandits_sloc2_1_0
                           7899 ; AOP_STK for _generateBandits_sloc5_1_0
   1AC4 23                 7900 	inc	hl
   1AC5 5E                 7901 	ld	e,(hl)
   1AC6 23                 7902 	inc	hl
   1AC7 56                 7903 	ld	d,(hl)
   1AC8 1A                 7904 	ld	a,(de)
   1AC9 F8 06              7905 	lda	hl,6(sp)
   1ACB 77                 7906 	ld	(hl),a ; 3
                           7907 ; genPlus
                           7908 ; AOP_HL for _borderTop
                           7909 ; AOP_STK for _generateBandits_sloc6_1_0
                           7910 ; genPlusIncr
   1ACC 21 41 00           7911 	ld	hl,#_borderTop + 0
   1ACF 7E                 7912 	ld	a,(hl)
   1AD0 C6 10              7913 	add	a,#0x10
   1AD2 F8 05              7914 	lda	hl,5(sp)
   1AD4 77                 7915 	ld	(hl),a ; 3
                           7916 ; genCmpLt
                           7917 ; AOP_STK for _generateBandits_sloc5_1_0
                           7918 ; AOP_STK for _generateBandits_sloc6_1_0
   1AD5 AF                 7919 	xor	a,a
   1AD6 23                 7920 	inc	hl
   1AD7 7E                 7921 	ld	a,(hl)
   1AD8 2B                 7922 	dec	hl
   1AD9 9E                 7923 	sbc	a,(hl) ; 2
   1ADA DA 90 1A           7924 	jp	c,00110$
                           7925 ;	game.c 875
                           7926 ; genCmpGt
                           7927 ; AOP_HL for _i
   1ADD AF                 7928 	xor	a,a
   1ADE 3E 00              7929 	ld	a,#0x00
   1AE0 21 3D 00           7930 	ld	hl,#_i + 0
   1AE3 9E                 7931 	sbc	a,(hl) ; 2
   1AE4 D2 6B 1B           7932 	jp	nc,00119$
                           7933 ;	game.c 876
                           7934 ; genLabel
   1AE7                    7935 00115$:
                           7936 ;	game.c 877
                           7937 ; genCall
   1AE7 CD 00 00           7938 	call	_rand
                           7939 ; AOP_STK for _generateBandits_sloc5_1_0
   1AEA F8 06              7940 	lda	hl,6(sp)
   1AEC 73                 7941 	ld	(hl),e ; 3
                           7942 ; genIpush
                           7943 ; AOP_HL for _borderBottom
   1AED 21 42 00           7944 	ld	hl,#_borderBottom + 0
   1AF0 7E                 7945 	ld	a,(hl)
   1AF1 F5                 7946 	push	af
   1AF2 33                 7947 	inc	sp
                           7948 ; genIpush
                           7949 ; AOP_STK for _generateBandits_sloc5_1_0
   1AF3 F8 07              7950 	lda	hl,7(sp)
   1AF5 7E                 7951 	ld	a,(hl)
   1AF6 F5                 7952 	push	af
   1AF7 33                 7953 	inc	sp
                           7954 ; genCall
   1AF8 CD 00 00           7955 	call	__modschar
                           7956 ; AOP_STK for _generateBandits_sloc3_1_0
   1AFB F8 0A              7957 	lda	hl,10(sp)
   1AFD 73                 7958 	ld	(hl),e ; 3
   1AFE E8 02              7959 	lda	sp,2(sp)
                           7960 ; genAssign (pointer)
                           7961 ; AOP_STK for _generateBandits_sloc2_1_0
                           7962 ; AOP_STK for _generateBandits_sloc3_1_0
   1B00 23                 7963 	inc	hl
   1B01 5E                 7964 	ld	e,(hl)
   1B02 23                 7965 	inc	hl
   1B03 56                 7966 	ld	d,(hl)
   1B04 2B                 7967 	dec	hl
   1B05 2B                 7968 	dec	hl
   1B06 7E                 7969 	ld	a,(hl)
   1B07 12                 7970 	ld	(de),a
                           7971 ;	game.c 878
                           7972 ; genMinus
                           7973 ; AOP_HL for _i
                           7974 ; AOP_STK for _generateBandits_sloc0_1_0
   1B08 21 3D 00           7975 	ld	hl,#_i + 0
   1B0B 7E                 7976 	ld	a,(hl)
   1B0C C6 FF              7977 	add	a,#0xFF
   1B0E F8 0D              7978 	lda	hl,13(sp)
   1B10 77                 7979 	ld	(hl),a ; 3
                           7980 ; genIpush
   1B11 3E 0E              7981 	ld	a,#0x0E
   1B13 F5                 7982 	push	af
   1B14 33                 7983 	inc	sp
                           7984 ; genIpush
                           7985 ; AOP_STK for _generateBandits_sloc0_1_0
   1B15 7E                 7986 	ld	a,(hl)
   1B16 F5                 7987 	push	af
   1B17 33                 7988 	inc	sp
                           7989 ; genCall
   1B18 CD 00 00           7990 	call	__muluchar
                           7991 ; AOP_STK for _generateBandits_sloc9_1_0
   1B1B F8 03              7992 	lda	hl,3(sp)
   1B1D 73                 7993 	ld	(hl),e ; 3
   1B1E E8 02              7994 	lda	sp,2(sp)
                           7995 ; genPlus
                           7996 ; AOP_STK for _generateBandits_sloc9_1_0
                           7997 ; AOP_STK for _generateBandits_sloc7_1_0
   1B20 3E 02              7998 	ld	a,#<_bandits
   1B22 86                 7999 	add	a,(hl)
   1B23 23                 8000 	inc	hl
   1B24 23                 8001 	inc	hl
   1B25 77                 8002 	ld	(hl),a ; 3
   1B26 3E 00              8003 	ld	a,#>_bandits
   1B28 CE 00              8004 	adc	a,#0x00
   1B2A 23                 8005 	inc	hl
   1B2B 77                 8006 	ld	(hl),a ; 3
                           8007 ; genPlus
                           8008 ; AOP_STK for _generateBandits_sloc7_1_0
                           8009 ; genPlusIncr
   1B2C 2B                 8010 	dec	hl
   1B2D 5E                 8011 	ld	e,(hl)
   1B2E 23                 8012 	inc	hl
   1B2F 56                 8013 	ld	d,(hl)
   1B30 13                 8014 	inc	de
   1B31 13                 8015 	inc	de
                           8016 ; genPointerGet
   1B32 1A                 8017 	ld	a,(de)
                           8018 ; genCmpEq
                           8019 ; AOP_STK for _generateBandits_sloc3_1_0
                           8020 ; AOP_STK for _generateBandits_sloc8_1_0
   1B33 F8 08              8021 	lda	hl,8(sp)
   1B35 BE                 8022 	cp	(hl) ; 5
   1B36 20 04              8023 	jr	nz,00146$
   1B38 3E 01              8024 	ld	a,#0x01
   1B3A 18 01              8025 	jr	00147$
   1B3C                    8026 00146$:
   1B3C AF                 8027 	xor	a,a
   1B3D                    8028 00147$:
   1B3D F8 02              8029 	lda	hl,2(sp)
   1B3F 77                 8030 	ld	(hl),a ; 3
                           8031 ; genIfx
                           8032 ; AOP_STK for _generateBandits_sloc8_1_0
                           8033 ; Removed redundent or a,a
   1B40 AF                 8034 	xor	a,a
   1B41 B6                 8035 	or	a,(hl)
   1B42 C2 E7 1A           8036 	jp	nz,00115$
                           8037 ; genPointerGet
                           8038 ; AOP_STK for _generateBandits_sloc2_1_0
   1B45 F8 09              8039 	lda	hl,9(sp)
   1B47 5E                 8040 	ld	e,(hl)
   1B48 23                 8041 	inc	hl
   1B49 56                 8042 	ld	d,(hl)
   1B4A 1A                 8043 	ld	a,(de)
   1B4B 4F                 8044 	ld	c,a
                           8045 ; genCmpGt
                           8046 ; AOP_STK for _generateBandits_sloc4_1_0
                           8047 ; AOP_STK for _generateBandits_sloc10_1_0
   1B4C AF                 8048 	xor	a,a
   1B4D F8 07              8049 	lda	hl,7(sp)
   1B4F 7E                 8050 	ld	a,(hl)
   1B50 99                 8051 	sbc	a,c ; 2
   1B51 3E 00              8052 	ld	a,#0x00
   1B53 17                 8053 	rla
   1B54 F8 00              8054 	lda	hl,0(sp)
   1B56 77                 8055 	ld	(hl),a ; 3
                           8056 ; genIfx
                           8057 ; AOP_STK for _generateBandits_sloc10_1_0
                           8058 ; Removed redundent or a,a
   1B57 AF                 8059 	xor	a,a
   1B58 B6                 8060 	or	a,(hl)
   1B59 C2 E7 1A           8061 	jp	nz,00115$
                           8062 ; genPointerGet
                           8063 ; AOP_STK for _generateBandits_sloc2_1_0
   1B5C F8 09              8064 	lda	hl,9(sp)
   1B5E 5E                 8065 	ld	e,(hl)
   1B5F 23                 8066 	inc	hl
   1B60 56                 8067 	ld	d,(hl)
   1B61 1A                 8068 	ld	a,(de)
   1B62 47                 8069 	ld	b,a
                           8070 ; genCmpLt
                           8071 ; AOP_STK for _generateBandits_sloc6_1_0
   1B63 AF                 8072 	xor	a,a
   1B64 78                 8073 	ld	a,b
   1B65 F8 05              8074 	lda	hl,5(sp)
   1B67 9E                 8075 	sbc	a,(hl) ; 2
   1B68 DA E7 1A           8076 	jp	c,00115$
                           8077 ; genLabel
   1B6B                    8078 00119$:
                           8079 ;	game.c 881
                           8080 ; genPlus
                           8081 ; AOP_STK for _generateBandits_sloc1_1_0
                           8082 ; genPlusIncr
   1B6B F8 0B              8083 	lda	hl,11(sp)
   1B6D 7E                 8084 	ld	a,(hl)
   1B6E C6 05              8085 	add	a,#0x05
   1B70 5F                 8086 	ld	e,a
   1B71 23                 8087 	inc	hl
   1B72 7E                 8088 	ld	a,(hl)
   1B73 CE 00              8089 	adc	a,#0x00
   1B75 57                 8090 	ld	d,a
                           8091 ; genPlus
                           8092 ; AOP_HL for _i
                           8093 ; genPlusIncr
   1B76 21 3D 00           8094 	ld	hl,#_i + 0
   1B79 7E                 8095 	ld	a,(hl)
   1B7A C6 01              8096 	add	a,#0x01
   1B7C 4F                 8097 	ld	c,a
                           8098 ; genAssign (pointer)
   1B7D 79                 8099 	ld	a,c
   1B7E 12                 8100 	ld	(de),a
                           8101 ;	game.c 883
                           8102 ; genCall
   1B7F CD 00 00           8103 	call	_rand
   1B82 4B                 8104 	ld	c,e
                           8105 ; genIpush
   1B83 3E 64              8106 	ld	a,#0x64
   1B85 F5                 8107 	push	af
   1B86 33                 8108 	inc	sp
                           8109 ; genIpush
   1B87 79                 8110 	ld	a,c
   1B88 F5                 8111 	push	af
   1B89 33                 8112 	inc	sp
                           8113 ; genCall
   1B8A CD 00 00           8114 	call	__modschar
                           8115 ; AOP_HL for _pickComportement
   1B8D 21 2C 00           8116 	ld	hl,#_pickComportement + 0
   1B90 73                 8117 	ld	(hl),e
   1B91 E8 02              8118 	lda	sp,2(sp)
                           8119 ;	game.c 884
                           8120 ; genCmpGt
                           8121 ; AOP_HL for _pickComportement
   1B93 AF                 8122 	xor	a,a
   1B94 3E 63              8123 	ld	a,#0x63
   1B96 9E                 8124 	sbc	a,(hl) ; 2
   1B97 D2 AB 1B           8125 	jp	nc,00121$
                           8126 ;	game.c 885
                           8127 ; genPlus
                           8128 ; AOP_STK for _generateBandits_sloc1_1_0
                           8129 ; genPlusIncr
   1B9A F8 0B              8130 	lda	hl,11(sp)
   1B9C 7E                 8131 	ld	a,(hl)
   1B9D C6 06              8132 	add	a,#0x06
   1B9F 5F                 8133 	ld	e,a
   1BA0 23                 8134 	inc	hl
   1BA1 7E                 8135 	ld	a,(hl)
   1BA2 CE 00              8136 	adc	a,#0x00
   1BA4 57                 8137 	ld	d,a
                           8138 ; genAssign (pointer)
   1BA5 3E 01              8139 	ld	a,#0x01
   1BA7 12                 8140 	ld	(de),a
                           8141 ; genGoto
   1BA8 C3 B9 1B           8142 	jp	00122$
                           8143 ; genLabel
   1BAB                    8144 00121$:
                           8145 ;	game.c 887
                           8146 ; genPlus
                           8147 ; AOP_STK for _generateBandits_sloc1_1_0
                           8148 ; genPlusIncr
   1BAB F8 0B              8149 	lda	hl,11(sp)
   1BAD 7E                 8150 	ld	a,(hl)
   1BAE C6 06              8151 	add	a,#0x06
   1BB0 5F                 8152 	ld	e,a
   1BB1 23                 8153 	inc	hl
   1BB2 7E                 8154 	ld	a,(hl)
   1BB3 CE 00              8155 	adc	a,#0x00
   1BB5 57                 8156 	ld	d,a
                           8157 ; genAssign (pointer)
   1BB6 3E 02              8158 	ld	a,#0x02
   1BB8 12                 8159 	ld	(de),a
                           8160 ; genLabel
   1BB9                    8161 00122$:
                           8162 ;	game.c 889
                           8163 ; genPlus
                           8164 ; AOP_STK for _generateBandits_sloc1_1_0
                           8165 ; genPlusIncr
   1BB9 F8 0B              8166 	lda	hl,11(sp)
   1BBB 7E                 8167 	ld	a,(hl)
   1BBC C6 0A              8168 	add	a,#0x0A
   1BBE 5F                 8169 	ld	e,a
   1BBF 23                 8170 	inc	hl
   1BC0 7E                 8171 	ld	a,(hl)
   1BC1 CE 00              8172 	adc	a,#0x00
   1BC3 57                 8173 	ld	d,a
                           8174 ; genAssign (pointer)
   1BC4 3E 01              8175 	ld	a,#0x01
   1BC6 12                 8176 	ld	(de),a
                           8177 ; genLabel
   1BC7                    8178 00127$:
                           8179 ;	game.c 863
                           8180 ; genPlus
                           8181 ; AOP_HL for _i
                           8182 ; genPlusIncr
   1BC7 21 3D 00           8183 	ld	hl,#_i + 0
   1BCA 34                 8184 	inc	(hl)
                           8185 ; genGoto
   1BCB C3 FA 19           8186 	jp	00125$
                           8187 ; genLabel
   1BCE                    8188 00129$:
                           8189 ; genEndFunction
   1BCE E8 0E              8190 	lda	sp,14(sp)
   1BD0 C1                 8191 	pop bc
   1BD1 C9                 8192 	ret
   1BD2                    8193 ___generateBandits_end:
                           8194 ;	game.c 898
                           8195 ; genLabel
                           8196 ; genFunction
                           8197 ;	---------------------------------
                           8198 ; Function moveBandits
                           8199 ; ---------------------------------
   1BD2                    8200 ___moveBandits_start:
   1BD2                    8201 _moveBandits:
   1BD2 C5                 8202 	push	bc
   1BD3 E8 F8              8203 	lda sp,-8(sp)
                           8204 ;	game.c 900
                           8205 ; genAssign
                           8206 ; AOP_HL for _i
   1BD5 21 3D 00           8207 	ld	hl,#_i + 0
   1BD8 36 00              8208 	ld	(hl),#0x00
                           8209 ; genLabel
   1BDA                    8210 00124$:
                           8211 ; genCmpLt
                           8212 ; AOP_HL for _i
   1BDA 21 3D 00           8213 	ld	hl,#_i + 0
   1BDD 7E                 8214 	ld	a,(hl)
   1BDE FE 03              8215 	cp	#0x03
   1BE0 D2 EE 1D           8216 	jp	nc,00128$
                           8217 ;	game.c 901
                           8218 ; genIpush
   1BE3 3E 0E              8219 	ld	a,#0x0E
   1BE5 F5                 8220 	push	af
   1BE6 33                 8221 	inc	sp
                           8222 ; genIpush
                           8223 ; AOP_HL for _i
   1BE7 7E                 8224 	ld	a,(hl)
   1BE8 F5                 8225 	push	af
   1BE9 33                 8226 	inc	sp
                           8227 ; genCall
   1BEA CD 00 00           8228 	call	__muluchar
   1BED 4B                 8229 	ld	c,e
   1BEE E8 02              8230 	lda	sp,2(sp)
                           8231 ; genPlus
                           8232 ; AOP_STK for _moveBandits_sloc0_1_0
   1BF0 3E 02              8233 	ld	a,#<_bandits
   1BF2 81                 8234 	add	a,c
   1BF3 F8 06              8235 	lda	hl,6(sp)
   1BF5 77                 8236 	ld	(hl),a ; 3
   1BF6 3E 00              8237 	ld	a,#>_bandits
   1BF8 CE 00              8238 	adc	a,#0x00
   1BFA 23                 8239 	inc	hl
   1BFB 77                 8240 	ld	(hl),a ; 3
                           8241 ; genPlus
                           8242 ; AOP_STK for _moveBandits_sloc0_1_0
                           8243 ; genPlusIncr
   1BFC 2B                 8244 	dec	hl
   1BFD 7E                 8245 	ld	a,(hl)
   1BFE C6 0D              8246 	add	a,#0x0D
   1C00 5F                 8247 	ld	e,a
   1C01 23                 8248 	inc	hl
   1C02 7E                 8249 	ld	a,(hl)
   1C03 CE 00              8250 	adc	a,#0x00
   1C05 57                 8251 	ld	d,a
                           8252 ; genPointerGet
   1C06 1A                 8253 	ld	a,(de)
   1C07 4F                 8254 	ld	c,a
                           8255 ; genCmpEq
   1C08 79                 8256 	ld	a,c ; 2
   1C09 FE 01              8257 	cp	a,#0x01
   1C0B C2 10 1C           8258 	jp	nz,00144$
   1C0E 18 03              8259 	jr	00145$
   1C10                    8260 00144$:
   1C10 C3 34 1C           8261 	jp	00122$
   1C13                    8262 00145$:
                           8263 ;	game.c 902
                           8264 ; genPlus
                           8265 ; AOP_STK for _moveBandits_sloc0_1_0
                           8266 ; genPlusIncr
   1C13 F8 06              8267 	lda	hl,6(sp)
   1C15 7E                 8268 	ld	a,(hl)
   1C16 C6 05              8269 	add	a,#0x05
   1C18 5F                 8270 	ld	e,a
   1C19 23                 8271 	inc	hl
   1C1A 7E                 8272 	ld	a,(hl)
   1C1B CE 00              8273 	adc	a,#0x00
   1C1D 57                 8274 	ld	d,a
                           8275 ; genPointerGet
   1C1E 1A                 8276 	ld	a,(de)
   1C1F 4F                 8277 	ld	c,a
                           8278 ; genMinus
   1C20 0D                 8279 	dec	c
                           8280 ; genIpush
   1C21 3E CE              8281 	ld	a,#0xCE
   1C23 F5                 8282 	push	af
   1C24 33                 8283 	inc	sp
                           8284 ; genIpush
   1C25 3E CE              8285 	ld	a,#0xCE
   1C27 F5                 8286 	push	af
   1C28 33                 8287 	inc	sp
                           8288 ; genIpush
   1C29 79                 8289 	ld	a,c
   1C2A F5                 8290 	push	af
   1C2B 33                 8291 	inc	sp
                           8292 ; genCall
   1C2C CD 41 13           8293 	call	_BanditWalk
   1C2F E8 03              8294 	lda	sp,3(sp)
                           8295 ; genGoto
   1C31 C3 E7 1D           8296 	jp	00126$
                           8297 ; genLabel
   1C34                    8298 00122$:
                           8299 ;	game.c 904
                           8300 ; genPointerGet
                           8301 ; AOP_STK for _moveBandits_sloc0_1_0
   1C34 F8 06              8302 	lda	hl,6(sp)
   1C36 5E                 8303 	ld	e,(hl)
   1C37 23                 8304 	inc	hl
   1C38 56                 8305 	ld	d,(hl)
   1C39 1A                 8306 	ld	a,(de)
   1C3A 4F                 8307 	ld	c,a
                           8308 ; genCmpEq
   1C3B 79                 8309 	ld	a,c ; 2
   1C3C FE 01              8310 	cp	a,#0x01
   1C3E C2 43 1C           8311 	jp	nz,00146$
   1C41 18 03              8312 	jr	00147$
   1C43                    8313 00146$:
   1C43 C3 E7 1D           8314 	jp	00126$
   1C46                    8315 00147$:
                           8316 ;	game.c 906
                           8317 ; genPlus
                           8318 ; AOP_STK for _moveBandits_sloc0_1_0
                           8319 ; genPlusIncr
   1C46 F8 06              8320 	lda	hl,6(sp)
   1C48 7E                 8321 	ld	a,(hl)
   1C49 C6 0C              8322 	add	a,#0x0C
   1C4B 5F                 8323 	ld	e,a
   1C4C 23                 8324 	inc	hl
   1C4D 7E                 8325 	ld	a,(hl)
   1C4E CE 00              8326 	adc	a,#0x00
   1C50 57                 8327 	ld	d,a
                           8328 ; genPointerGet
   1C51 1A                 8329 	ld	a,(de)
   1C52 4F                 8330 	ld	c,a
                           8331 ; genCmpEq
   1C53 79                 8332 	ld	a,c
   1C54 B7                 8333 	or	a,a
   1C55 C2 5A 1C           8334 	jp	nz,00148$
   1C58 18 03              8335 	jr	00149$
   1C5A                    8336 00148$:
   1C5A C3 B7 1D           8337 	jp	00117$
   1C5D                    8338 00149$:
                           8339 ;	game.c 907
                           8340 ; genPlus
                           8341 ; AOP_STK for _moveBandits_sloc0_1_0
                           8342 ; AOP_STK for _moveBandits_sloc2_1_0
                           8343 ; genPlusIncr
   1C5D F8 06              8344 	lda	hl,6(sp)
   1C5F 7E                 8345 	ld	a,(hl)
   1C60 C6 0A              8346 	add	a,#0x0A
   1C62 F8 03              8347 	lda	hl,3(sp)
   1C64 77                 8348 	ld	(hl),a ; 3
   1C65 F8 07              8349 	lda	hl,7(sp)
   1C67 7E                 8350 	ld	a,(hl)
   1C68 CE 00              8351 	adc	a,#0x00
   1C6A F8 04              8352 	lda	hl,4(sp)
   1C6C 77                 8353 	ld	(hl),a ; 3
                           8354 ; genPointerGet
                           8355 ; AOP_STK for _moveBandits_sloc2_1_0
                           8356 ; AOP_STK for _moveBandits_sloc1_1_0
   1C6D 2B                 8357 	dec	hl
   1C6E 5E                 8358 	ld	e,(hl)
   1C6F 23                 8359 	inc	hl
   1C70 56                 8360 	ld	d,(hl)
   1C71 1A                 8361 	ld	a,(de)
   1C72 23                 8362 	inc	hl
   1C73 77                 8363 	ld	(hl),a ; 3
                           8364 ; genCmpEq
                           8365 ; AOP_STK for _moveBandits_sloc1_1_0
   1C74 7E                 8366 	ld	a,(hl) ; 2
   1C75 FE 01              8367 	cp	a,#0x01
   1C77 C2 7C 1C           8368 	jp	nz,00150$
   1C7A 18 03              8369 	jr	00151$
   1C7C                    8370 00150$:
   1C7C C3 16 1D           8371 	jp	00105$
   1C7F                    8372 00151$:
                           8373 ;	game.c 908
                           8374 ; genPlus
                           8375 ; AOP_STK for _moveBandits_sloc0_1_0
                           8376 ; genPlusIncr
   1C7F F8 06              8377 	lda	hl,6(sp)
   1C81 5E                 8378 	ld	e,(hl)
   1C82 23                 8379 	inc	hl
   1C83 56                 8380 	ld	d,(hl)
   1C84 13                 8381 	inc	de
   1C85 13                 8382 	inc	de
                           8383 ; genPointerGet
                           8384 ; AOP_STK for _moveBandits_sloc1_1_0
   1C86 1A                 8385 	ld	a,(de)
   1C87 2B                 8386 	dec	hl
   1C88 2B                 8387 	dec	hl
   1C89 77                 8388 	ld	(hl),a ; 3
                           8389 ; genPlus
                           8390 ; AOP_STK for _moveBandits_sloc0_1_0
                           8391 ; AOP_STK for _moveBandits_sloc4_1_0
                           8392 ; genPlusIncr
   1C8A 23                 8393 	inc	hl
   1C8B 7E                 8394 	ld	a,(hl)
   1C8C C6 01              8395 	add	a,#0x01
   1C8E F8 00              8396 	lda	hl,0(sp)
   1C90 77                 8397 	ld	(hl),a ; 3
   1C91 F8 07              8398 	lda	hl,7(sp)
   1C93 7E                 8399 	ld	a,(hl)
   1C94 CE 00              8400 	adc	a,#0x00
   1C96 F8 01              8401 	lda	hl,1(sp)
   1C98 77                 8402 	ld	(hl),a ; 3
                           8403 ; genPointerGet
                           8404 ; AOP_STK for _moveBandits_sloc4_1_0
                           8405 ; AOP_STK for _moveBandits_sloc3_1_0
   1C99 2B                 8406 	dec	hl
   1C9A 5E                 8407 	ld	e,(hl)
   1C9B 23                 8408 	inc	hl
   1C9C 56                 8409 	ld	d,(hl)
   1C9D 1A                 8410 	ld	a,(de)
   1C9E 23                 8411 	inc	hl
   1C9F 77                 8412 	ld	(hl),a ; 3
                           8413 ; genPlus
                           8414 ; AOP_STK for _moveBandits_sloc0_1_0
                           8415 ; genPlusIncr
   1CA0 F8 06              8416 	lda	hl,6(sp)
   1CA2 7E                 8417 	ld	a,(hl)
   1CA3 C6 05              8418 	add	a,#0x05
   1CA5 5F                 8419 	ld	e,a
   1CA6 23                 8420 	inc	hl
   1CA7 7E                 8421 	ld	a,(hl)
   1CA8 CE 00              8422 	adc	a,#0x00
   1CAA 57                 8423 	ld	d,a
                           8424 ; genPointerGet
   1CAB 1A                 8425 	ld	a,(de)
   1CAC 4F                 8426 	ld	c,a
                           8427 ; genMinus
   1CAD 0D                 8428 	dec	c
                           8429 ; genIpush
                           8430 ; AOP_STK for _moveBandits_sloc1_1_0
   1CAE 2B                 8431 	dec	hl
   1CAF 2B                 8432 	dec	hl
   1CB0 7E                 8433 	ld	a,(hl)
   1CB1 F5                 8434 	push	af
   1CB2 33                 8435 	inc	sp
                           8436 ; genIpush
                           8437 ; AOP_STK for _moveBandits_sloc3_1_0
   1CB3 F8 03              8438 	lda	hl,3(sp)
   1CB5 7E                 8439 	ld	a,(hl)
   1CB6 F5                 8440 	push	af
   1CB7 33                 8441 	inc	sp
                           8442 ; genIpush
   1CB8 79                 8443 	ld	a,c
   1CB9 F5                 8444 	push	af
   1CBA 33                 8445 	inc	sp
                           8446 ; genCall
   1CBB CD 41 13           8447 	call	_BanditWalk
   1CBE E8 03              8448 	lda	sp,3(sp)
                           8449 ;	game.c 909
                           8450 ; genPlus
                           8451 ; AOP_STK for _moveBandits_sloc0_1_0
                           8452 ; genPlusIncr
   1CC0 F8 06              8453 	lda	hl,6(sp)
   1CC2 7E                 8454 	ld	a,(hl)
   1CC3 C6 06              8455 	add	a,#0x06
   1CC5 5F                 8456 	ld	e,a
   1CC6 23                 8457 	inc	hl
   1CC7 7E                 8458 	ld	a,(hl)
   1CC8 CE 00              8459 	adc	a,#0x00
   1CCA 57                 8460 	ld	d,a
                           8461 ; genPointerGet
   1CCB 1A                 8462 	ld	a,(de)
   1CCC 4F                 8463 	ld	c,a
                           8464 ; genCmpEq
   1CCD 79                 8465 	ld	a,c ; 2
   1CCE FE 01              8466 	cp	a,#0x01
                           8467 ; Rule 5
   1CD0 CA DC 1C           8468 	jp	z,00101$
   1CD3                    8469 00152$:
                           8470 ; genCmpEq
   1CD3 79                 8471 	ld	a,c ; 2
   1CD4 FE 02              8472 	cp	a,#0x02
                           8473 ; Rule 5
   1CD6 CA FD 1C           8474 	jp	z,00102$
   1CD9                    8475 00153$:
                           8476 ; genGoto
   1CD9 C3 16 1D           8477 	jp	00105$
                           8478 ;	game.c 911
                           8479 ; genLabel
   1CDC                    8480 00101$:
                           8481 ; genPointerGet
                           8482 ; AOP_STK for _moveBandits_sloc4_1_0
   1CDC F8 00              8483 	lda	hl,0(sp)
   1CDE 5E                 8484 	ld	e,(hl)
   1CDF 23                 8485 	inc	hl
   1CE0 56                 8486 	ld	d,(hl)
   1CE1 1A                 8487 	ld	a,(de)
   1CE2 4F                 8488 	ld	c,a
                           8489 ; genPlus
                           8490 ; AOP_STK for _moveBandits_sloc0_1_0
                           8491 ; genPlusIncr
   1CE3 F8 06              8492 	lda	hl,6(sp)
   1CE5 7E                 8493 	ld	a,(hl)
   1CE6 C6 03              8494 	add	a,#0x03
   1CE8 5F                 8495 	ld	e,a
   1CE9 23                 8496 	inc	hl
   1CEA 7E                 8497 	ld	a,(hl)
   1CEB CE 00              8498 	adc	a,#0x00
   1CED 57                 8499 	ld	d,a
                           8500 ; genPointerGet
   1CEE 1A                 8501 	ld	a,(de)
   1CEF 47                 8502 	ld	b,a
                           8503 ; genMinus
   1CF0 79                 8504 	ld	a,c
   1CF1 90                 8505 	sub	a,b
   1CF2 4F                 8506 	ld	c,a
                           8507 ; genAssign (pointer)
                           8508 ; AOP_STK for _moveBandits_sloc4_1_0
   1CF3 F8 00              8509 	lda	hl,0(sp)
   1CF5 5E                 8510 	ld	e,(hl)
   1CF6 23                 8511 	inc	hl
   1CF7 56                 8512 	ld	d,(hl)
   1CF8 79                 8513 	ld	a,c
   1CF9 12                 8514 	ld	(de),a
                           8515 ;	game.c 912
                           8516 ; genGoto
   1CFA C3 16 1D           8517 	jp	00105$
                           8518 ;	game.c 916
                           8519 ; genLabel
   1CFD                    8520 00102$:
                           8521 ; genPlus
                           8522 ; AOP_STK for _moveBandits_sloc0_1_0
                           8523 ; genPlusIncr
   1CFD F8 06              8524 	lda	hl,6(sp)
   1CFF 7E                 8525 	ld	a,(hl)
   1D00 C6 03              8526 	add	a,#0x03
   1D02 5F                 8527 	ld	e,a
   1D03 23                 8528 	inc	hl
   1D04 7E                 8529 	ld	a,(hl)
   1D05 CE 00              8530 	adc	a,#0x00
   1D07 57                 8531 	ld	d,a
                           8532 ; genPointerGet
   1D08 1A                 8533 	ld	a,(de)
   1D09 4F                 8534 	ld	c,a
                           8535 ; genMinus
                           8536 ; AOP_STK for _moveBandits_sloc3_1_0
   1D0A F8 02              8537 	lda	hl,2(sp)
   1D0C 7E                 8538 	ld	a,(hl)
   1D0D 91                 8539 	sub	a,c
   1D0E 4F                 8540 	ld	c,a
                           8541 ; genAssign (pointer)
                           8542 ; AOP_STK for _moveBandits_sloc4_1_0
   1D0F 2B                 8543 	dec	hl
   1D10 2B                 8544 	dec	hl
   1D11 5E                 8545 	ld	e,(hl)
   1D12 23                 8546 	inc	hl
   1D13 56                 8547 	ld	d,(hl)
   1D14 79                 8548 	ld	a,c
   1D15 12                 8549 	ld	(de),a
                           8550 ;	game.c 918
                           8551 ; genLabel
   1D16                    8552 00105$:
                           8553 ;	game.c 922
                           8554 ; genPlus
                           8555 ; AOP_STK for _moveBandits_sloc0_1_0
                           8556 ; genPlusIncr
   1D16 F8 06              8557 	lda	hl,6(sp)
   1D18 5E                 8558 	ld	e,(hl)
   1D19 23                 8559 	inc	hl
   1D1A 56                 8560 	ld	d,(hl)
   1D1B 13                 8561 	inc	de
                           8562 ; genPointerGet
   1D1C 1A                 8563 	ld	a,(de)
   1D1D 4F                 8564 	ld	c,a
                           8565 ; genCmpLt
                           8566 ; AOP_HL for _borderLeft
   1D1E AF                 8567 	xor	a,a
   1D1F 79                 8568 	ld	a,c
   1D20 21 40 00           8569 	ld	hl,#_borderLeft + 0
   1D23 9E                 8570 	sbc	a,(hl) ; 2
   1D24 D2 41 1D           8571 	jp	nc,00109$
                           8572 ;	game.c 923
                           8573 ; genAssign (pointer)
                           8574 ; AOP_STK for _moveBandits_sloc0_1_0
   1D27 F8 06              8575 	lda	hl,6(sp)
   1D29 5E                 8576 	ld	e,(hl)
   1D2A 23                 8577 	inc	hl
   1D2B 56                 8578 	ld	d,(hl)
   1D2C 3E 00              8579 	ld	a,#0x00
   1D2E 12                 8580 	ld	(de),a
                           8581 ;	game.c 924
                           8582 ; genCmpEq
                           8583 ; AOP_HL for _gameIsLaunch
   1D2F 21 4B 00           8584 	ld	hl,#_gameIsLaunch + 0
   1D32 7E                 8585 	ld	a,(hl) ; 2
   1D33 FE 01              8586 	cp	a,#0x01
   1D35 C2 3A 1D           8587 	jp	nz,00154$
   1D38 18 03              8588 	jr	00155$
   1D3A                    8589 00154$:
   1D3A C3 41 1D           8590 	jp	00109$
   1D3D                    8591 00155$:
                           8592 ;	game.c 925
                           8593 ; genMinus
                           8594 ; AOP_HL for _score_villager
   1D3D 21 48 00           8595 	ld	hl,#_score_villager + 0
   1D40 35                 8596 	dec	(hl)
                           8597 ; genLabel
   1D41                    8598 00109$:
                           8599 ;	game.c 929
                           8600 ; genPlus
                           8601 ; AOP_HL for _posXJudge
                           8602 ; genPlusIncr
   1D41 21 2E 00           8603 	ld	hl,#_posXJudge + 0
   1D44 7E                 8604 	ld	a,(hl)
   1D45 C6 08              8605 	add	a,#0x08
   1D47 47                 8606 	ld	b,a
                           8607 ; genCmpLt
   1D48 AF                 8608 	xor	a,a
   1D49 79                 8609 	ld	a,c
   1D4A 98                 8610 	sbc	a,b ; 2
   1D4B D2 9E 1D           8611 	jp	nc,00111$
                           8612 ; genCmpGt
                           8613 ; AOP_HL for _posXJudge
   1D4E AF                 8614 	xor	a,a
   1D4F 7E                 8615 	ld	a,(hl)
   1D50 99                 8616 	sbc	a,c ; 2
   1D51 D2 9E 1D           8617 	jp	nc,00111$
                           8618 ; genPlus
                           8619 ; AOP_STK for _moveBandits_sloc0_1_0
                           8620 ; genPlusIncr
   1D54 F8 06              8621 	lda	hl,6(sp)
   1D56 5E                 8622 	ld	e,(hl)
   1D57 23                 8623 	inc	hl
   1D58 56                 8624 	ld	d,(hl)
   1D59 13                 8625 	inc	de
   1D5A 13                 8626 	inc	de
                           8627 ; genPointerGet
                           8628 ; AOP_STK for _moveBandits_sloc4_1_0
   1D5B 1A                 8629 	ld	a,(de)
   1D5C F8 00              8630 	lda	hl,0(sp)
   1D5E 77                 8631 	ld	(hl),a ; 3
                           8632 ; genPlus
                           8633 ; AOP_HL for _posYJudge
                           8634 ; genPlusIncr
   1D5F 21 2F 00           8635 	ld	hl,#_posYJudge + 0
   1D62 7E                 8636 	ld	a,(hl)
   1D63 C6 18              8637 	add	a,#0x18
   1D65 47                 8638 	ld	b,a
                           8639 ; genCmpLt
                           8640 ; AOP_STK for _moveBandits_sloc4_1_0
   1D66 AF                 8641 	xor	a,a
   1D67 F8 00              8642 	lda	hl,0(sp)
   1D69 7E                 8643 	ld	a,(hl)
   1D6A 98                 8644 	sbc	a,b ; 2
   1D6B D2 9E 1D           8645 	jp	nc,00111$
                           8646 ; genPlus
                           8647 ; AOP_HL for _posYJudge
                           8648 ; genPlusIncr
   1D6E 21 2F 00           8649 	ld	hl,#_posYJudge + 0
   1D71 7E                 8650 	ld	a,(hl)
   1D72 C6 08              8651 	add	a,#0x08
   1D74 47                 8652 	ld	b,a
                           8653 ; genCmpGt
                           8654 ; AOP_STK for _moveBandits_sloc4_1_0
   1D75 AF                 8655 	xor	a,a
   1D76 78                 8656 	ld	a,b
   1D77 F8 00              8657 	lda	hl,0(sp)
   1D79 9E                 8658 	sbc	a,(hl) ; 2
   1D7A D2 9E 1D           8659 	jp	nc,00111$
                           8660 ;	game.c 930
                           8661 ; genPlus
                           8662 ; AOP_STK for _moveBandits_sloc0_1_0
                           8663 ; genPlusIncr
   1D7D F8 06              8664 	lda	hl,6(sp)
   1D7F 7E                 8665 	ld	a,(hl)
   1D80 C6 05              8666 	add	a,#0x05
   1D82 5F                 8667 	ld	e,a
   1D83 23                 8668 	inc	hl
   1D84 7E                 8669 	ld	a,(hl)
   1D85 CE 00              8670 	adc	a,#0x00
   1D87 57                 8671 	ld	d,a
                           8672 ; genPointerGet
   1D88 1A                 8673 	ld	a,(de)
   1D89 47                 8674 	ld	b,a
                           8675 ; genMinus
   1D8A 05                 8676 	dec	b
                           8677 ; genIpush
                           8678 ; AOP_STK for _moveBandits_sloc4_1_0
   1D8B F8 00              8679 	lda	hl,0(sp)
   1D8D 7E                 8680 	ld	a,(hl)
   1D8E F5                 8681 	push	af
   1D8F 33                 8682 	inc	sp
                           8683 ; genIpush
   1D90 79                 8684 	ld	a,c
   1D91 F5                 8685 	push	af
   1D92 33                 8686 	inc	sp
                           8687 ; genIpush
   1D93 78                 8688 	ld	a,b
   1D94 F5                 8689 	push	af
   1D95 33                 8690 	inc	sp
                           8691 ; genCall
   1D96 CD 0C 14           8692 	call	_BanditAttack
   1D99 E8 03              8693 	lda	sp,3(sp)
                           8694 ; genGoto
   1D9B C3 E7 1D           8695 	jp	00126$
                           8696 ; genLabel
   1D9E                    8697 00111$:
                           8698 ;	game.c 934
                           8699 ; genAssign (pointer)
                           8700 ; AOP_STK for _moveBandits_sloc2_1_0
   1D9E F8 03              8701 	lda	hl,3(sp)
   1DA0 5E                 8702 	ld	e,(hl)
   1DA1 23                 8703 	inc	hl
   1DA2 56                 8704 	ld	d,(hl)
   1DA3 3E 01              8705 	ld	a,#0x01
   1DA5 12                 8706 	ld	(de),a
                           8707 ;	game.c 935
                           8708 ; genPlus
                           8709 ; AOP_STK for _moveBandits_sloc0_1_0
                           8710 ; genPlusIncr
   1DA6 23                 8711 	inc	hl
   1DA7 23                 8712 	inc	hl
   1DA8 7E                 8713 	ld	a,(hl)
   1DA9 C6 0B              8714 	add	a,#0x0B
   1DAB 5F                 8715 	ld	e,a
   1DAC 23                 8716 	inc	hl
   1DAD 7E                 8717 	ld	a,(hl)
   1DAE CE 00              8718 	adc	a,#0x00
   1DB0 57                 8719 	ld	d,a
                           8720 ; genAssign (pointer)
   1DB1 3E 00              8721 	ld	a,#0x00
   1DB3 12                 8722 	ld	(de),a
                           8723 ; genGoto
   1DB4 C3 E7 1D           8724 	jp	00126$
                           8725 ; genLabel
   1DB7                    8726 00117$:
                           8727 ;	game.c 940
                           8728 ; genPlus
                           8729 ; AOP_STK for _moveBandits_sloc0_1_0
                           8730 ; genPlusIncr
   1DB7 F8 06              8731 	lda	hl,6(sp)
   1DB9 5E                 8732 	ld	e,(hl)
   1DBA 23                 8733 	inc	hl
   1DBB 56                 8734 	ld	d,(hl)
   1DBC 13                 8735 	inc	de
   1DBD 13                 8736 	inc	de
                           8737 ; genPointerGet
   1DBE 1A                 8738 	ld	a,(de)
   1DBF 4F                 8739 	ld	c,a
                           8740 ; genPlus
                           8741 ; AOP_STK for _moveBandits_sloc0_1_0
                           8742 ; genPlusIncr
   1DC0 2B                 8743 	dec	hl
   1DC1 5E                 8744 	ld	e,(hl)
   1DC2 23                 8745 	inc	hl
   1DC3 56                 8746 	ld	d,(hl)
   1DC4 13                 8747 	inc	de
                           8748 ; genPointerGet
                           8749 ; AOP_STK for _moveBandits_sloc4_1_0
   1DC5 1A                 8750 	ld	a,(de)
   1DC6 F8 00              8751 	lda	hl,0(sp)
   1DC8 77                 8752 	ld	(hl),a ; 3
                           8753 ; genPlus
                           8754 ; AOP_STK for _moveBandits_sloc0_1_0
                           8755 ; genPlusIncr
   1DC9 F8 06              8756 	lda	hl,6(sp)
   1DCB 7E                 8757 	ld	a,(hl)
   1DCC C6 05              8758 	add	a,#0x05
   1DCE 5F                 8759 	ld	e,a
   1DCF 23                 8760 	inc	hl
   1DD0 7E                 8761 	ld	a,(hl)
   1DD1 CE 00              8762 	adc	a,#0x00
   1DD3 57                 8763 	ld	d,a
                           8764 ; genPointerGet
   1DD4 1A                 8765 	ld	a,(de)
   1DD5 47                 8766 	ld	b,a
                           8767 ; genMinus
   1DD6 05                 8768 	dec	b
                           8769 ; genIpush
   1DD7 79                 8770 	ld	a,c
   1DD8 F5                 8771 	push	af
   1DD9 33                 8772 	inc	sp
                           8773 ; genIpush
                           8774 ; AOP_STK for _moveBandits_sloc4_1_0
   1DDA F8 01              8775 	lda	hl,1(sp)
   1DDC 7E                 8776 	ld	a,(hl)
   1DDD F5                 8777 	push	af
   1DDE 33                 8778 	inc	sp
                           8779 ; genIpush
   1DDF 78                 8780 	ld	a,b
   1DE0 F5                 8781 	push	af
   1DE1 33                 8782 	inc	sp
                           8783 ; genCall
   1DE2 CD D4 14           8784 	call	_BanditDie
   1DE5 E8 03              8785 	lda	sp,3(sp)
                           8786 ; genLabel
   1DE7                    8787 00126$:
                           8788 ;	game.c 900
                           8789 ; genPlus
                           8790 ; AOP_HL for _i
                           8791 ; genPlusIncr
   1DE7 21 3D 00           8792 	ld	hl,#_i + 0
   1DEA 34                 8793 	inc	(hl)
                           8794 ; genGoto
   1DEB C3 DA 1B           8795 	jp	00124$
                           8796 ; genLabel
   1DEE                    8797 00128$:
                           8798 ; genEndFunction
   1DEE E8 08              8799 	lda	sp,8(sp)
   1DF0 C1                 8800 	pop bc
   1DF1 C9                 8801 	ret
   1DF2                    8802 ___moveBandits_end:
                           8803 ;	game.c 951
                           8804 ; genLabel
                           8805 ; genFunction
                           8806 ;	---------------------------------
                           8807 ; Function checkColliderHammerAttack
                           8808 ; ---------------------------------
   1DF2                    8809 ___checkColliderHammerAttack_start:
   1DF2                    8810 _checkColliderHammerAttack:
   1DF2 C5                 8811 	push	bc
   1DF3 E8 FB              8812 	lda sp,-5(sp)
                           8813 ;	game.c 953
                           8814 ; genAssign
                           8815 ; AOP_HL for _i
   1DF5 21 3D 00           8816 	ld	hl,#_i + 0
   1DF8 36 00              8817 	ld	(hl),#0x00
                           8818 ; genLabel
   1DFA                    8819 00109$:
                           8820 ; genCmpLt
                           8821 ; AOP_HL for _i
                           8822 ; AOP_HL for _nbBanditToDraw
   1DFA AF                 8823 	xor	a,a
   1DFB 21 3D 00           8824 	ld	hl,#_i + 0
   1DFE 7E                 8825 	ld	a,(hl)
   1DFF 21 2D 00           8826 	ld	hl,#_nbBanditToDraw + 0
   1E02 9E                 8827 	sbc	a,(hl) ; 2
   1E03 D2 A9 1E           8828 	jp	nc,00113$
                           8829 ;	game.c 954
                           8830 ; genIpush
   1E06 3E 0E              8831 	ld	a,#0x0E
   1E08 F5                 8832 	push	af
   1E09 33                 8833 	inc	sp
                           8834 ; genIpush
                           8835 ; AOP_HL for _i
   1E0A 21 3D 00           8836 	ld	hl,#_i + 0
   1E0D 7E                 8837 	ld	a,(hl)
   1E0E F5                 8838 	push	af
   1E0F 33                 8839 	inc	sp
                           8840 ; genCall
   1E10 CD 00 00           8841 	call	__muluchar
   1E13 4B                 8842 	ld	c,e
   1E14 E8 02              8843 	lda	sp,2(sp)
                           8844 ; genPlus
                           8845 ; AOP_STK for _checkColliderHammerAttack_sloc2_1_0
   1E16 3E 02              8846 	ld	a,#<_bandits
   1E18 81                 8847 	add	a,c
   1E19 F8 00              8848 	lda	hl,0(sp)
   1E1B 77                 8849 	ld	(hl),a ; 3
   1E1C 3E 00              8850 	ld	a,#>_bandits
   1E1E CE 00              8851 	adc	a,#0x00
   1E20 23                 8852 	inc	hl
   1E21 77                 8853 	ld	(hl),a ; 3
                           8854 ; genPointerGet
                           8855 ; AOP_STK for _checkColliderHammerAttack_sloc2_1_0
                           8856 ; AOP_STK for _checkColliderHammerAttack_sloc0_1_0
   1E22 2B                 8857 	dec	hl
   1E23 5E                 8858 	ld	e,(hl)
   1E24 23                 8859 	inc	hl
   1E25 56                 8860 	ld	d,(hl)
   1E26 1A                 8861 	ld	a,(de)
   1E27 F8 04              8862 	lda	hl,4(sp)
   1E29 77                 8863 	ld	(hl),a ; 3
                           8864 ; genCmpEq
                           8865 ; AOP_STK for _checkColliderHammerAttack_sloc0_1_0
   1E2A 7E                 8866 	ld	a,(hl) ; 2
   1E2B FE 01              8867 	cp	a,#0x01
   1E2D C2 32 1E           8868 	jp	nz,00123$
   1E30 18 03              8869 	jr	00124$
   1E32                    8870 00123$:
   1E32 C3 A2 1E           8871 	jp	00111$
   1E35                    8872 00124$:
                           8873 ; genPlus
                           8874 ; AOP_STK for _checkColliderHammerAttack_sloc2_1_0
                           8875 ; AOP_STK for _checkColliderHammerAttack_sloc1_1_0
                           8876 ; genPlusIncr
   1E35 F8 00              8877 	lda	hl,0(sp)
   1E37 7E                 8878 	ld	a,(hl)
   1E38 C6 0C              8879 	add	a,#0x0C
   1E3A 23                 8880 	inc	hl
   1E3B 23                 8881 	inc	hl
   1E3C 77                 8882 	ld	(hl),a ; 3
   1E3D 2B                 8883 	dec	hl
   1E3E 7E                 8884 	ld	a,(hl)
   1E3F CE 00              8885 	adc	a,#0x00
   1E41 23                 8886 	inc	hl
   1E42 23                 8887 	inc	hl
   1E43 77                 8888 	ld	(hl),a ; 3
                           8889 ; genPointerGet
                           8890 ; AOP_STK for _checkColliderHammerAttack_sloc1_1_0
   1E44 2B                 8891 	dec	hl
   1E45 5E                 8892 	ld	e,(hl)
   1E46 23                 8893 	inc	hl
   1E47 56                 8894 	ld	d,(hl)
   1E48 1A                 8895 	ld	a,(de)
   1E49 4F                 8896 	ld	c,a
                           8897 ; genCmpEq
   1E4A 79                 8898 	ld	a,c
   1E4B B7                 8899 	or	a,a
   1E4C C2 51 1E           8900 	jp	nz,00125$
   1E4F 18 03              8901 	jr	00126$
   1E51                    8902 00125$:
   1E51 C3 A2 1E           8903 	jp	00111$
   1E54                    8904 00126$:
                           8905 ;	game.c 955
                           8906 ; genPlus
                           8907 ; AOP_STK for _checkColliderHammerAttack_sloc2_1_0
                           8908 ; genPlusIncr
   1E54 F8 00              8909 	lda	hl,0(sp)
   1E56 5E                 8910 	ld	e,(hl)
   1E57 23                 8911 	inc	hl
   1E58 56                 8912 	ld	d,(hl)
   1E59 13                 8913 	inc	de
                           8914 ; genPointerGet
   1E5A 1A                 8915 	ld	a,(de)
   1E5B 4F                 8916 	ld	c,a
                           8917 ; genPlus
                           8918 ; AOP_HL for _posXJudge
                           8919 ; genPlusIncr
   1E5C 21 2E 00           8920 	ld	hl,#_posXJudge + 0
   1E5F 7E                 8921 	ld	a,(hl)
   1E60 C6 08              8922 	add	a,#0x08
   1E62 47                 8923 	ld	b,a
                           8924 ; genCmpLt
   1E63 AF                 8925 	xor	a,a
   1E64 79                 8926 	ld	a,c
   1E65 98                 8927 	sbc	a,b ; 2
   1E66 D2 A2 1E           8928 	jp	nc,00111$
                           8929 ; genCmpGt
                           8930 ; AOP_HL for _posXJudge
   1E69 AF                 8931 	xor	a,a
   1E6A 7E                 8932 	ld	a,(hl)
   1E6B 99                 8933 	sbc	a,c ; 2
   1E6C D2 A2 1E           8934 	jp	nc,00111$
                           8935 ; genPlus
                           8936 ; AOP_STK for _checkColliderHammerAttack_sloc2_1_0
                           8937 ; genPlusIncr
   1E6F F8 00              8938 	lda	hl,0(sp)
   1E71 5E                 8939 	ld	e,(hl)
   1E72 23                 8940 	inc	hl
   1E73 56                 8941 	ld	d,(hl)
   1E74 13                 8942 	inc	de
   1E75 13                 8943 	inc	de
                           8944 ; genPointerGet
   1E76 1A                 8945 	ld	a,(de)
   1E77 4F                 8946 	ld	c,a
                           8947 ; genPlus
                           8948 ; AOP_HL for _posYJudge
                           8949 ; genPlusIncr
   1E78 21 2F 00           8950 	ld	hl,#_posYJudge + 0
   1E7B 7E                 8951 	ld	a,(hl)
   1E7C C6 18              8952 	add	a,#0x18
   1E7E 47                 8953 	ld	b,a
                           8954 ; genCmpLt
   1E7F AF                 8955 	xor	a,a
   1E80 79                 8956 	ld	a,c
   1E81 98                 8957 	sbc	a,b ; 2
   1E82 D2 A2 1E           8958 	jp	nc,00111$
                           8959 ; genPlus
                           8960 ; AOP_HL for _posYJudge
                           8961 ; genPlusIncr
   1E85 7E                 8962 	ld	a,(hl)
   1E86 C6 08              8963 	add	a,#0x08
   1E88 47                 8964 	ld	b,a
                           8965 ; genCmpGt
   1E89 AF                 8966 	xor	a,a
   1E8A 78                 8967 	ld	a,b
   1E8B 99                 8968 	sbc	a,c ; 2
   1E8C D2 A2 1E           8969 	jp	nc,00111$
                           8970 ;	game.c 956
                           8971 ; genAssign (pointer)
                           8972 ; AOP_STK for _checkColliderHammerAttack_sloc1_1_0
   1E8F F8 02              8973 	lda	hl,2(sp)
   1E91 5E                 8974 	ld	e,(hl)
   1E92 23                 8975 	inc	hl
   1E93 56                 8976 	ld	d,(hl)
   1E94 3E 01              8977 	ld	a,#0x01
   1E96 12                 8978 	ld	(de),a
                           8979 ;	game.c 958
                           8980 ; genPlus
                           8981 ; AOP_HL for _score_bandit
                           8982 ; genPlusIncr
   1E97 21 47 00           8983 	ld	hl,#_score_bandit + 0
   1E9A 34                 8984 	inc	(hl)
                           8985 ;	game.c 959
                           8986 ; genPlus
                           8987 ; AOP_HL for _score_bandit_digitUn
                           8988 ; genPlusIncr
   1E9B 21 44 00           8989 	ld	hl,#_score_bandit_digitUn + 0
   1E9E 34                 8990 	inc	(hl)
                           8991 ;	game.c 960
                           8992 ; genCall
   1E9F CD 83 00           8993 	call	_checkBanditScore
                           8994 ; genLabel
   1EA2                    8995 00111$:
                           8996 ;	game.c 953
                           8997 ; genPlus
                           8998 ; AOP_HL for _i
                           8999 ; genPlusIncr
   1EA2 21 3D 00           9000 	ld	hl,#_i + 0
   1EA5 34                 9001 	inc	(hl)
                           9002 ; genGoto
   1EA6 C3 FA 1D           9003 	jp	00109$
                           9004 ; genLabel
   1EA9                    9005 00113$:
                           9006 ; genEndFunction
   1EA9 E8 05              9007 	lda	sp,5(sp)
   1EAB C1                 9008 	pop bc
   1EAC C9                 9009 	ret
   1EAD                    9010 ___checkColliderHammerAttack_end:
                           9011 ;	game.c 967
                           9012 ; genLabel
                           9013 ; genFunction
                           9014 ;	---------------------------------
                           9015 ; Function checkCollideBorder
                           9016 ; ---------------------------------
   1EAD                    9017 ___checkCollideBorder_start:
   1EAD                    9018 _checkCollideBorder:
   1EAD C5                 9019 	push	bc
                           9020 ;	game.c 971
                           9021 ; genCmpLt
                           9022 ; AOP_STK for 
                           9023 ; AOP_HL for _borderTop
   1EAE AF                 9024 	xor	a,a
   1EAF F8 05              9025 	lda	hl,5(sp)
   1EB1 7E                 9026 	ld	a,(hl)
   1EB2 21 41 00           9027 	ld	hl,#_borderTop + 0
   1EB5 9E                 9028 	sbc	a,(hl) ; 2
   1EB6 D2 BE 1E           9029 	jp	nc,00102$
                           9030 ;	game.c 972
                           9031 ; genAssign
                           9032 ; AOP_HL for _borderTop
                           9033 ; AOP_HL for _posYJudge
   1EB9 7E                 9034 	ld	a,(hl)
   1EBA 21 2F 00           9035 	ld	hl,#_posYJudge + 0
   1EBD 77                 9036 	ld	(hl),a
                           9037 ; genLabel
   1EBE                    9038 00102$:
                           9039 ;	game.c 975
                           9040 ; genCmpGt
                           9041 ; AOP_STK for 
                           9042 ; AOP_HL for _borderBottom
   1EBE AF                 9043 	xor	a,a
   1EBF 21 42 00           9044 	ld	hl,#_borderBottom + 0
   1EC2 7E                 9045 	ld	a,(hl)
   1EC3 F8 05              9046 	lda	hl,5(sp)
   1EC5 9E                 9047 	sbc	a,(hl) ; 2
   1EC6 D2 D1 1E           9048 	jp	nc,00104$
                           9049 ;	game.c 976
                           9050 ; genAssign
                           9051 ; AOP_HL for _borderBottom
                           9052 ; AOP_HL for _posYJudge
   1EC9 21 42 00           9053 	ld	hl,#_borderBottom + 0
   1ECC 7E                 9054 	ld	a,(hl)
   1ECD 21 2F 00           9055 	ld	hl,#_posYJudge + 0
   1ED0 77                 9056 	ld	(hl),a
                           9057 ; genLabel
   1ED1                    9058 00104$:
                           9059 ;	game.c 981
                           9060 ; genCmpGt
                           9061 ; AOP_STK for 
                           9062 ; AOP_HL for _borderRight
   1ED1 AF                 9063 	xor	a,a
   1ED2 21 3F 00           9064 	ld	hl,#_borderRight + 0
   1ED5 7E                 9065 	ld	a,(hl)
   1ED6 F8 04              9066 	lda	hl,4(sp)
   1ED8 9E                 9067 	sbc	a,(hl) ; 2
   1ED9 D2 E4 1E           9068 	jp	nc,00106$
                           9069 ;	game.c 982
                           9070 ; genAssign
                           9071 ; AOP_HL for _borderRight
                           9072 ; AOP_HL for _posXJudge
   1EDC 21 3F 00           9073 	ld	hl,#_borderRight + 0
   1EDF 7E                 9074 	ld	a,(hl)
   1EE0 21 2E 00           9075 	ld	hl,#_posXJudge + 0
   1EE3 77                 9076 	ld	(hl),a
                           9077 ; genLabel
   1EE4                    9078 00106$:
                           9079 ;	game.c 985
                           9080 ; genCmpLt
                           9081 ; AOP_STK for 
                           9082 ; AOP_HL for _borderLeft
   1EE4 AF                 9083 	xor	a,a
   1EE5 F8 04              9084 	lda	hl,4(sp)
   1EE7 7E                 9085 	ld	a,(hl)
   1EE8 21 40 00           9086 	ld	hl,#_borderLeft + 0
   1EEB 9E                 9087 	sbc	a,(hl) ; 2
   1EEC D2 F4 1E           9088 	jp	nc,00109$
                           9089 ;	game.c 986
                           9090 ; genAssign
                           9091 ; AOP_HL for _borderLeft
                           9092 ; AOP_HL for _posXJudge
   1EEF 7E                 9093 	ld	a,(hl)
   1EF0 21 2E 00           9094 	ld	hl,#_posXJudge + 0
   1EF3 77                 9095 	ld	(hl),a
                           9096 ; genLabel
   1EF4                    9097 00109$:
                           9098 ; genEndFunction
   1EF4 C1                 9099 	pop	bc
   1EF5 C9                 9100 	ret
   1EF6                    9101 ___checkCollideBorder_end:
                           9102 ;	game.c 991
                           9103 ; genLabel
                           9104 ; genFunction
                           9105 ;	---------------------------------
                           9106 ; Function moveJudge
                           9107 ; ---------------------------------
   1EF6                    9108 ___moveJudge_start:
   1EF6                    9109 _moveJudge:
   1EF6 C5                 9110 	push	bc
                           9111 ;	game.c 993
                           9112 ; genCall
   1EF7 CD 00 00           9113 	call	_joypad
   1EFA 4B                 9114 	ld	c,e
                           9115 ; genIfx
                           9116 ; Removed redundent or a,a
   1EFB AF                 9117 	xor	a,a
   1EFC B1                 9118 	or	a,c
   1EFD CA 12 20           9119 	jp	z,00124$
                           9120 ;	game.c 994
                           9121 ; genCall
   1F00 CD 00 00           9122 	call	_joypad
   1F03 4B                 9123 	ld	c,e
                           9124 ; genAnd
   1F04 79                 9125 	ld	a,c
   1F05 CB 47              9126 	bit	0,a
   1F07 CA 37 1F           9127 	jp	z,00104$
                           9128 ;	game.c 995
                           9129 ; genCmpEq
                           9130 ; AOP_HL for _isAttacking
   1F0A 21 3B 00           9131 	ld	hl,#_isAttacking + 0
   1F0D 7E                 9132 	ld	a,(hl)
   1F0E B7                 9133 	or	a,a
   1F0F C2 14 1F           9134 	jp	nz,00143$
   1F12 18 03              9135 	jr	00144$
   1F14                    9136 00143$:
   1F14 C3 23 1F           9137 	jp	00102$
   1F17                    9138 00144$:
                           9139 ;	game.c 996
                           9140 ; genPlus
                           9141 ; AOP_HL for _posXJudge
                           9142 ; AOP_HL for _JudgeSpeed
   1F17 21 2E 00           9143 	ld	hl,#_posXJudge + 0
   1F1A 7E                 9144 	ld	a,(hl)
   1F1B 21 33 00           9145 	ld	hl,#_JudgeSpeed + 0
   1F1E 86                 9146 	add	a,(hl)
   1F1F 21 2E 00           9147 	ld	hl,#_posXJudge + 0
   1F22 77                 9148 	ld	(hl),a
                           9149 ; genLabel
   1F23                    9150 00102$:
                           9151 ;	game.c 999
                           9152 ; genIpush
                           9153 ; AOP_HL for _posYJudge
   1F23 21 2F 00           9154 	ld	hl,#_posYJudge + 0
   1F26 7E                 9155 	ld	a,(hl)
   1F27 F5                 9156 	push	af
   1F28 33                 9157 	inc	sp
                           9158 ; genIpush
                           9159 ; AOP_HL for _posXJudge
   1F29 21 2E 00           9160 	ld	hl,#_posXJudge + 0
   1F2C 7E                 9161 	ld	a,(hl)
   1F2D F5                 9162 	push	af
   1F2E 33                 9163 	inc	sp
                           9164 ; genCall
   1F2F CD AD 1E           9165 	call	_checkCollideBorder
   1F32 E8 02              9166 	lda	sp,2(sp)
                           9167 ;	game.c 1000
                           9168 ; genCall
   1F34 CD C4 15           9169 	call	_JudgeWalk
                           9170 ; genLabel
   1F37                    9171 00104$:
                           9172 ;	game.c 1002
                           9173 ; genCall
   1F37 CD 00 00           9174 	call	_joypad
   1F3A 4B                 9175 	ld	c,e
                           9176 ; genAnd
   1F3B 79                 9177 	ld	a,c
   1F3C CB 57              9178 	bit	2,a
   1F3E CA 6B 1F           9179 	jp	z,00108$
                           9180 ;	game.c 1004
                           9181 ; genCmpEq
                           9182 ; AOP_HL for _isAttacking
   1F41 21 3B 00           9183 	ld	hl,#_isAttacking + 0
   1F44 7E                 9184 	ld	a,(hl)
   1F45 B7                 9185 	or	a,a
   1F46 C2 4B 1F           9186 	jp	nz,00145$
   1F49 18 03              9187 	jr	00146$
   1F4B                    9188 00145$:
   1F4B C3 6B 1F           9189 	jp	00108$
   1F4E                    9190 00146$:
                           9191 ;	game.c 1005
                           9192 ; genMinus
                           9193 ; AOP_HL for _posYJudge
                           9194 ; AOP_HL for _JudgeSpeed
   1F4E 21 2F 00           9195 	ld	hl,#_posYJudge + 0
   1F51 7E                 9196 	ld	a,(hl)
   1F52 21 33 00           9197 	ld	hl,#_JudgeSpeed + 0
   1F55 96                 9198 	sub	a,(hl)
   1F56 21 2F 00           9199 	ld	hl,#_posYJudge + 0
   1F59 77                 9200 	ld	(hl),a
                           9201 ;	game.c 1006
                           9202 ; genIpush
                           9203 ; AOP_HL for _posYJudge
   1F5A 7E                 9204 	ld	a,(hl)
   1F5B F5                 9205 	push	af
   1F5C 33                 9206 	inc	sp
                           9207 ; genIpush
                           9208 ; AOP_HL for _posXJudge
   1F5D 21 2E 00           9209 	ld	hl,#_posXJudge + 0
   1F60 7E                 9210 	ld	a,(hl)
   1F61 F5                 9211 	push	af
   1F62 33                 9212 	inc	sp
                           9213 ; genCall
   1F63 CD AD 1E           9214 	call	_checkCollideBorder
   1F66 E8 02              9215 	lda	sp,2(sp)
                           9216 ;	game.c 1007
                           9217 ; genCall
   1F68 CD C4 15           9218 	call	_JudgeWalk
                           9219 ; genLabel
   1F6B                    9220 00108$:
                           9221 ;	game.c 1011
                           9222 ; genCall
   1F6B CD 00 00           9223 	call	_joypad
   1F6E 4B                 9224 	ld	c,e
                           9225 ; genAnd
   1F6F 79                 9226 	ld	a,c
   1F70 CB 5F              9227 	bit	3,a
   1F72 CA A2 1F           9228 	jp	z,00112$
                           9229 ;	game.c 1012
                           9230 ; genCmpEq
                           9231 ; AOP_HL for _isAttacking
   1F75 21 3B 00           9232 	ld	hl,#_isAttacking + 0
   1F78 7E                 9233 	ld	a,(hl)
   1F79 B7                 9234 	or	a,a
   1F7A C2 7F 1F           9235 	jp	nz,00147$
   1F7D 18 03              9236 	jr	00148$
   1F7F                    9237 00147$:
   1F7F C3 8E 1F           9238 	jp	00110$
   1F82                    9239 00148$:
                           9240 ;	game.c 1013
                           9241 ; genPlus
                           9242 ; AOP_HL for _posYJudge
                           9243 ; AOP_HL for _JudgeSpeed
   1F82 21 2F 00           9244 	ld	hl,#_posYJudge + 0
   1F85 7E                 9245 	ld	a,(hl)
   1F86 21 33 00           9246 	ld	hl,#_JudgeSpeed + 0
   1F89 86                 9247 	add	a,(hl)
   1F8A 21 2F 00           9248 	ld	hl,#_posYJudge + 0
   1F8D 77                 9249 	ld	(hl),a
                           9250 ; genLabel
   1F8E                    9251 00110$:
                           9252 ;	game.c 1015
                           9253 ; genIpush
                           9254 ; AOP_HL for _posYJudge
   1F8E 21 2F 00           9255 	ld	hl,#_posYJudge + 0
   1F91 7E                 9256 	ld	a,(hl)
   1F92 F5                 9257 	push	af
   1F93 33                 9258 	inc	sp
                           9259 ; genIpush
                           9260 ; AOP_HL for _posXJudge
   1F94 21 2E 00           9261 	ld	hl,#_posXJudge + 0
   1F97 7E                 9262 	ld	a,(hl)
   1F98 F5                 9263 	push	af
   1F99 33                 9264 	inc	sp
                           9265 ; genCall
   1F9A CD AD 1E           9266 	call	_checkCollideBorder
   1F9D E8 02              9267 	lda	sp,2(sp)
                           9268 ;	game.c 1016
                           9269 ; genCall
   1F9F CD C4 15           9270 	call	_JudgeWalk
                           9271 ; genLabel
   1FA2                    9272 00112$:
                           9273 ;	game.c 1019
                           9274 ; genCall
   1FA2 CD 00 00           9275 	call	_joypad
   1FA5 4B                 9276 	ld	c,e
                           9277 ; genAnd
   1FA6 79                 9278 	ld	a,c
   1FA7 CB 4F              9279 	bit	1,a
   1FA9 CA D9 1F           9280 	jp	z,00116$
                           9281 ;	game.c 1020
                           9282 ; genCmpEq
                           9283 ; AOP_HL for _isAttacking
   1FAC 21 3B 00           9284 	ld	hl,#_isAttacking + 0
   1FAF 7E                 9285 	ld	a,(hl)
   1FB0 B7                 9286 	or	a,a
   1FB1 C2 B6 1F           9287 	jp	nz,00149$
   1FB4 18 03              9288 	jr	00150$
   1FB6                    9289 00149$:
   1FB6 C3 C5 1F           9290 	jp	00114$
   1FB9                    9291 00150$:
                           9292 ;	game.c 1021
                           9293 ; genMinus
                           9294 ; AOP_HL for _posXJudge
                           9295 ; AOP_HL for _JudgeSpeed
   1FB9 21 2E 00           9296 	ld	hl,#_posXJudge + 0
   1FBC 7E                 9297 	ld	a,(hl)
   1FBD 21 33 00           9298 	ld	hl,#_JudgeSpeed + 0
   1FC0 96                 9299 	sub	a,(hl)
   1FC1 21 2E 00           9300 	ld	hl,#_posXJudge + 0
   1FC4 77                 9301 	ld	(hl),a
                           9302 ; genLabel
   1FC5                    9303 00114$:
                           9304 ;	game.c 1024
                           9305 ; genIpush
                           9306 ; AOP_HL for _posYJudge
   1FC5 21 2F 00           9307 	ld	hl,#_posYJudge + 0
   1FC8 7E                 9308 	ld	a,(hl)
   1FC9 F5                 9309 	push	af
   1FCA 33                 9310 	inc	sp
                           9311 ; genIpush
                           9312 ; AOP_HL for _posXJudge
   1FCB 21 2E 00           9313 	ld	hl,#_posXJudge + 0
   1FCE 7E                 9314 	ld	a,(hl)
   1FCF F5                 9315 	push	af
   1FD0 33                 9316 	inc	sp
                           9317 ; genCall
   1FD1 CD AD 1E           9318 	call	_checkCollideBorder
   1FD4 E8 02              9319 	lda	sp,2(sp)
                           9320 ;	game.c 1025
                           9321 ; genCall
   1FD6 CD C4 15           9322 	call	_JudgeWalk
                           9323 ; genLabel
   1FD9                    9324 00116$:
                           9325 ;	game.c 1027
                           9326 ; genCall
   1FD9 CD 00 00           9327 	call	_joypad
   1FDC 4B                 9328 	ld	c,e
                           9329 ; genAnd
   1FDD 79                 9330 	ld	a,c
   1FDE CB 67              9331 	bit	4,a
   1FE0 CA E8 1F           9332 	jp	z,00118$
                           9333 ;	game.c 1028
                           9334 ; genAssign
                           9335 ; AOP_HL for _isAttacking
   1FE3 21 3B 00           9336 	ld	hl,#_isAttacking + 0
   1FE6 36 01              9337 	ld	(hl),#0x01
                           9338 ; genLabel
   1FE8                    9339 00118$:
                           9340 ;	game.c 1032
                           9341 ; genCall
   1FE8 CD 00 00           9342 	call	_joypad
   1FEB 4B                 9343 	ld	c,e
                           9344 ; genAnd
   1FEC 79                 9345 	ld	a,c
   1FED CB 6F              9346 	bit	5,a
   1FEF CA 17 20           9347 	jp	z,00125$
                           9348 ;	game.c 1033
                           9349 ; genCmpEq
                           9350 ; AOP_HL for _shockSend
   1FF2 21 32 00           9351 	ld	hl,#_shockSend + 0
   1FF5 7E                 9352 	ld	a,(hl)
   1FF6 B7                 9353 	or	a,a
   1FF7 C2 FC 1F           9354 	jp	nz,00151$
   1FFA 18 03              9355 	jr	00152$
   1FFC                    9356 00151$:
   1FFC C3 17 20           9357 	jp	00125$
   1FFF                    9358 00152$:
                           9359 ;	game.c 1034
                           9360 ; genAssign
                           9361 ; AOP_HL for _shockSend
   1FFF 21 32 00           9362 	ld	hl,#_shockSend + 0
   2002 36 01              9363 	ld	(hl),#0x01
                           9364 ;	game.c 1035
                           9365 ; genAssign
                           9366 ; AOP_HL for _isAttacking
   2004 21 3B 00           9367 	ld	hl,#_isAttacking + 0
   2007 36 01              9368 	ld	(hl),#0x01
                           9369 ;	game.c 1036
                           9370 ; genCall
   2009 CD 00 00           9371 	call	_sound_jump
                           9372 ;	game.c 1037
                           9373 ; genCall
   200C CD 74 16           9374 	call	_JudgeSendSentence
                           9375 ; genGoto
   200F C3 17 20           9376 	jp	00125$
                           9377 ; genLabel
   2012                    9378 00124$:
                           9379 ;	game.c 1043
                           9380 ; genAssign
                           9381 ; AOP_HL for _isWalking
   2012 21 3A 00           9382 	ld	hl,#_isWalking + 0
   2015 36 00              9383 	ld	(hl),#0x00
                           9384 ; genLabel
   2017                    9385 00125$:
                           9386 ;	game.c 1046
                           9387 ; genCmpEq
                           9388 ; AOP_HL for _isHurt
   2017 21 3C 00           9389 	ld	hl,#_isHurt + 0
   201A 7E                 9390 	ld	a,(hl) ; 2
   201B FE 01              9391 	cp	a,#0x01
   201D C2 22 20           9392 	jp	nz,00153$
   2020 18 03              9393 	jr	00154$
   2022                    9394 00153$:
   2022 C3 28 20           9395 	jp	00128$
   2025                    9396 00154$:
                           9397 ;	game.c 1047
                           9398 ; genCall
   2025 CD 84 15           9399 	call	_JudgeDoHurt
                           9400 ; genLabel
   2028                    9401 00128$:
                           9402 ; genEndFunction
   2028 C1                 9403 	pop	bc
   2029 C9                 9404 	ret
   202A                    9405 ___moveJudge_end:
                           9406 ;	game.c 1056
                           9407 ; genLabel
                           9408 ; genFunction
                           9409 ;	---------------------------------
                           9410 ; Function scrollCity
                           9411 ; ---------------------------------
   202A                    9412 ___scrollCity_start:
   202A                    9413 _scrollCity:
   202A C5                 9414 	push	bc
   202B E8 FD              9415 	lda sp,-3(sp)
                           9416 ;	game.c 1059
                           9417 ; genIpush
   202D 3E 02              9418 	ld	a,#0x02
   202F F5                 9419 	push	af
   2030 33                 9420 	inc	sp
                           9421 ; genIpush
                           9422 ; AOP_HL for _TimerScrollBKG
   2031 21 39 00           9423 	ld	hl,#_TimerScrollBKG + 0
   2034 7E                 9424 	ld	a,(hl)
   2035 F5                 9425 	push	af
   2036 33                 9426 	inc	sp
                           9427 ; genCall
   2037 CD 00 00           9428 	call	__moduchar
   203A 4B                 9429 	ld	c,e
   203B E8 02              9430 	lda	sp,2(sp)
                           9431 ; genCmpEq
   203D 79                 9432 	ld	a,c
   203E B7                 9433 	or	a,a
   203F C2 44 20           9434 	jp	nz,00115$
   2042 18 03              9435 	jr	00116$
   2044                    9436 00115$:
   2044 C3 B7 20           9437 	jp	00102$
   2047                    9438 00116$:
                           9439 ;	game.c 1060
                           9440 ; genIpush
   2047 3E 00              9441 	ld	a,#0x00
   2049 F5                 9442 	push	af
   204A 33                 9443 	inc	sp
                           9444 ; genIpush
   204B 3E 01              9445 	ld	a,#0x01
   204D F5                 9446 	push	af
   204E 33                 9447 	inc	sp
                           9448 ; genCall
   204F CD 00 00           9449 	call	_scroll_bkg
   2052 E8 02              9450 	lda	sp,2(sp)
                           9451 ;	game.c 1061
                           9452 ; genMinus
                           9453 ; AOP_HL for _posXJudge
   2054 21 2E 00           9454 	ld	hl,#_posXJudge + 0
   2057 35                 9455 	dec	(hl)
                           9456 ;	game.c 1062
                           9457 ; genAssign
                           9458 ; AOP_HL for _i
   2058 21 3D 00           9459 	ld	hl,#_i + 0
   205B 36 00              9460 	ld	(hl),#0x00
                           9461 ; genLabel
   205D                    9462 00105$:
                           9463 ; genCmpLt
                           9464 ; AOP_HL for _i
                           9465 ; AOP_HL for _nbBanditToDraw
   205D AF                 9466 	xor	a,a
   205E 21 3D 00           9467 	ld	hl,#_i + 0
   2061 7E                 9468 	ld	a,(hl)
   2062 21 2D 00           9469 	ld	hl,#_nbBanditToDraw + 0
   2065 9E                 9470 	sbc	a,(hl) ; 2
   2066 D2 A6 20           9471 	jp	nc,00108$
                           9472 ;	game.c 1063
                           9473 ; genIpush
   2069 3E 0E              9474 	ld	a,#0x0E
   206B F5                 9475 	push	af
   206C 33                 9476 	inc	sp
                           9477 ; genIpush
                           9478 ; AOP_HL for _i
   206D 21 3D 00           9479 	ld	hl,#_i + 0
   2070 7E                 9480 	ld	a,(hl)
   2071 F5                 9481 	push	af
   2072 33                 9482 	inc	sp
                           9483 ; genCall
   2073 CD 00 00           9484 	call	__muluchar
   2076 4B                 9485 	ld	c,e
   2077 E8 02              9486 	lda	sp,2(sp)
                           9487 ; genPlus
   2079 3E 02              9488 	ld	a,#<_bandits
   207B 81                 9489 	add	a,c
   207C 4F                 9490 	ld	c,a
   207D 3E 00              9491 	ld	a,#>_bandits
   207F CE 00              9492 	adc	a,#0x00
   2081 47                 9493 	ld	b,a
                           9494 ; genPlus
                           9495 ; AOP_STK for _scrollCity_sloc1_1_0
                           9496 ; genPlusIncr
   2082 79                 9497 	ld	a,c
   2083 C6 01              9498 	add	a,#0x01
   2085 F8 00              9499 	lda	hl,0(sp)
   2087 77                 9500 	ld	(hl),a ; 3
   2088 78                 9501 	ld	a,b
   2089 CE 00              9502 	adc	a,#0x00
   208B 23                 9503 	inc	hl
   208C 77                 9504 	ld	(hl),a ; 3
                           9505 ; genPointerGet
                           9506 ; AOP_STK for _scrollCity_sloc1_1_0
                           9507 ; AOP_STK for _scrollCity_sloc0_1_0
   208D 2B                 9508 	dec	hl
   208E 5E                 9509 	ld	e,(hl)
   208F 23                 9510 	inc	hl
   2090 56                 9511 	ld	d,(hl)
   2091 1A                 9512 	ld	a,(de)
   2092 23                 9513 	inc	hl
   2093 77                 9514 	ld	(hl),a ; 3
                           9515 ; genMinus
                           9516 ; AOP_STK for _scrollCity_sloc0_1_0
   2094 7E                 9517 	ld	a,(hl)
   2095 C6 FF              9518 	add	a,#0xFF
   2097 4F                 9519 	ld	c,a
                           9520 ; genAssign (pointer)
                           9521 ; AOP_STK for _scrollCity_sloc1_1_0
   2098 2B                 9522 	dec	hl
   2099 2B                 9523 	dec	hl
   209A 5E                 9524 	ld	e,(hl)
   209B 23                 9525 	inc	hl
   209C 56                 9526 	ld	d,(hl)
   209D 79                 9527 	ld	a,c
   209E 12                 9528 	ld	(de),a
                           9529 ;	game.c 1062
                           9530 ; genPlus
                           9531 ; AOP_HL for _i
                           9532 ; genPlusIncr
   209F 21 3D 00           9533 	ld	hl,#_i + 0
   20A2 34                 9534 	inc	(hl)
                           9535 ; genGoto
   20A3 C3 5D 20           9536 	jp	00105$
                           9537 ; genLabel
   20A6                    9538 00108$:
                           9539 ;	game.c 1066
                           9540 ; genIpush
                           9541 ; AOP_HL for _posYJudge
   20A6 21 2F 00           9542 	ld	hl,#_posYJudge + 0
   20A9 7E                 9543 	ld	a,(hl)
   20AA F5                 9544 	push	af
   20AB 33                 9545 	inc	sp
                           9546 ; genIpush
                           9547 ; AOP_HL for _posXJudge
   20AC 21 2E 00           9548 	ld	hl,#_posXJudge + 0
   20AF 7E                 9549 	ld	a,(hl)
   20B0 F5                 9550 	push	af
   20B1 33                 9551 	inc	sp
                           9552 ; genCall
   20B2 CD AD 1E           9553 	call	_checkCollideBorder
   20B5 E8 02              9554 	lda	sp,2(sp)
                           9555 ; genLabel
   20B7                    9556 00102$:
                           9557 ;	game.c 1069
                           9558 ; genMinus
                           9559 ; AOP_HL for _TimerScrollBKG
   20B7 21 39 00           9560 	ld	hl,#_TimerScrollBKG + 0
   20BA 35                 9561 	dec	(hl)
                           9562 ;	game.c 1071
                           9563 ; genCmpGt
                           9564 ; AOP_HL for _TimerScrollBKG
   20BB AF                 9565 	xor	a,a
   20BC 3E 00              9566 	ld	a,#0x00
   20BE 9E                 9567 	sbc	a,(hl) ; 2
   20BF DA C4 20           9568 	jp	c,00109$
                           9569 ;	game.c 1073
                           9570 ; genAssign
                           9571 ; AOP_HL for _TimerScrollBKG
   20C2 36 0A              9572 	ld	(hl),#0x0A
                           9573 ; genLabel
   20C4                    9574 00109$:
                           9575 ; genEndFunction
   20C4 E8 03              9576 	lda	sp,3(sp)
   20C6 C1                 9577 	pop bc
   20C7 C9                 9578 	ret
   20C8                    9579 ___scrollCity_end:
                           9580 ;	game.c 1078
                           9581 ; genLabel
                           9582 ; genFunction
                           9583 ;	---------------------------------
                           9584 ; Function drawScoreBandit
                           9585 ; ---------------------------------
   20C8                    9586 ___drawScoreBandit_start:
   20C8                    9587 _drawScoreBandit:
   20C8 C5                 9588 	push	bc
                           9589 ;	game.c 1080
                           9590 ; genAssign
                           9591 ; AOP_HL for _score_bandit_digitUn
   20C9 21 44 00           9592 	ld	hl,#_score_bandit_digitUn + 0
   20CC 4E                 9593 	ld	c,(hl)
                           9594 ; genPlus
   20CD 3E 8E              9595 	ld	a,#<_zero
   20CF 81                 9596 	add	a,c
   20D0 4F                 9597 	ld	c,a
   20D1 3E 3F              9598 	ld	a,#>_zero
   20D3 CE 00              9599 	adc	a,#0x00
   20D5 47                 9600 	ld	b,a
                           9601 ; genIpush
   20D6 C5                 9602 	push	bc
                           9603 ; genIpush
   20D7 3E 01              9604 	ld	a,#0x01
   20D9 F5                 9605 	push	af
   20DA 33                 9606 	inc	sp
                           9607 ; genIpush
   20DB 3E 01              9608 	ld	a,#0x01
   20DD F5                 9609 	push	af
   20DE 33                 9610 	inc	sp
                           9611 ; genIpush
   20DF 3E 00              9612 	ld	a,#0x00
   20E1 F5                 9613 	push	af
   20E2 33                 9614 	inc	sp
                           9615 ; genIpush
   20E3 3E 32              9616 	ld	a,#0x32
   20E5 F5                 9617 	push	af
   20E6 33                 9618 	inc	sp
                           9619 ; genCall
   20E7 CD 00 00           9620 	call	_set_win_tiles
   20EA E8 06              9621 	lda	sp,6(sp)
                           9622 ;	game.c 1081
                           9623 ; genAssign
                           9624 ; AOP_HL for _score_bandit_digitDeux
   20EC 21 45 00           9625 	ld	hl,#_score_bandit_digitDeux + 0
   20EF 4E                 9626 	ld	c,(hl)
                           9627 ; genPlus
   20F0 3E 8E              9628 	ld	a,#<_zero
   20F2 81                 9629 	add	a,c
   20F3 4F                 9630 	ld	c,a
   20F4 3E 3F              9631 	ld	a,#>_zero
   20F6 CE 00              9632 	adc	a,#0x00
   20F8 47                 9633 	ld	b,a
                           9634 ; genIpush
   20F9 C5                 9635 	push	bc
                           9636 ; genIpush
   20FA 3E 01              9637 	ld	a,#0x01
   20FC F5                 9638 	push	af
   20FD 33                 9639 	inc	sp
                           9640 ; genIpush
   20FE 3E 01              9641 	ld	a,#0x01
   2100 F5                 9642 	push	af
   2101 33                 9643 	inc	sp
                           9644 ; genIpush
   2102 3E 00              9645 	ld	a,#0x00
   2104 F5                 9646 	push	af
   2105 33                 9647 	inc	sp
                           9648 ; genIpush
   2106 3E 31              9649 	ld	a,#0x31
   2108 F5                 9650 	push	af
   2109 33                 9651 	inc	sp
                           9652 ; genCall
   210A CD 00 00           9653 	call	_set_win_tiles
   210D E8 06              9654 	lda	sp,6(sp)
                           9655 ;	game.c 1082
                           9656 ; genAssign
                           9657 ; AOP_HL for _score_bandit_digitTrois
   210F 21 46 00           9658 	ld	hl,#_score_bandit_digitTrois + 0
   2112 4E                 9659 	ld	c,(hl)
                           9660 ; genPlus
   2113 3E 8E              9661 	ld	a,#<_zero
   2115 81                 9662 	add	a,c
   2116 4F                 9663 	ld	c,a
   2117 3E 3F              9664 	ld	a,#>_zero
   2119 CE 00              9665 	adc	a,#0x00
   211B 47                 9666 	ld	b,a
                           9667 ; genIpush
   211C C5                 9668 	push	bc
                           9669 ; genIpush
   211D 3E 01              9670 	ld	a,#0x01
   211F F5                 9671 	push	af
   2120 33                 9672 	inc	sp
                           9673 ; genIpush
   2121 3E 01              9674 	ld	a,#0x01
   2123 F5                 9675 	push	af
   2124 33                 9676 	inc	sp
                           9677 ; genIpush
   2125 3E 00              9678 	ld	a,#0x00
   2127 F5                 9679 	push	af
   2128 33                 9680 	inc	sp
                           9681 ; genIpush
   2129 3E 30              9682 	ld	a,#0x30
   212B F5                 9683 	push	af
   212C 33                 9684 	inc	sp
                           9685 ; genCall
   212D CD 00 00           9686 	call	_set_win_tiles
   2130 E8 06              9687 	lda	sp,6(sp)
                           9688 ; genLabel
   2132                    9689 00101$:
                           9690 ; genEndFunction
   2132 C1                 9691 	pop	bc
   2133 C9                 9692 	ret
   2134                    9693 ___drawScoreBandit_end:
                           9694 ;	game.c 1085
                           9695 ; genLabel
                           9696 ; genFunction
                           9697 ;	---------------------------------
                           9698 ; Function drawScoreVillager
                           9699 ; ---------------------------------
   2134                    9700 ___drawScoreVillager_start:
   2134                    9701 _drawScoreVillager:
   2134 C5                 9702 	push	bc
                           9703 ;	game.c 1086
                           9704 ; genAssign
                           9705 ; AOP_HL for _score_villager_digitUn
   2135 21 49 00           9706 	ld	hl,#_score_villager_digitUn + 0
   2138 4E                 9707 	ld	c,(hl)
                           9708 ; genPlus
   2139 3E 8E              9709 	ld	a,#<_zero
   213B 81                 9710 	add	a,c
   213C 4F                 9711 	ld	c,a
   213D 3E 3F              9712 	ld	a,#>_zero
   213F CE 00              9713 	adc	a,#0x00
   2141 47                 9714 	ld	b,a
                           9715 ; genIpush
   2142 C5                 9716 	push	bc
                           9717 ; genIpush
   2143 3E 01              9718 	ld	a,#0x01
   2145 F5                 9719 	push	af
   2146 33                 9720 	inc	sp
                           9721 ; genIpush
   2147 3E 01              9722 	ld	a,#0x01
   2149 F5                 9723 	push	af
   214A 33                 9724 	inc	sp
                           9725 ; genIpush
   214B 3E 00              9726 	ld	a,#0x00
   214D F5                 9727 	push	af
   214E 33                 9728 	inc	sp
                           9729 ; genIpush
   214F 3E 2D              9730 	ld	a,#0x2D
   2151 F5                 9731 	push	af
   2152 33                 9732 	inc	sp
                           9733 ; genCall
   2153 CD 00 00           9734 	call	_set_win_tiles
   2156 E8 06              9735 	lda	sp,6(sp)
                           9736 ;	game.c 1087
                           9737 ; genAssign
                           9738 ; AOP_HL for _score_villager_digitDeux
   2158 21 4A 00           9739 	ld	hl,#_score_villager_digitDeux + 0
   215B 4E                 9740 	ld	c,(hl)
                           9741 ; genPlus
   215C 3E 8E              9742 	ld	a,#<_zero
   215E 81                 9743 	add	a,c
   215F 4F                 9744 	ld	c,a
   2160 3E 3F              9745 	ld	a,#>_zero
   2162 CE 00              9746 	adc	a,#0x00
   2164 47                 9747 	ld	b,a
                           9748 ; genIpush
   2165 C5                 9749 	push	bc
                           9750 ; genIpush
   2166 3E 01              9751 	ld	a,#0x01
   2168 F5                 9752 	push	af
   2169 33                 9753 	inc	sp
                           9754 ; genIpush
   216A 3E 01              9755 	ld	a,#0x01
   216C F5                 9756 	push	af
   216D 33                 9757 	inc	sp
                           9758 ; genIpush
   216E 3E 00              9759 	ld	a,#0x00
   2170 F5                 9760 	push	af
   2171 33                 9761 	inc	sp
                           9762 ; genIpush
   2172 3E 2C              9763 	ld	a,#0x2C
   2174 F5                 9764 	push	af
   2175 33                 9765 	inc	sp
                           9766 ; genCall
   2176 CD 00 00           9767 	call	_set_win_tiles
   2179 E8 06              9768 	lda	sp,6(sp)
                           9769 ; genLabel
   217B                    9770 00101$:
                           9771 ; genEndFunction
   217B C1                 9772 	pop	bc
   217C C9                 9773 	ret
   217D                    9774 ___drawScoreVillager_end:
                           9775 ;	game.c 1090
                           9776 ; genLabel
                           9777 ; genFunction
                           9778 ;	---------------------------------
                           9779 ; Function calculateScoreVillager
                           9780 ; ---------------------------------
   217D                    9781 ___calculateScoreVillager_start:
   217D                    9782 _calculateScoreVillager:
   217D C5                 9783 	push	bc
                           9784 ;	game.c 1092
                           9785 ; genCmpEq
                           9786 ; AOP_HL for _score_villager
   217E 21 48 00           9787 	ld	hl,#_score_villager + 0
   2181 7E                 9788 	ld	a,(hl) ; 2
   2182 FE 0A              9789 	cp	a,#0x0A
   2184 C2 89 21           9790 	jp	nz,00117$
   2187 18 03              9791 	jr	00118$
   2189                    9792 00117$:
   2189 C3 99 21           9793 	jp	00107$
   218C                    9794 00118$:
                           9795 ;	game.c 1093
                           9796 ; genAssign
                           9797 ; AOP_HL for _score_villager_digitDeux
   218C 21 4A 00           9798 	ld	hl,#_score_villager_digitDeux + 0
   218F 36 01              9799 	ld	(hl),#0x01
                           9800 ;	game.c 1094
                           9801 ; genAssign
                           9802 ; AOP_HL for _score_villager_digitUn
   2191 21 49 00           9803 	ld	hl,#_score_villager_digitUn + 0
   2194 36 00              9804 	ld	(hl),#0x00
                           9805 ; genGoto
   2196 C3 C2 21           9806 	jp	00108$
                           9807 ; genLabel
   2199                    9808 00107$:
                           9809 ;	game.c 1095
                           9810 ; genCmpEq
                           9811 ; AOP_HL for _score_villager
   2199 21 48 00           9812 	ld	hl,#_score_villager + 0
   219C 7E                 9813 	ld	a,(hl) ; 2
   219D FE 09              9814 	cp	a,#0x09
   219F C2 A4 21           9815 	jp	nz,00119$
   21A2 18 03              9816 	jr	00120$
   21A4                    9817 00119$:
   21A4 C3 B4 21           9818 	jp	00104$
   21A7                    9819 00120$:
                           9820 ;	game.c 1096
                           9821 ; genAssign
                           9822 ; AOP_HL for _score_villager_digitDeux
   21A7 21 4A 00           9823 	ld	hl,#_score_villager_digitDeux + 0
   21AA 36 00              9824 	ld	(hl),#0x00
                           9825 ;	game.c 1097
                           9826 ; genAssign
                           9827 ; AOP_HL for _score_villager_digitUn
   21AC 21 49 00           9828 	ld	hl,#_score_villager_digitUn + 0
   21AF 36 09              9829 	ld	(hl),#0x09
                           9830 ; genGoto
   21B1 C3 C2 21           9831 	jp	00108$
                           9832 ; genLabel
   21B4                    9833 00104$:
                           9834 ;	game.c 1098
                           9835 ; genCmpLt
                           9836 ; AOP_HL for _score_villager
   21B4 21 48 00           9837 	ld	hl,#_score_villager + 0
   21B7 7E                 9838 	ld	a,(hl)
   21B8 FE 09              9839 	cp	#0x09
   21BA D2 C2 21           9840 	jp	nc,00108$
                           9841 ;	game.c 1099
                           9842 ; genAssign
                           9843 ; AOP_HL for _score_villager
                           9844 ; AOP_HL for _score_villager_digitUn
   21BD 7E                 9845 	ld	a,(hl)
   21BE 21 49 00           9846 	ld	hl,#_score_villager_digitUn + 0
   21C1 77                 9847 	ld	(hl),a
                           9848 ; genLabel
   21C2                    9849 00108$:
                           9850 ;	game.c 1102
                           9851 ; genCmpGt
                           9852 ; AOP_HL for _score_villager
   21C2 AF                 9853 	xor	a,a
   21C3 3E 00              9854 	ld	a,#0x00
   21C5 21 48 00           9855 	ld	hl,#_score_villager + 0
   21C8 9E                 9856 	sbc	a,(hl) ; 2
   21C9 DA D1 21           9857 	jp	c,00111$
                           9858 ;	game.c 1103
                           9859 ; genAssign
                           9860 ; AOP_HL for _isGameOver
   21CC 21 4C 00           9861 	ld	hl,#_isGameOver + 0
   21CF 36 01              9862 	ld	(hl),#0x01
                           9863 ; genLabel
   21D1                    9864 00111$:
                           9865 ; genEndFunction
   21D1 C1                 9866 	pop	bc
   21D2 C9                 9867 	ret
   21D3                    9868 ___calculateScoreVillager_end:
                           9869 ;	game.c 1109
                           9870 ; genLabel
                           9871 ; genFunction
                           9872 ;	---------------------------------
                           9873 ; Function drawShock
                           9874 ; ---------------------------------
   21D3                    9875 ___drawShock_start:
   21D3                    9876 _drawShock:
   21D3 C5                 9877 	push	bc
                           9878 ;	game.c 1110
                           9879 ; genCmpEq
                           9880 ; AOP_HL for _shockSend
   21D4 21 32 00           9881 	ld	hl,#_shockSend + 0
   21D7 7E                 9882 	ld	a,(hl) ; 2
   21D8 FE 01              9883 	cp	a,#0x01
   21DA C2 DF 21           9884 	jp	nz,00107$
   21DD 18 03              9885 	jr	00108$
   21DF                    9886 00107$:
   21DF C3 FE 21           9887 	jp	00102$
   21E2                    9888 00108$:
                           9889 ;	game.c 1111
                           9890 ; genIpush
   21E2 21 8D 3F           9891 	ld	hl,#_emptyIcon + 0
   21E5 E5                 9892 	push	hl
                           9893 ; genIpush
   21E6 3E 01              9894 	ld	a,#0x01
   21E8 F5                 9895 	push	af
   21E9 33                 9896 	inc	sp
                           9897 ; genIpush
   21EA 3E 01              9898 	ld	a,#0x01
   21EC F5                 9899 	push	af
   21ED 33                 9900 	inc	sp
                           9901 ; genIpush
   21EE 3E 00              9902 	ld	a,#0x00
   21F0 F5                 9903 	push	af
   21F1 33                 9904 	inc	sp
                           9905 ; genIpush
   21F2 3E 29              9906 	ld	a,#0x29
   21F4 F5                 9907 	push	af
   21F5 33                 9908 	inc	sp
                           9909 ; genCall
   21F6 CD 00 00           9910 	call	_set_win_tiles
   21F9 E8 06              9911 	lda	sp,6(sp)
                           9912 ; genGoto
   21FB C3 17 22           9913 	jp	00104$
                           9914 ; genLabel
   21FE                    9915 00102$:
                           9916 ;	game.c 1113
                           9917 ; genIpush
   21FE 21 8C 3F           9918 	ld	hl,#_shockIcon + 0
   2201 E5                 9919 	push	hl
                           9920 ; genIpush
   2202 3E 01              9921 	ld	a,#0x01
   2204 F5                 9922 	push	af
   2205 33                 9923 	inc	sp
                           9924 ; genIpush
   2206 3E 01              9925 	ld	a,#0x01
   2208 F5                 9926 	push	af
   2209 33                 9927 	inc	sp
                           9928 ; genIpush
   220A 3E 00              9929 	ld	a,#0x00
   220C F5                 9930 	push	af
   220D 33                 9931 	inc	sp
                           9932 ; genIpush
   220E 3E 29              9933 	ld	a,#0x29
   2210 F5                 9934 	push	af
   2211 33                 9935 	inc	sp
                           9936 ; genCall
   2212 CD 00 00           9937 	call	_set_win_tiles
   2215 E8 06              9938 	lda	sp,6(sp)
                           9939 ; genLabel
   2217                    9940 00104$:
                           9941 ; genEndFunction
   2217 C1                 9942 	pop	bc
   2218 C9                 9943 	ret
   2219                    9944 ___drawShock_end:
                           9945 ;	game.c 1116
                           9946 ; genLabel
                           9947 ; genFunction
                           9948 ;	---------------------------------
                           9949 ; Function drawPv
                           9950 ; ---------------------------------
   2219                    9951 ___drawPv_start:
   2219                    9952 _drawPv:
   2219 C5                 9953 	push	bc
                           9954 ;	game.c 1117
                           9955 ; genCmpGt
                           9956 ; AOP_HL for _JudgePV
   221A AF                 9957 	xor	a,a
   221B 3E 03              9958 	ld	a,#0x03
   221D 21 34 00           9959 	ld	hl,#_JudgePV + 0
   2220 9E                 9960 	sbc	a,(hl) ; 2
   2221 DA 74 23           9961 	jp	c,00106$
                           9962 ; genJumpTab
                           9963 ; AOP_HL for _JudgePV
   2224 5E                 9964 	ld	e,(hl)
   2225 16 00              9965 	ld	d,#0x00
   2227 21 2E 22           9966 	ld	hl,#00109$
   222A 19                 9967 	add	hl,de
   222B 19                 9968 	add	hl,de
   222C 19                 9969 	add	hl,de
   222D E9                 9970 	jp	(hl)
   222E                    9971 00109$:
   222E C3 24 23           9972 	jp	00104$
   2231 C3 D6 22           9973 	jp	00103$
   2234 C3 88 22           9974 	jp	00102$
   2237 C3 3A 22           9975 	jp	00101$
                           9976 ;	game.c 1119
                           9977 ; genLabel
   223A                    9978 00101$:
                           9979 ; genIpush
   223A 21 86 3F           9980 	ld	hl,#_heartFill + 0
   223D E5                 9981 	push	hl
                           9982 ; genIpush
   223E 3E 01              9983 	ld	a,#0x01
   2240 F5                 9984 	push	af
   2241 33                 9985 	inc	sp
                           9986 ; genIpush
   2242 3E 01              9987 	ld	a,#0x01
   2244 F5                 9988 	push	af
   2245 33                 9989 	inc	sp
                           9990 ; genIpush
   2246 3E 00              9991 	ld	a,#0x00
   2248 F5                 9992 	push	af
   2249 33                 9993 	inc	sp
                           9994 ; genIpush
   224A 3E 27              9995 	ld	a,#0x27
   224C F5                 9996 	push	af
   224D 33                 9997 	inc	sp
                           9998 ; genCall
   224E CD 00 00           9999 	call	_set_win_tiles
   2251 E8 06             10000 	lda	sp,6(sp)
                          10001 ;	game.c 1120
                          10002 ; genIpush
   2253 21 86 3F          10003 	ld	hl,#_heartFill + 0
   2256 E5                10004 	push	hl
                          10005 ; genIpush
   2257 3E 01             10006 	ld	a,#0x01
   2259 F5                10007 	push	af
   225A 33                10008 	inc	sp
                          10009 ; genIpush
   225B 3E 01             10010 	ld	a,#0x01
   225D F5                10011 	push	af
   225E 33                10012 	inc	sp
                          10013 ; genIpush
   225F 3E 00             10014 	ld	a,#0x00
   2261 F5                10015 	push	af
   2262 33                10016 	inc	sp
                          10017 ; genIpush
   2263 3E 26             10018 	ld	a,#0x26
   2265 F5                10019 	push	af
   2266 33                10020 	inc	sp
                          10021 ; genCall
   2267 CD 00 00          10022 	call	_set_win_tiles
   226A E8 06             10023 	lda	sp,6(sp)
                          10024 ;	game.c 1121
                          10025 ; genIpush
   226C 21 86 3F          10026 	ld	hl,#_heartFill + 0
   226F E5                10027 	push	hl
                          10028 ; genIpush
   2270 3E 01             10029 	ld	a,#0x01
   2272 F5                10030 	push	af
   2273 33                10031 	inc	sp
                          10032 ; genIpush
   2274 3E 01             10033 	ld	a,#0x01
   2276 F5                10034 	push	af
   2277 33                10035 	inc	sp
                          10036 ; genIpush
   2278 3E 00             10037 	ld	a,#0x00
   227A F5                10038 	push	af
   227B 33                10039 	inc	sp
                          10040 ; genIpush
   227C 3E 25             10041 	ld	a,#0x25
   227E F5                10042 	push	af
   227F 33                10043 	inc	sp
                          10044 ; genCall
   2280 CD 00 00          10045 	call	_set_win_tiles
   2283 E8 06             10046 	lda	sp,6(sp)
                          10047 ;	game.c 1123
                          10048 ; genGoto
   2285 C3 74 23          10049 	jp	00106$
                          10050 ;	game.c 1126
                          10051 ; genLabel
   2288                   10052 00102$:
                          10053 ; genIpush
   2288 21 87 3F          10054 	ld	hl,#_heartEmpty + 0
   228B E5                10055 	push	hl
                          10056 ; genIpush
   228C 3E 01             10057 	ld	a,#0x01
   228E F5                10058 	push	af
   228F 33                10059 	inc	sp
                          10060 ; genIpush
   2290 3E 01             10061 	ld	a,#0x01
   2292 F5                10062 	push	af
   2293 33                10063 	inc	sp
                          10064 ; genIpush
   2294 3E 00             10065 	ld	a,#0x00
   2296 F5                10066 	push	af
   2297 33                10067 	inc	sp
                          10068 ; genIpush
   2298 3E 27             10069 	ld	a,#0x27
   229A F5                10070 	push	af
   229B 33                10071 	inc	sp
                          10072 ; genCall
   229C CD 00 00          10073 	call	_set_win_tiles
   229F E8 06             10074 	lda	sp,6(sp)
                          10075 ;	game.c 1127
                          10076 ; genIpush
   22A1 21 86 3F          10077 	ld	hl,#_heartFill + 0
   22A4 E5                10078 	push	hl
                          10079 ; genIpush
   22A5 3E 01             10080 	ld	a,#0x01
   22A7 F5                10081 	push	af
   22A8 33                10082 	inc	sp
                          10083 ; genIpush
   22A9 3E 01             10084 	ld	a,#0x01
   22AB F5                10085 	push	af
   22AC 33                10086 	inc	sp
                          10087 ; genIpush
   22AD 3E 00             10088 	ld	a,#0x00
   22AF F5                10089 	push	af
   22B0 33                10090 	inc	sp
                          10091 ; genIpush
   22B1 3E 26             10092 	ld	a,#0x26
   22B3 F5                10093 	push	af
   22B4 33                10094 	inc	sp
                          10095 ; genCall
   22B5 CD 00 00          10096 	call	_set_win_tiles
   22B8 E8 06             10097 	lda	sp,6(sp)
                          10098 ;	game.c 1128
                          10099 ; genIpush
   22BA 21 86 3F          10100 	ld	hl,#_heartFill + 0
   22BD E5                10101 	push	hl
                          10102 ; genIpush
   22BE 3E 01             10103 	ld	a,#0x01
   22C0 F5                10104 	push	af
   22C1 33                10105 	inc	sp
                          10106 ; genIpush
   22C2 3E 01             10107 	ld	a,#0x01
   22C4 F5                10108 	push	af
   22C5 33                10109 	inc	sp
                          10110 ; genIpush
   22C6 3E 00             10111 	ld	a,#0x00
   22C8 F5                10112 	push	af
   22C9 33                10113 	inc	sp
                          10114 ; genIpush
   22CA 3E 25             10115 	ld	a,#0x25
   22CC F5                10116 	push	af
   22CD 33                10117 	inc	sp
                          10118 ; genCall
   22CE CD 00 00          10119 	call	_set_win_tiles
   22D1 E8 06             10120 	lda	sp,6(sp)
                          10121 ;	game.c 1130
                          10122 ; genGoto
   22D3 C3 74 23          10123 	jp	00106$
                          10124 ;	game.c 1133
                          10125 ; genLabel
   22D6                   10126 00103$:
                          10127 ; genIpush
   22D6 21 87 3F          10128 	ld	hl,#_heartEmpty + 0
   22D9 E5                10129 	push	hl
                          10130 ; genIpush
   22DA 3E 01             10131 	ld	a,#0x01
   22DC F5                10132 	push	af
   22DD 33                10133 	inc	sp
                          10134 ; genIpush
   22DE 3E 01             10135 	ld	a,#0x01
   22E0 F5                10136 	push	af
   22E1 33                10137 	inc	sp
                          10138 ; genIpush
   22E2 3E 00             10139 	ld	a,#0x00
   22E4 F5                10140 	push	af
   22E5 33                10141 	inc	sp
                          10142 ; genIpush
   22E6 3E 27             10143 	ld	a,#0x27
   22E8 F5                10144 	push	af
   22E9 33                10145 	inc	sp
                          10146 ; genCall
   22EA CD 00 00          10147 	call	_set_win_tiles
   22ED E8 06             10148 	lda	sp,6(sp)
                          10149 ;	game.c 1134
                          10150 ; genIpush
   22EF 21 87 3F          10151 	ld	hl,#_heartEmpty + 0
   22F2 E5                10152 	push	hl
                          10153 ; genIpush
   22F3 3E 01             10154 	ld	a,#0x01
   22F5 F5                10155 	push	af
   22F6 33                10156 	inc	sp
                          10157 ; genIpush
   22F7 3E 01             10158 	ld	a,#0x01
   22F9 F5                10159 	push	af
   22FA 33                10160 	inc	sp
                          10161 ; genIpush
   22FB 3E 00             10162 	ld	a,#0x00
   22FD F5                10163 	push	af
   22FE 33                10164 	inc	sp
                          10165 ; genIpush
   22FF 3E 26             10166 	ld	a,#0x26
   2301 F5                10167 	push	af
   2302 33                10168 	inc	sp
                          10169 ; genCall
   2303 CD 00 00          10170 	call	_set_win_tiles
   2306 E8 06             10171 	lda	sp,6(sp)
                          10172 ;	game.c 1135
                          10173 ; genIpush
   2308 21 86 3F          10174 	ld	hl,#_heartFill + 0
   230B E5                10175 	push	hl
                          10176 ; genIpush
   230C 3E 01             10177 	ld	a,#0x01
   230E F5                10178 	push	af
   230F 33                10179 	inc	sp
                          10180 ; genIpush
   2310 3E 01             10181 	ld	a,#0x01
   2312 F5                10182 	push	af
   2313 33                10183 	inc	sp
                          10184 ; genIpush
   2314 3E 00             10185 	ld	a,#0x00
   2316 F5                10186 	push	af
   2317 33                10187 	inc	sp
                          10188 ; genIpush
   2318 3E 25             10189 	ld	a,#0x25
   231A F5                10190 	push	af
   231B 33                10191 	inc	sp
                          10192 ; genCall
   231C CD 00 00          10193 	call	_set_win_tiles
   231F E8 06             10194 	lda	sp,6(sp)
                          10195 ;	game.c 1137
                          10196 ; genGoto
   2321 C3 74 23          10197 	jp	00106$
                          10198 ;	game.c 1140
                          10199 ; genLabel
   2324                   10200 00104$:
                          10201 ; genIpush
   2324 21 87 3F          10202 	ld	hl,#_heartEmpty + 0
   2327 E5                10203 	push	hl
                          10204 ; genIpush
   2328 3E 01             10205 	ld	a,#0x01
   232A F5                10206 	push	af
   232B 33                10207 	inc	sp
                          10208 ; genIpush
   232C 3E 01             10209 	ld	a,#0x01
   232E F5                10210 	push	af
   232F 33                10211 	inc	sp
                          10212 ; genIpush
   2330 3E 00             10213 	ld	a,#0x00
   2332 F5                10214 	push	af
   2333 33                10215 	inc	sp
                          10216 ; genIpush
   2334 3E 27             10217 	ld	a,#0x27
   2336 F5                10218 	push	af
   2337 33                10219 	inc	sp
                          10220 ; genCall
   2338 CD 00 00          10221 	call	_set_win_tiles
   233B E8 06             10222 	lda	sp,6(sp)
                          10223 ;	game.c 1141
                          10224 ; genIpush
   233D 21 87 3F          10225 	ld	hl,#_heartEmpty + 0
   2340 E5                10226 	push	hl
                          10227 ; genIpush
   2341 3E 01             10228 	ld	a,#0x01
   2343 F5                10229 	push	af
   2344 33                10230 	inc	sp
                          10231 ; genIpush
   2345 3E 01             10232 	ld	a,#0x01
   2347 F5                10233 	push	af
   2348 33                10234 	inc	sp
                          10235 ; genIpush
   2349 3E 00             10236 	ld	a,#0x00
   234B F5                10237 	push	af
   234C 33                10238 	inc	sp
                          10239 ; genIpush
   234D 3E 26             10240 	ld	a,#0x26
   234F F5                10241 	push	af
   2350 33                10242 	inc	sp
                          10243 ; genCall
   2351 CD 00 00          10244 	call	_set_win_tiles
   2354 E8 06             10245 	lda	sp,6(sp)
                          10246 ;	game.c 1142
                          10247 ; genIpush
   2356 21 87 3F          10248 	ld	hl,#_heartEmpty + 0
   2359 E5                10249 	push	hl
                          10250 ; genIpush
   235A 3E 01             10251 	ld	a,#0x01
   235C F5                10252 	push	af
   235D 33                10253 	inc	sp
                          10254 ; genIpush
   235E 3E 01             10255 	ld	a,#0x01
   2360 F5                10256 	push	af
   2361 33                10257 	inc	sp
                          10258 ; genIpush
   2362 3E 00             10259 	ld	a,#0x00
   2364 F5                10260 	push	af
   2365 33                10261 	inc	sp
                          10262 ; genIpush
   2366 3E 25             10263 	ld	a,#0x25
   2368 F5                10264 	push	af
   2369 33                10265 	inc	sp
                          10266 ; genCall
   236A CD 00 00          10267 	call	_set_win_tiles
   236D E8 06             10268 	lda	sp,6(sp)
                          10269 ;	game.c 1144
                          10270 ; genAssign
                          10271 ; AOP_HL for _isGameOver
   236F 21 4C 00          10272 	ld	hl,#_isGameOver + 0
   2372 36 01             10273 	ld	(hl),#0x01
                          10274 ;	game.c 1147
                          10275 ; genLabel
   2374                   10276 00106$:
                          10277 ; genEndFunction
   2374 C1                10278 	pop	bc
   2375 C9                10279 	ret
   2376                   10280 ___drawPv_end:
                          10281 ;	game.c 1150
                          10282 ; genLabel
                          10283 ; genFunction
                          10284 ;	---------------------------------
                          10285 ; Function EcranStart
                          10286 ; ---------------------------------
   2376                   10287 ___EcranStart_start:
   2376                   10288 _EcranStart:
   2376 C5                10289 	push	bc
                          10290 ;	game.c 1153
                          10291 ; genAnd
                          10292 ; AOP_SFR for _LCDC_REG
   2377 F0 00             10293 	ldh	a,(_LCDC_REG+0) ; x
   2379 E6 FD             10294 	and	a,#0xFD
   237B E0 00             10295 	ldh	(_LCDC_REG+0),a
                          10296 ;	game.c 1154
                          10297 ; genMinus
                          10298 ; AOP_HL for _borderLeft
                          10299 ; AOP_HL for _posXJudge
   237D 21 40 00          10300 	ld	hl,#_borderLeft + 0
   2380 7E                10301 	ld	a,(hl)
   2381 C6 CE             10302 	add	a,#0xCE
   2383 21 2E 00          10303 	ld	hl,#_posXJudge + 0
   2386 77                10304 	ld	(hl),a
                          10305 ;	game.c 1155
                          10306 ; genMinus
                          10307 ; AOP_HL for _borderTop
                          10308 ; AOP_HL for _posYJudge
   2387 21 41 00          10309 	ld	hl,#_borderTop + 0
   238A 7E                10310 	ld	a,(hl)
   238B C6 CE             10311 	add	a,#0xCE
   238D 21 2F 00          10312 	ld	hl,#_posYJudge + 0
   2390 77                10313 	ld	(hl),a
                          10314 ;	game.c 1156
                          10315 ; genAssign
                          10316 ; AOP_HL for _posXJudge
                          10317 ; AOP_HL for _posXShock
   2391 21 2E 00          10318 	ld	hl,#_posXJudge + 0
   2394 7E                10319 	ld	a,(hl)
   2395 21 30 00          10320 	ld	hl,#_posXShock + 0
   2398 77                10321 	ld	(hl),a
                          10322 ;	game.c 1157
                          10323 ; genAssign
                          10324 ; (operands are equal 1)
                          10325 ;	game.c 1158
                          10326 ; genCall
   2399 CD 4B 06          10327 	call	_drawJudgeIDLE
                          10328 ;	game.c 1160
                          10329 ; genAnd
                          10330 ; AOP_SFR for _LCDC_REG
   239C F0 00             10331 	ldh	a,(_LCDC_REG+0) ; x
   239E E6 DF             10332 	and	a,#0xDF
   23A0 E0 00             10333 	ldh	(_LCDC_REG+0),a
                          10334 ;	game.c 1161
                          10335 ; genOr
                          10336 ; AOP_SFR for _LCDC_REG
                          10337 ; Type res[4] = l[4]&r[1]
                          10338 ; Size res[1] = l[1]&r[1]
   23A2 F0 00             10339 	ldh	a,(_LCDC_REG+0) ; x
   23A4 F6 01             10340 	or	a,#0x01
   23A6 E0 00             10341 	ldh	(_LCDC_REG+0),a
                          10342 ;	game.c 1162
                          10343 ; genCall
   23A8 CD 00 00          10344 	call	_display_off
                          10345 ;	game.c 1163
                          10346 ; genIpush
   23AB 21 6E 35          10347 	ld	hl,#_decors_data + 0
   23AE E5                10348 	push	hl
                          10349 ; genIpush
   23AF 3E 54             10350 	ld	a,#0x54
   23B1 F5                10351 	push	af
   23B2 33                10352 	inc	sp
                          10353 ; genIpush
   23B3 3E 00             10354 	ld	a,#0x00
   23B5 F5                10355 	push	af
   23B6 33                10356 	inc	sp
                          10357 ; genCall
   23B7 CD 00 00          10358 	call	_set_bkg_data
   23BA E8 04             10359 	lda	sp,4(sp)
                          10360 ;	game.c 1166
                          10361 ; genIpush
   23BC 21 E2 2B          10362 	ld	hl,#_TitleScreen + 0
   23BF E5                10363 	push	hl
                          10364 ; genIpush
   23C0 3E 14             10365 	ld	a,#0x14
   23C2 F5                10366 	push	af
   23C3 33                10367 	inc	sp
                          10368 ; genIpush
   23C4 3E 14             10369 	ld	a,#0x14
   23C6 F5                10370 	push	af
   23C7 33                10371 	inc	sp
                          10372 ; genIpush
   23C8 3E 00             10373 	ld	a,#0x00
   23CA F5                10374 	push	af
   23CB 33                10375 	inc	sp
                          10376 ; genIpush
   23CC 3E 00             10377 	ld	a,#0x00
   23CE F5                10378 	push	af
   23CF 33                10379 	inc	sp
                          10380 ; genCall
   23D0 CD 00 00          10381 	call	_set_bkg_tiles
   23D3 E8 06             10382 	lda	sp,6(sp)
                          10383 ;	game.c 1168
                          10384 ; genOr
                          10385 ; AOP_SFR for _LCDC_REG
                          10386 ; Type res[4] = l[4]&r[1]
                          10387 ; Size res[1] = l[1]&r[1]
   23D5 F0 00             10388 	ldh	a,(_LCDC_REG+0) ; x
   23D7 F6 80             10389 	or	a,#0x80
   23D9 E0 00             10390 	ldh	(_LCDC_REG+0),a
                          10391 ;	game.c 1170
                          10392 ; genCall
   23DB CD 59 17          10393 	call	_generateBanditsST
                          10394 ;	game.c 1171
                          10395 ; genCall
   23DE CD D2 1B          10396 	call	_moveBandits
                          10397 ;	game.c 1172
                          10398 ; genCall
   23E1 CD 8F 01          10399 	call	_moveShockWave
                          10400 ;	game.c 1173
                          10401 ; genOr
                          10402 ; AOP_SFR for _LCDC_REG
                          10403 ; Type res[4] = l[4]&r[1]
                          10404 ; Size res[1] = l[1]&r[1]
   23E4 F0 00             10405 	ldh	a,(_LCDC_REG+0) ; x
   23E6 F6 02             10406 	or	a,#0x02
   23E8 E0 00             10407 	ldh	(_LCDC_REG+0),a
                          10408 ;	game.c 1175
                          10409 ; genLabel
   23EA                   10410 00101$:
                          10411 ;	game.c 1176
                          10412 ; genCall
   23EA CD 59 17          10413 	call	_generateBanditsST
                          10414 ;	game.c 1177
                          10415 ; genCall
   23ED CD D2 1B          10416 	call	_moveBandits
                          10417 ;	game.c 1181
                          10418 ; genCall
   23F0 CD 00 00          10419 	call	_joypad
   23F3 4B                10420 	ld	c,e
                          10421 ; genCmpEq
   23F4 79                10422 	ld	a,c ; 2
   23F5 FE 80             10423 	cp	a,#0x80
   23F7 C2 FC 23          10424 	jp	nz,00107$
   23FA 18 03             10425 	jr	00108$
   23FC                   10426 00107$:
   23FC C3 EA 23          10427 	jp	00101$
   23FF                   10428 00108$:
                          10429 ; genLabel
   23FF                   10430 00104$:
                          10431 ; genEndFunction
   23FF C1                10432 	pop	bc
   2400 C9                10433 	ret
   2401                   10434 ___EcranStart_end:
                          10435 ;	game.c 1186
                          10436 ; genLabel
                          10437 ; genFunction
                          10438 ;	---------------------------------
                          10439 ; Function showScore
                          10440 ; ---------------------------------
   2401                   10441 ___showScore_start:
   2401                   10442 _showScore:
   2401 C5                10443 	push	bc
                          10444 ;	game.c 1188
                          10445 ; genAnd
                          10446 ; AOP_SFR for _LCDC_REG
   2402 F0 00             10447 	ldh	a,(_LCDC_REG+0) ; x
   2404 E6 FD             10448 	and	a,#0xFD
   2406 E0 00             10449 	ldh	(_LCDC_REG+0),a
                          10450 ;	game.c 1189
                          10451 ; genMinus
                          10452 ; AOP_HL for _borderLeft
                          10453 ; AOP_HL for _posXJudge
   2408 21 40 00          10454 	ld	hl,#_borderLeft + 0
   240B 7E                10455 	ld	a,(hl)
   240C C6 CE             10456 	add	a,#0xCE
   240E 21 2E 00          10457 	ld	hl,#_posXJudge + 0
   2411 77                10458 	ld	(hl),a
                          10459 ;	game.c 1190
                          10460 ; genMinus
                          10461 ; AOP_HL for _borderTop
                          10462 ; AOP_HL for _posYJudge
   2412 21 41 00          10463 	ld	hl,#_borderTop + 0
   2415 7E                10464 	ld	a,(hl)
   2416 C6 CE             10465 	add	a,#0xCE
   2418 21 2F 00          10466 	ld	hl,#_posYJudge + 0
   241B 77                10467 	ld	(hl),a
                          10468 ;	game.c 1191
                          10469 ; genAssign
                          10470 ; AOP_HL for _posXJudge
                          10471 ; AOP_HL for _posXShock
   241C 21 2E 00          10472 	ld	hl,#_posXJudge + 0
   241F 7E                10473 	ld	a,(hl)
   2420 21 30 00          10474 	ld	hl,#_posXShock + 0
   2423 77                10475 	ld	(hl),a
                          10476 ;	game.c 1192
                          10477 ; genAssign
                          10478 ; (operands are equal 1)
                          10479 ;	game.c 1193
                          10480 ; genCall
   2424 CD 4B 06          10481 	call	_drawJudgeIDLE
                          10482 ;	game.c 1195
                          10483 ; genAnd
                          10484 ; AOP_SFR for _LCDC_REG
   2427 F0 00             10485 	ldh	a,(_LCDC_REG+0) ; x
   2429 E6 DF             10486 	and	a,#0xDF
   242B E0 00             10487 	ldh	(_LCDC_REG+0),a
                          10488 ;	game.c 1196
                          10489 ; genOr
                          10490 ; AOP_SFR for _LCDC_REG
                          10491 ; Type res[4] = l[4]&r[1]
                          10492 ; Size res[1] = l[1]&r[1]
   242D F0 00             10493 	ldh	a,(_LCDC_REG+0) ; x
   242F F6 01             10494 	or	a,#0x01
   2431 E0 00             10495 	ldh	(_LCDC_REG+0),a
                          10496 ;	game.c 1197
                          10497 ; genCall
   2433 CD 00 00          10498 	call	_display_off
                          10499 ;	game.c 1198
                          10500 ; genIpush
   2436 21 6E 35          10501 	ld	hl,#_decors_data + 0
   2439 E5                10502 	push	hl
                          10503 ; genIpush
   243A 3E 68             10504 	ld	a,#0x68
   243C F5                10505 	push	af
   243D 33                10506 	inc	sp
                          10507 ; genIpush
   243E 3E 00             10508 	ld	a,#0x00
   2440 F5                10509 	push	af
   2441 33                10510 	inc	sp
                          10511 ; genCall
   2442 CD 00 00          10512 	call	_set_bkg_data
   2445 E8 04             10513 	lda	sp,4(sp)
                          10514 ;	game.c 1201
                          10515 ; genIpush
   2447 21 52 2A          10516 	ld	hl,#_ScoreScreen + 0
   244A E5                10517 	push	hl
                          10518 ; genIpush
   244B 3E 14             10519 	ld	a,#0x14
   244D F5                10520 	push	af
   244E 33                10521 	inc	sp
                          10522 ; genIpush
   244F 3E 14             10523 	ld	a,#0x14
   2451 F5                10524 	push	af
   2452 33                10525 	inc	sp
                          10526 ; genIpush
   2453 3E 00             10527 	ld	a,#0x00
   2455 F5                10528 	push	af
   2456 33                10529 	inc	sp
                          10530 ; genIpush
   2457 3E 00             10531 	ld	a,#0x00
   2459 F5                10532 	push	af
   245A 33                10533 	inc	sp
                          10534 ; genCall
   245B CD 00 00          10535 	call	_set_bkg_tiles
   245E E8 06             10536 	lda	sp,6(sp)
                          10537 ;	game.c 1202
                          10538 ; genIpush
   2460 3E 00             10539 	ld	a,#0x00
   2462 F5                10540 	push	af
   2463 33                10541 	inc	sp
                          10542 ; genIpush
   2464 3E 00             10543 	ld	a,#0x00
   2466 F5                10544 	push	af
   2467 33                10545 	inc	sp
                          10546 ; genCall
   2468 CD 00 00          10547 	call	_move_bkg
   246B E8 02             10548 	lda	sp,2(sp)
                          10549 ;	game.c 1203
                          10550 ; genOr
                          10551 ; AOP_SFR for _LCDC_REG
                          10552 ; Type res[4] = l[4]&r[1]
                          10553 ; Size res[1] = l[1]&r[1]
   246D F0 00             10554 	ldh	a,(_LCDC_REG+0) ; x
   246F F6 80             10555 	or	a,#0x80
   2471 E0 00             10556 	ldh	(_LCDC_REG+0),a
                          10557 ;	game.c 1207
                          10558 ; genLabel
   2473                   10559 00101$:
                          10560 ;	game.c 1209
                          10561 ; genCall
   2473 CD 00 00          10562 	call	_joypad
   2476 4B                10563 	ld	c,e
                          10564 ; genCmpEq
   2477 79                10565 	ld	a,c ; 2
   2478 FE 10             10566 	cp	a,#0x10
   247A C2 7F 24          10567 	jp	nz,00105$
   247D 18 03             10568 	jr	00106$
   247F                   10569 00105$:
   247F C3 73 24          10570 	jp	00101$
   2482                   10571 00106$:
                          10572 ; genLabel
   2482                   10573 00102$:
                          10574 ; genEndFunction
   2482 C1                10575 	pop	bc
   2483 C9                10576 	ret
   2484                   10577 ___showScore_end:
                          10578 ;	game.c 1212
                          10579 ; genLabel
                          10580 ; genFunction
                          10581 ;	---------------------------------
                          10582 ; Function showGameOver
                          10583 ; ---------------------------------
   2484                   10584 ___showGameOver_start:
   2484                   10585 _showGameOver:
   2484 C5                10586 	push	bc
                          10587 ;	game.c 1214
                          10588 ; genCmpGt
                          10589 ; AOP_HL for _score_bandit
                          10590 ; AOP_HL for _bestScore
   2485 AF                10591 	xor	a,a
   2486 21 4D 00          10592 	ld	hl,#_bestScore + 0
   2489 7E                10593 	ld	a,(hl)
   248A 21 47 00          10594 	ld	hl,#_score_bandit + 0
   248D 9E                10595 	sbc	a,(hl) ; 2
   248E D2 96 24          10596 	jp	nc,00102$
                          10597 ;	game.c 1215
                          10598 ; genAssign
                          10599 ; AOP_HL for _score_bandit
                          10600 ; AOP_HL for _bestScore
   2491 7E                10601 	ld	a,(hl)
   2492 21 4D 00          10602 	ld	hl,#_bestScore + 0
   2495 77                10603 	ld	(hl),a
                          10604 ; genLabel
   2496                   10605 00102$:
                          10606 ;	game.c 1218
                          10607 ; genAnd
                          10608 ; AOP_SFR for _LCDC_REG
   2496 F0 00             10609 	ldh	a,(_LCDC_REG+0) ; x
   2498 E6 DF             10610 	and	a,#0xDF
   249A E0 00             10611 	ldh	(_LCDC_REG+0),a
                          10612 ;	game.c 1219
                          10613 ; genOr
                          10614 ; AOP_SFR for _LCDC_REG
                          10615 ; Type res[4] = l[4]&r[1]
                          10616 ; Size res[1] = l[1]&r[1]
   249C F0 00             10617 	ldh	a,(_LCDC_REG+0) ; x
   249E F6 01             10618 	or	a,#0x01
   24A0 E0 00             10619 	ldh	(_LCDC_REG+0),a
                          10620 ;	game.c 1220
                          10621 ; genOr
                          10622 ; AOP_SFR for _LCDC_REG
                          10623 ; Type res[4] = l[4]&r[1]
                          10624 ; Size res[1] = l[1]&r[1]
   24A2 F0 00             10625 	ldh	a,(_LCDC_REG+0) ; x
   24A4 F6 02             10626 	or	a,#0x02
   24A6 E0 00             10627 	ldh	(_LCDC_REG+0),a
                          10628 ;	game.c 1221
                          10629 ; genCall
   24A8 CD 00 00          10630 	call	_display_off
                          10631 ;	game.c 1223
                          10632 ; genIpush
   24AB 21 4D 2A          10633 	ld	hl,#_GameOver + 0
   24AE E5                10634 	push	hl
                          10635 ; genIpush
   24AF 3E 02             10636 	ld	a,#0x02
   24B1 F5                10637 	push	af
   24B2 33                10638 	inc	sp
                          10639 ; genIpush
   24B3 3E 05             10640 	ld	a,#0x05
   24B5 F5                10641 	push	af
   24B6 33                10642 	inc	sp
                          10643 ; genIpush
   24B7 3E 00             10644 	ld	a,#0x00
   24B9 F5                10645 	push	af
   24BA 33                10646 	inc	sp
                          10647 ; genIpush
   24BB 3E 00             10648 	ld	a,#0x00
   24BD F5                10649 	push	af
   24BE 33                10650 	inc	sp
                          10651 ; genCall
   24BF CD 00 00          10652 	call	_set_win_tiles
   24C2 E8 06             10653 	lda	sp,6(sp)
                          10654 ;	game.c 1224
                          10655 ; genAnd
                          10656 ; AOP_SFR for _LCDC_REG
   24C4 F0 00             10657 	ldh	a,(_LCDC_REG+0) ; x
   24C6 E6 FD             10658 	and	a,#0xFD
   24C8 E0 00             10659 	ldh	(_LCDC_REG+0),a
                          10660 ;	game.c 1225
                          10661 ; genOr
                          10662 ; AOP_SFR for _LCDC_REG
                          10663 ; Type res[4] = l[4]&r[1]
                          10664 ; Size res[1] = l[1]&r[1]
   24CA F0 00             10665 	ldh	a,(_LCDC_REG+0) ; x
   24CC F6 01             10666 	or	a,#0x01
   24CE E0 00             10667 	ldh	(_LCDC_REG+0),a
                          10668 ;	game.c 1226
                          10669 ; genOr
                          10670 ; AOP_SFR for _LCDC_REG
                          10671 ; Type res[4] = l[4]&r[1]
                          10672 ; Size res[1] = l[1]&r[1]
   24D0 F0 00             10673 	ldh	a,(_LCDC_REG+0) ; x
   24D2 F6 20             10674 	or	a,#0x20
   24D4 E0 00             10675 	ldh	(_LCDC_REG+0),a
                          10676 ;	game.c 1228
                          10677 ; genIpush
   24D6 3E 16             10678 	ld	a,#0x16
   24D8 F5                10679 	push	af
   24D9 33                10680 	inc	sp
                          10681 ; genIpush
   24DA 3E 0F             10682 	ld	a,#0x0F
   24DC F5                10683 	push	af
   24DD 33                10684 	inc	sp
                          10685 ; genCall
   24DE CD 00 00          10686 	call	_move_win
   24E1 E8 02             10687 	lda	sp,2(sp)
                          10688 ;	game.c 1232
                          10689 ; genOr
                          10690 ; AOP_SFR for _LCDC_REG
                          10691 ; Type res[4] = l[4]&r[1]
                          10692 ; Size res[1] = l[1]&r[1]
   24E3 F0 00             10693 	ldh	a,(_LCDC_REG+0) ; x
   24E5 F6 80             10694 	or	a,#0x80
   24E7 E0 00             10695 	ldh	(_LCDC_REG+0),a
                          10696 ;	game.c 1233
                          10697 ; genLabel
   24E9                   10698 00103$:
                          10699 ;	game.c 1237
                          10700 ; genCall
   24E9 CD 00 00          10701 	call	_joypad
   24EC 4B                10702 	ld	c,e
                          10703 ; genCmpEq
   24ED 79                10704 	ld	a,c ; 2
   24EE FE 10             10705 	cp	a,#0x10
   24F0 C2 F5 24          10706 	jp	nz,00108$
   24F3 18 03             10707 	jr	00109$
   24F5                   10708 00108$:
   24F5 C3 E9 24          10709 	jp	00103$
   24F8                   10710 00109$:
                          10711 ; genLabel
   24F8                   10712 00104$:
                          10713 ; genEndFunction
   24F8 C1                10714 	pop	bc
   24F9 C9                10715 	ret
   24FA                   10716 ___showGameOver_end:
                          10717 ;	game.c 1243
                          10718 ; genLabel
                          10719 ; genFunction
                          10720 ;	---------------------------------
                          10721 ; Function clearBkgAndWin
                          10722 ; ---------------------------------
   24FA                   10723 ___clearBkgAndWin_start:
   24FA                   10724 _clearBkgAndWin:
   24FA C5                10725 	push	bc
   24FB E8 FF             10726 	lda sp,-1(sp)
                          10727 ;	game.c 1244
                          10728 ; genCall
   24FD CD 00 00          10729 	call	_display_off
                          10730 ;	game.c 1246
                          10731 ; genAssign
                          10732 ; AOP_HL for _i
   2500 21 3D 00          10733 	ld	hl,#_i + 0
   2503 36 00             10734 	ld	(hl),#0x00
                          10735 ; genLabel
   2505                   10736 00105$:
                          10737 ; genCmpLt
                          10738 ; AOP_HL for _i
   2505 21 3D 00          10739 	ld	hl,#_i + 0
   2508 7E                10740 	ld	a,(hl)
   2509 FE 1E             10741 	cp	#0x1E
   250B D2 54 25          10742 	jp	nc,00108$
                          10743 ;	game.c 1247
                          10744 ; genAssign
                          10745 ; AOP_HL for _j
   250E 21 3E 00          10746 	ld	hl,#_j + 0
   2511 36 00             10747 	ld	(hl),#0x00
                          10748 ; genLabel
   2513                   10749 00101$:
                          10750 ; genCmpLt
                          10751 ; AOP_HL for _j
                          10752 ; AOP_STK for _clearBkgAndWin_sloc0_1_0
   2513 21 3E 00          10753 	ld	hl,#_j + 0
   2516 7E                10754 	ld	a,(hl)
   2517 FE 1E             10755 	cp	#0x1E
   2519 3E 00             10756 	ld	a,#0x00
   251B 17                10757 	rla
   251C F8 00             10758 	lda	hl,0(sp)
   251E 77                10759 	ld	(hl),a ; 3
                          10760 ; genIfx
                          10761 ; AOP_STK for _clearBkgAndWin_sloc0_1_0
                          10762 ; Removed redundent or a,a
   251F AF                10763 	xor	a,a
   2520 B6                10764 	or	a,(hl)
   2521 CA 4D 25          10765 	jp	z,00107$
                          10766 ;	game.c 1248
                          10767 ; genIpush
   2524 21 0E 00          10768 	ld	hl,#0x000E
   2527 E5                10769 	push	hl
                          10770 ; genIpush
   2528 3E 01             10771 	ld	a,#0x01
   252A F5                10772 	push	af
   252B 33                10773 	inc	sp
                          10774 ; genIpush
   252C 3E 01             10775 	ld	a,#0x01
   252E F5                10776 	push	af
   252F 33                10777 	inc	sp
                          10778 ; genIpush
                          10779 ; AOP_HL for _j
   2530 21 3E 00          10780 	ld	hl,#_j + 0
   2533 7E                10781 	ld	a,(hl)
   2534 F5                10782 	push	af
   2535 33                10783 	inc	sp
                          10784 ; genIpush
                          10785 ; AOP_HL for _i
   2536 21 3D 00          10786 	ld	hl,#_i + 0
   2539 7E                10787 	ld	a,(hl)
   253A F5                10788 	push	af
   253B 33                10789 	inc	sp
                          10790 ; genCall
   253C CD 00 00          10791 	call	_set_bkg_tiles
   253F E8 06             10792 	lda	sp,6(sp)
                          10793 ;	game.c 1247
                          10794 ; genPlus
                          10795 ; AOP_HL for _j
                          10796 ; genPlusIncr
   2541 21 3E 00          10797 	ld	hl,#_j + 0
   2544 7E                10798 	ld	a,(hl)
   2545 C6 01             10799 	add	a,#0x01
   2547 47                10800 	ld	b,a
                          10801 ; genAssign
   2548 48                10802 	ld	c,b
                          10803 ; genAssign
                          10804 ; AOP_HL for _j
   2549 71                10805 	ld	(hl),c
                          10806 ; genGoto
   254A C3 13 25          10807 	jp	00101$
                          10808 ; genLabel
   254D                   10809 00107$:
                          10810 ;	game.c 1246
                          10811 ; genPlus
                          10812 ; AOP_HL for _i
                          10813 ; genPlusIncr
   254D 21 3D 00          10814 	ld	hl,#_i + 0
   2550 34                10815 	inc	(hl)
                          10816 ; genGoto
   2551 C3 05 25          10817 	jp	00105$
                          10818 ; genLabel
   2554                   10819 00108$:
                          10820 ;	game.c 1252
                          10821 ; genAssign
                          10822 ; AOP_HL for _i
   2554 21 3D 00          10823 	ld	hl,#_i + 0
   2557 36 00             10824 	ld	(hl),#0x00
                          10825 ; genLabel
   2559                   10826 00113$:
                          10827 ; genCmpLt
                          10828 ; AOP_HL for _i
   2559 21 3D 00          10829 	ld	hl,#_i + 0
   255C 7E                10830 	ld	a,(hl)
   255D FE 1E             10831 	cp	#0x1E
   255F D2 A8 25          10832 	jp	nc,00116$
                          10833 ;	game.c 1253
                          10834 ; genAssign
                          10835 ; AOP_HL for _j
   2562 21 3E 00          10836 	ld	hl,#_j + 0
   2565 36 00             10837 	ld	(hl),#0x00
                          10838 ; genLabel
   2567                   10839 00109$:
                          10840 ; genCmpLt
                          10841 ; AOP_HL for _j
                          10842 ; AOP_STK for _clearBkgAndWin_sloc0_1_0
   2567 21 3E 00          10843 	ld	hl,#_j + 0
   256A 7E                10844 	ld	a,(hl)
   256B FE 1E             10845 	cp	#0x1E
   256D 3E 00             10846 	ld	a,#0x00
   256F 17                10847 	rla
   2570 F8 00             10848 	lda	hl,0(sp)
   2572 77                10849 	ld	(hl),a ; 3
                          10850 ; genIfx
                          10851 ; AOP_STK for _clearBkgAndWin_sloc0_1_0
                          10852 ; Removed redundent or a,a
   2573 AF                10853 	xor	a,a
   2574 B6                10854 	or	a,(hl)
   2575 CA A1 25          10855 	jp	z,00115$
                          10856 ;	game.c 1254
                          10857 ; genIpush
   2578 21 0E 00          10858 	ld	hl,#0x000E
   257B E5                10859 	push	hl
                          10860 ; genIpush
   257C 3E 01             10861 	ld	a,#0x01
   257E F5                10862 	push	af
   257F 33                10863 	inc	sp
                          10864 ; genIpush
   2580 3E 01             10865 	ld	a,#0x01
   2582 F5                10866 	push	af
   2583 33                10867 	inc	sp
                          10868 ; genIpush
                          10869 ; AOP_HL for _j
   2584 21 3E 00          10870 	ld	hl,#_j + 0
   2587 7E                10871 	ld	a,(hl)
   2588 F5                10872 	push	af
   2589 33                10873 	inc	sp
                          10874 ; genIpush
                          10875 ; AOP_HL for _i
   258A 21 3D 00          10876 	ld	hl,#_i + 0
   258D 7E                10877 	ld	a,(hl)
   258E F5                10878 	push	af
   258F 33                10879 	inc	sp
                          10880 ; genCall
   2590 CD 00 00          10881 	call	_set_win_tiles
   2593 E8 06             10882 	lda	sp,6(sp)
                          10883 ;	game.c 1253
                          10884 ; genPlus
                          10885 ; AOP_HL for _j
                          10886 ; genPlusIncr
   2595 21 3E 00          10887 	ld	hl,#_j + 0
   2598 7E                10888 	ld	a,(hl)
   2599 C6 01             10889 	add	a,#0x01
   259B 47                10890 	ld	b,a
                          10891 ; genAssign
   259C 48                10892 	ld	c,b
                          10893 ; genAssign
                          10894 ; AOP_HL for _j
   259D 71                10895 	ld	(hl),c
                          10896 ; genGoto
   259E C3 67 25          10897 	jp	00109$
                          10898 ; genLabel
   25A1                   10899 00115$:
                          10900 ;	game.c 1252
                          10901 ; genPlus
                          10902 ; AOP_HL for _i
                          10903 ; genPlusIncr
   25A1 21 3D 00          10904 	ld	hl,#_i + 0
   25A4 34                10905 	inc	(hl)
                          10906 ; genGoto
   25A5 C3 59 25          10907 	jp	00113$
                          10908 ; genLabel
   25A8                   10909 00116$:
                          10910 ;	game.c 1257
                          10911 ; genIpush
   25A8 3E 00             10912 	ld	a,#0x00
   25AA F5                10913 	push	af
   25AB 33                10914 	inc	sp
                          10915 ; genIpush
   25AC 3E 00             10916 	ld	a,#0x00
   25AE F5                10917 	push	af
   25AF 33                10918 	inc	sp
                          10919 ; genCall
   25B0 CD 00 00          10920 	call	_move_bkg
   25B3 E8 02             10921 	lda	sp,2(sp)
                          10922 ;	game.c 1258
                          10923 ; genOr
                          10924 ; AOP_SFR for _LCDC_REG
                          10925 ; Type res[4] = l[4]&r[1]
                          10926 ; Size res[1] = l[1]&r[1]
   25B5 F0 00             10927 	ldh	a,(_LCDC_REG+0) ; x
   25B7 F6 80             10928 	or	a,#0x80
   25B9 E0 00             10929 	ldh	(_LCDC_REG+0),a
                          10930 ; genLabel
   25BB                   10931 00117$:
                          10932 ; genEndFunction
   25BB E8 01             10933 	lda	sp,1(sp)
   25BD C1                10934 	pop bc
   25BE C9                10935 	ret
   25BF                   10936 ___clearBkgAndWin_end:
                          10937 ;	game.c 1261
                          10938 ; genLabel
                          10939 ; genFunction
                          10940 ;	---------------------------------
                          10941 ; Function initGame
                          10942 ; ---------------------------------
   25BF                   10943 ___initGame_start:
   25BF                   10944 _initGame:
   25BF C5                10945 	push	bc
                          10946 ;	game.c 1262
                          10947 ; genAssign
                          10948 ; AOP_HL for _isGameOver
   25C0 21 4C 00          10949 	ld	hl,#_isGameOver + 0
   25C3 36 00             10950 	ld	(hl),#0x00
                          10951 ;	game.c 1263
                          10952 ; genAssign
                          10953 ; AOP_HL for _gameIsLaunch
   25C5 21 4B 00          10954 	ld	hl,#_gameIsLaunch + 0
   25C8 36 01             10955 	ld	(hl),#0x01
                          10956 ;	game.c 1264
                          10957 ; genAssign
                          10958 ; AOP_HL for _shockSend
   25CA 21 32 00          10959 	ld	hl,#_shockSend + 0
   25CD 36 00             10960 	ld	(hl),#0x00
                          10961 ;	game.c 1265
                          10962 ; genAssign
                          10963 ; AOP_HL for _JudgePV
   25CF 21 34 00          10964 	ld	hl,#_JudgePV + 0
   25D2 36 03             10965 	ld	(hl),#0x03
                          10966 ;	game.c 1266
                          10967 ; genAssign
                          10968 ; AOP_HL for _score_villager
   25D4 21 48 00          10969 	ld	hl,#_score_villager + 0
   25D7 36 0A             10970 	ld	(hl),#0x0A
                          10971 ;	game.c 1267
                          10972 ; genAssign
                          10973 ; AOP_HL for _score_villager_digitUn
   25D9 21 49 00          10974 	ld	hl,#_score_villager_digitUn + 0
   25DC 36 00             10975 	ld	(hl),#0x00
                          10976 ;	game.c 1268
                          10977 ; genAssign
                          10978 ; AOP_HL for _score_villager_digitDeux
   25DE 21 4A 00          10979 	ld	hl,#_score_villager_digitDeux + 0
   25E1 36 01             10980 	ld	(hl),#0x01
                          10981 ;	game.c 1270
                          10982 ; genAssign
                          10983 ; AOP_HL for _score_bandit_digitUn
   25E3 21 44 00          10984 	ld	hl,#_score_bandit_digitUn + 0
   25E6 36 00             10985 	ld	(hl),#0x00
                          10986 ;	game.c 1271
                          10987 ; genAssign
                          10988 ; AOP_HL for _score_bandit_digitDeux
   25E8 21 45 00          10989 	ld	hl,#_score_bandit_digitDeux + 0
   25EB 36 00             10990 	ld	(hl),#0x00
                          10991 ;	game.c 1272
                          10992 ; genAssign
                          10993 ; AOP_HL for _score_bandit_digitTrois
   25ED 21 46 00          10994 	ld	hl,#_score_bandit_digitTrois + 0
   25F0 36 00             10995 	ld	(hl),#0x00
                          10996 ;	game.c 1273
                          10997 ; genAssign
                          10998 ; AOP_HL for _score_bandit
   25F2 21 47 00          10999 	ld	hl,#_score_bandit + 0
   25F5 36 00             11000 	ld	(hl),#0x00
                          11001 ;	game.c 1275
                          11002 ; genAssign
                          11003 ; AOP_HL for _posXJudge
   25F7 21 2E 00          11004 	ld	hl,#_posXJudge + 0
   25FA 36 50             11005 	ld	(hl),#0x50
                          11006 ;	game.c 1276
                          11007 ; genAssign
                          11008 ; AOP_HL for _posYJudge
   25FC 21 2F 00          11009 	ld	hl,#_posYJudge + 0
   25FF 36 64             11010 	ld	(hl),#0x64
                          11011 ;	game.c 1278
                          11012 ; genAssign
                          11013 ; AOP_HL for _posXShock
   2601 21 30 00          11014 	ld	hl,#_posXShock + 0
   2604 36 50             11015 	ld	(hl),#0x50
                          11016 ;	game.c 1279
                          11017 ; genAssign
                          11018 ; AOP_HL for _posYShock
   2606 21 31 00          11019 	ld	hl,#_posYShock + 0
   2609 36 64             11020 	ld	(hl),#0x64
                          11021 ; genLabel
   260B                   11022 00101$:
                          11023 ; genEndFunction
   260B C1                11024 	pop	bc
   260C C9                11025 	ret
   260D                   11026 ___initGame_end:
                          11027 ;	game.c 1281
                          11028 ; genLabel
                          11029 ; genFunction
                          11030 ;	---------------------------------
                          11031 ; Function main
                          11032 ; ---------------------------------
   260D                   11033 ___main_start:
   260D                   11034 _main:
   260D C5                11035 	push	bc
   260E E8 FB             11036 	lda sp,-5(sp)
                          11037 ;	game.c 1285
                          11038 ; genCast
                          11039 ; AOP_SFR for _DIV_REG
   2610 F0 00             11040 	ldh	a,(_DIV_REG+0) ; x
   2612 4F                11041 	ld	c,a
   2613 06 00             11042 	ld	b,#0x00
                          11043 ;	game.c 1286
                          11044 ; genIpush
   2615 C5                11045 	push	bc
                          11046 ; genCall
   2616 CD 00 00          11047 	call	_initarand
   2619 E8 02             11048 	lda	sp,2(sp)
                          11049 ;	game.c 1291
                          11050 ; genAnd
                          11051 ; AOP_SFR for _LCDC_REG
   261B F0 00             11052 	ldh	a,(_LCDC_REG+0) ; x
   261D E6 FB             11053 	and	a,#0xFB
   261F E0 00             11054 	ldh	(_LCDC_REG+0),a
                          11055 ;	game.c 1293
                          11056 ; genAssign
                          11057 ; AOP_SFR for _NR52_REG
   2621 3E F8             11058 	ld	a,#0xF8
   2623 E0 00             11059 	ldh	(_NR52_REG+0),a
                          11060 ;	game.c 1294
                          11061 ; genAssign
                          11062 ; AOP_SFR for _NR51_REG
   2625 3E 00             11063 	ld	a,#0x00
   2627 E0 00             11064 	ldh	(_NR51_REG+0),a
                          11065 ;	game.c 1295
                          11066 ; genAssign
                          11067 ; AOP_SFR for _NR50_REG
   2629 3E 77             11068 	ld	a,#0x77
   262B E0 00             11069 	ldh	(_NR50_REG+0),a
                          11070 ;	game.c 1297
                          11071 ; genIpush
   262D 21 44 28          11072 	ld	hl,#_logoTiles + 0
   2630 E5                11073 	push	hl
                          11074 ; genIpush
   2631 3E 0F             11075 	ld	a,#0x0F
   2633 F5                11076 	push	af
   2634 33                11077 	inc	sp
                          11078 ; genIpush
   2635 3E 00             11079 	ld	a,#0x00
   2637 F5                11080 	push	af
   2638 33                11081 	inc	sp
                          11082 ; genCall
   2639 CD 00 00          11083 	call	_set_bkg_data
   263C E8 04             11084 	lda	sp,4(sp)
                          11085 ;	game.c 1298
                          11086 ; genCall
   263E CD FA 24          11087 	call	_clearBkgAndWin
                          11088 ;	game.c 1299
                          11089 ; genIpush
   2641 21 34 29          11090 	ld	hl,#_logoWin + 0
   2644 E5                11091 	push	hl
                          11092 ; genIpush
   2645 3E 03             11093 	ld	a,#0x03
   2647 F5                11094 	push	af
   2648 33                11095 	inc	sp
                          11096 ; genIpush
   2649 3E 07             11097 	ld	a,#0x07
   264B F5                11098 	push	af
   264C 33                11099 	inc	sp
                          11100 ; genIpush
   264D 3E 00             11101 	ld	a,#0x00
   264F F5                11102 	push	af
   2650 33                11103 	inc	sp
                          11104 ; genIpush
   2651 3E 00             11105 	ld	a,#0x00
   2653 F5                11106 	push	af
   2654 33                11107 	inc	sp
                          11108 ; genCall
   2655 CD 00 00          11109 	call	_set_win_tiles
   2658 E8 06             11110 	lda	sp,6(sp)
                          11111 ;	game.c 1301
                          11112 ; genIpush
   265A 3E 38             11113 	ld	a,#0x38
   265C F5                11114 	push	af
   265D 33                11115 	inc	sp
                          11116 ; genIpush
   265E 3E 38             11117 	ld	a,#0x38
   2660 F5                11118 	push	af
   2661 33                11119 	inc	sp
                          11120 ; genCall
   2662 CD 00 00          11121 	call	_move_win
   2665 E8 02             11122 	lda	sp,2(sp)
                          11123 ;	game.c 1303
                          11124 ; genOr
                          11125 ; AOP_SFR for _LCDC_REG
                          11126 ; Type res[4] = l[4]&r[1]
                          11127 ; Size res[1] = l[1]&r[1]
   2667 F0 00             11128 	ldh	a,(_LCDC_REG+0) ; x
   2669 F6 01             11129 	or	a,#0x01
   266B E0 00             11130 	ldh	(_LCDC_REG+0),a
                          11131 ;	game.c 1304
                          11132 ; genOr
                          11133 ; AOP_SFR for _LCDC_REG
                          11134 ; Type res[4] = l[4]&r[1]
                          11135 ; Size res[1] = l[1]&r[1]
   266D F0 00             11136 	ldh	a,(_LCDC_REG+0) ; x
   266F F6 20             11137 	or	a,#0x20
   2671 E0 00             11138 	ldh	(_LCDC_REG+0),a
                          11139 ;	game.c 1309
                          11140 ; genIpush
   2673 21 D0 07          11141 	ld	hl,#0x07D0
   2676 E5                11142 	push	hl
                          11143 ; genCall
   2677 CD 00 00          11144 	call	_delay
   267A E8 02             11145 	lda	sp,2(sp)
                          11146 ;	game.c 1310
                          11147 ; genCall
   267C CD 00 00          11148 	call	_wait_vbl_done
                          11149 ;	game.c 1312
                          11150 ; genAnd
                          11151 ; AOP_SFR for _LCDC_REG
   267F F0 00             11152 	ldh	a,(_LCDC_REG+0) ; x
   2681 E6 FB             11153 	and	a,#0xFB
   2683 E0 00             11154 	ldh	(_LCDC_REG+0),a
                          11155 ;	game.c 1313
                          11156 ; genCall
   2685 CD 00 00          11157 	call	_display_off
                          11158 ;	game.c 1314
                          11159 ; genAnd
                          11160 ; AOP_SFR for _LCDC_REG
   2688 F0 00             11161 	ldh	a,(_LCDC_REG+0) ; x
   268A E6 FE             11162 	and	a,#0xFE
   268C E0 00             11163 	ldh	(_LCDC_REG+0),a
                          11164 ;	game.c 1315
                          11165 ; genAnd
                          11166 ; AOP_SFR for _LCDC_REG
   268E F0 00             11167 	ldh	a,(_LCDC_REG+0) ; x
   2690 E6 FD             11168 	and	a,#0xFD
   2692 E0 00             11169 	ldh	(_LCDC_REG+0),a
                          11170 ;	game.c 1316
                          11171 ; genAnd
                          11172 ; AOP_SFR for _LCDC_REG
   2694 F0 00             11173 	ldh	a,(_LCDC_REG+0) ; x
   2696 E6 DF             11174 	and	a,#0xDF
   2698 E0 00             11175 	ldh	(_LCDC_REG+0),a
                          11176 ;	game.c 1317
                          11177 ; genIpush
   269A 21 49 29          11178 	ld	hl,#_BenMetTiles + 0
   269D E5                11179 	push	hl
                          11180 ; genIpush
   269E 3E 0E             11181 	ld	a,#0x0E
   26A0 F5                11182 	push	af
   26A1 33                11183 	inc	sp
                          11184 ; genIpush
   26A2 3E 00             11185 	ld	a,#0x00
   26A4 F5                11186 	push	af
   26A5 33                11187 	inc	sp
                          11188 ; genCall
   26A6 CD 00 00          11189 	call	_set_bkg_data
   26A9 E8 04             11190 	lda	sp,4(sp)
                          11191 ;	game.c 1318
                          11192 ; genCall
   26AB CD FA 24          11193 	call	_clearBkgAndWin
                          11194 ;	game.c 1319
                          11195 ; genIpush
   26AE 21 29 2A          11196 	ld	hl,#_BenMetLogo + 0
   26B1 E5                11197 	push	hl
                          11198 ; genIpush
   26B2 3E 04             11199 	ld	a,#0x04
   26B4 F5                11200 	push	af
   26B5 33                11201 	inc	sp
                          11202 ; genIpush
   26B6 3E 09             11203 	ld	a,#0x09
   26B8 F5                11204 	push	af
   26B9 33                11205 	inc	sp
                          11206 ; genIpush
   26BA 3E 00             11207 	ld	a,#0x00
   26BC F5                11208 	push	af
   26BD 33                11209 	inc	sp
                          11210 ; genIpush
   26BE 3E 00             11211 	ld	a,#0x00
   26C0 F5                11212 	push	af
   26C1 33                11213 	inc	sp
                          11214 ; genCall
   26C2 CD 00 00          11215 	call	_set_win_tiles
   26C5 E8 06             11216 	lda	sp,6(sp)
                          11217 ;	game.c 1321
                          11218 ; genIpush
   26C7 3E 38             11219 	ld	a,#0x38
   26C9 F5                11220 	push	af
   26CA 33                11221 	inc	sp
                          11222 ; genIpush
   26CB 3E 38             11223 	ld	a,#0x38
   26CD F5                11224 	push	af
   26CE 33                11225 	inc	sp
                          11226 ; genCall
   26CF CD 00 00          11227 	call	_move_win
   26D2 E8 02             11228 	lda	sp,2(sp)
                          11229 ;	game.c 1323
                          11230 ; genOr
                          11231 ; AOP_SFR for _LCDC_REG
                          11232 ; Type res[4] = l[4]&r[1]
                          11233 ; Size res[1] = l[1]&r[1]
   26D4 F0 00             11234 	ldh	a,(_LCDC_REG+0) ; x
   26D6 F6 01             11235 	or	a,#0x01
   26D8 E0 00             11236 	ldh	(_LCDC_REG+0),a
                          11237 ;	game.c 1324
                          11238 ; genOr
                          11239 ; AOP_SFR for _LCDC_REG
                          11240 ; Type res[4] = l[4]&r[1]
                          11241 ; Size res[1] = l[1]&r[1]
   26DA F0 00             11242 	ldh	a,(_LCDC_REG+0) ; x
   26DC F6 20             11243 	or	a,#0x20
   26DE E0 00             11244 	ldh	(_LCDC_REG+0),a
                          11245 ;	game.c 1325
                          11246 ; genOr
                          11247 ; AOP_SFR for _LCDC_REG
                          11248 ; Type res[4] = l[4]&r[1]
                          11249 ; Size res[1] = l[1]&r[1]
   26E0 F0 00             11250 	ldh	a,(_LCDC_REG+0) ; x
   26E2 F6 80             11251 	or	a,#0x80
   26E4 E0 00             11252 	ldh	(_LCDC_REG+0),a
                          11253 ;	game.c 1330
                          11254 ; genIpush
   26E6 21 D0 07          11255 	ld	hl,#0x07D0
   26E9 E5                11256 	push	hl
                          11257 ; genCall
   26EA CD 00 00          11258 	call	_delay
   26ED E8 02             11259 	lda	sp,2(sp)
                          11260 ;	game.c 1331
                          11261 ; genCall
   26EF CD 00 00          11262 	call	_wait_vbl_done
                          11263 ;	game.c 1337
                          11264 ; genLabel
   26F2                   11265 00113$:
                          11266 ;	game.c 1340
                          11267 ; genAssign
                          11268 ; AOP_SFR for _NR10_REG
   26F2 3E 34             11269 	ld	a,#0x34
   26F4 E0 00             11270 	ldh	(_NR10_REG+0),a
                          11271 ;	game.c 1343
                          11272 ; genCall
   26F6 CD FA 24          11273 	call	_clearBkgAndWin
                          11274 ;	game.c 1344
                          11275 ; genCall
   26F9 CD 00 00          11276 	call	_display_off
                          11277 ;	game.c 1345
                          11278 ; genOr
                          11279 ; AOP_SFR for _LCDC_REG
                          11280 ; Type res[4] = l[4]&r[1]
                          11281 ; Size res[1] = l[1]&r[1]
   26FC F0 00             11282 	ldh	a,(_LCDC_REG+0) ; x
   26FE F6 80             11283 	or	a,#0x80
   2700 E0 00             11284 	ldh	(_LCDC_REG+0),a
                          11285 ;	game.c 1346
                          11286 ; genAnd
                          11287 ; AOP_SFR for _LCDC_REG
   2702 F0 00             11288 	ldh	a,(_LCDC_REG+0) ; x
   2704 E6 FE             11289 	and	a,#0xFE
   2706 E0 00             11290 	ldh	(_LCDC_REG+0),a
                          11291 ;	game.c 1347
                          11292 ; genAnd
                          11293 ; AOP_SFR for _LCDC_REG
   2708 F0 00             11294 	ldh	a,(_LCDC_REG+0) ; x
   270A E6 FD             11295 	and	a,#0xFD
   270C E0 00             11296 	ldh	(_LCDC_REG+0),a
                          11297 ;	game.c 1348
                          11298 ; genAnd
                          11299 ; AOP_SFR for _LCDC_REG
   270E F0 00             11300 	ldh	a,(_LCDC_REG+0) ; x
   2710 E6 DF             11301 	and	a,#0xDF
   2712 E0 00             11302 	ldh	(_LCDC_REG+0),a
                          11303 ;	game.c 1349
                          11304 ; genCall
   2714 CD 7A 16          11305 	call	_initBandits
                          11306 ;	game.c 1351
                          11307 ; genCall
   2717 CD 76 23          11308 	call	_EcranStart
                          11309 ;	game.c 1353
                          11310 ; genCall
   271A CD BF 25          11311 	call	_initGame
                          11312 ;	game.c 1354
                          11313 ; genCall
   271D CD 7A 16          11314 	call	_initBandits
                          11315 ;	game.c 1356
                          11316 ; genIpush
   2720 21 6E 35          11317 	ld	hl,#_decors_data + 0
   2723 E5                11318 	push	hl
                          11319 ; genIpush
   2724 3E 68             11320 	ld	a,#0x68
   2726 F5                11321 	push	af
   2727 33                11322 	inc	sp
                          11323 ; genIpush
   2728 3E 00             11324 	ld	a,#0x00
   272A F5                11325 	push	af
   272B 33                11326 	inc	sp
                          11327 ; genCall
   272C CD 00 00          11328 	call	_set_bkg_data
   272F E8 04             11329 	lda	sp,4(sp)
                          11330 ;	game.c 1359
                          11331 ; genIpush
   2731 21 5E 30          11332 	ld	hl,#_CityMap + 0
   2734 E5                11333 	push	hl
                          11334 ; genIpush
   2735 3E 10             11335 	ld	a,#0x10
   2737 F5                11336 	push	af
   2738 33                11337 	inc	sp
                          11338 ; genIpush
   2739 3E 20             11339 	ld	a,#0x20
   273B F5                11340 	push	af
   273C 33                11341 	inc	sp
                          11342 ; genIpush
   273D 3E 00             11343 	ld	a,#0x00
   273F F5                11344 	push	af
   2740 33                11345 	inc	sp
                          11346 ; genIpush
   2741 3E 00             11347 	ld	a,#0x00
   2743 F5                11348 	push	af
   2744 33                11349 	inc	sp
                          11350 ; genCall
   2745 CD 00 00          11351 	call	_set_bkg_tiles
   2748 E8 06             11352 	lda	sp,6(sp)
                          11353 ;	game.c 1362
                          11354 ; genIpush
   274A 21 3E 3F          11355 	ld	hl,#_HUD_MAP + 0
   274D E5                11356 	push	hl
                          11357 ; genIpush
   274E 3E 02             11358 	ld	a,#0x02
   2750 F5                11359 	push	af
   2751 33                11360 	inc	sp
                          11361 ; genIpush
   2752 3E 14             11362 	ld	a,#0x14
   2754 F5                11363 	push	af
   2755 33                11364 	inc	sp
                          11365 ; genIpush
   2756 3E 00             11366 	ld	a,#0x00
   2758 F5                11367 	push	af
   2759 33                11368 	inc	sp
                          11369 ; genIpush
   275A 3E 00             11370 	ld	a,#0x00
   275C F5                11371 	push	af
   275D 33                11372 	inc	sp
                          11373 ; genCall
   275E CD 00 00          11374 	call	_set_win_tiles
   2761 E8 06             11375 	lda	sp,6(sp)
                          11376 ;	game.c 1363
                          11377 ; genOr
                          11378 ; AOP_SFR for _LCDC_REG
                          11379 ; Type res[4] = l[4]&r[1]
                          11380 ; Size res[1] = l[1]&r[1]
   2763 F0 00             11381 	ldh	a,(_LCDC_REG+0) ; x
   2765 F6 02             11382 	or	a,#0x02
   2767 E0 00             11383 	ldh	(_LCDC_REG+0),a
                          11384 ;	game.c 1364
                          11385 ; genOr
                          11386 ; AOP_SFR for _LCDC_REG
                          11387 ; Type res[4] = l[4]&r[1]
                          11388 ; Size res[1] = l[1]&r[1]
   2769 F0 00             11389 	ldh	a,(_LCDC_REG+0) ; x
   276B F6 01             11390 	or	a,#0x01
   276D E0 00             11391 	ldh	(_LCDC_REG+0),a
                          11392 ;	game.c 1365
                          11393 ; genOr
                          11394 ; AOP_SFR for _LCDC_REG
                          11395 ; Type res[4] = l[4]&r[1]
                          11396 ; Size res[1] = l[1]&r[1]
   276F F0 00             11397 	ldh	a,(_LCDC_REG+0) ; x
   2771 F6 20             11398 	or	a,#0x20
   2773 E0 00             11399 	ldh	(_LCDC_REG+0),a
                          11400 ;	game.c 1367
                          11401 ; genPlus
                          11402 ; AOP_HL for _borderBottom
                          11403 ; genPlusIncr
   2775 21 42 00          11404 	ld	hl,#_borderBottom + 0
   2778 7E                11405 	ld	a,(hl)
   2779 C6 16             11406 	add	a,#0x16
   277B 4F                11407 	ld	c,a
                          11408 ; genIpush
   277C 79                11409 	ld	a,c
   277D F5                11410 	push	af
   277E 33                11411 	inc	sp
                          11412 ; genIpush
   277F 3E 07             11413 	ld	a,#0x07
   2781 F5                11414 	push	af
   2782 33                11415 	inc	sp
                          11416 ; genCall
   2783 CD 00 00          11417 	call	_move_win
   2786 E8 02             11418 	lda	sp,2(sp)
                          11419 ;	game.c 1372
                          11420 ; genLabel
   2788                   11421 00109$:
                          11422 ; genCmpEq
                          11423 ; AOP_HL for _isGameOver
   2788 21 4C 00          11424 	ld	hl,#_isGameOver + 0
   278B 7E                11425 	ld	a,(hl)
   278C B7                11426 	or	a,a
   278D C2 94 27          11427 	jp	nz,00125$
   2790 3E 01             11428 	ld	a,#0x01
   2792 18 01             11429 	jr	00126$
   2794                   11430 00125$:
   2794 AF                11431 	xor	a,a
   2795                   11432 00126$:
   2795 4F                11433 	ld	c,a
                          11434 ; genIfx
                          11435 ; Removed redundent or a,a
   2796 AF                11436 	xor	a,a
   2797 B1                11437 	or	a,c
   2798 CA 35 28          11438 	jp	z,00111$
                          11439 ;	game.c 1373
                          11440 ; genCall
   279B CD C8 20          11441 	call	_drawScoreBandit
                          11442 ;	game.c 1374
                          11443 ; genCall
   279E CD 19 22          11444 	call	_drawPv
                          11445 ;	game.c 1375
                          11446 ; genCall
   27A1 CD D3 21          11447 	call	_drawShock
                          11448 ;	game.c 1376
                          11449 ; genCall
   27A4 CD 7D 21          11450 	call	_calculateScoreVillager
                          11451 ;	game.c 1377
                          11452 ; genCall
   27A7 CD 34 21          11453 	call	_drawScoreVillager
                          11454 ;	game.c 1378
                          11455 ; genCall
   27AA CD 2A 20          11456 	call	_scrollCity
                          11457 ;	game.c 1379
                          11458 ; genCall
   27AD CD 98 19          11459 	call	_generateBandits
                          11460 ;	game.c 1380
                          11461 ; genCall
   27B0 CD F6 1E          11462 	call	_moveJudge
                          11463 ;	game.c 1381
                          11464 ; genCmpEq
                          11465 ; AOP_HL for _shockSend
                          11466 ; AOP_STK for _main_sloc0_1_0
   27B3 21 32 00          11467 	ld	hl,#_shockSend + 0
   27B6 7E                11468 	ld	a,(hl) ; 2
   27B7 FE 01             11469 	cp	a,#0x01
   27B9 C2 C0 27          11470 	jp	nz,00127$
   27BC 3E 01             11471 	ld	a,#0x01
   27BE 18 01             11472 	jr	00128$
   27C0                   11473 00127$:
   27C0 AF                11474 	xor	a,a
   27C1                   11475 00128$:
   27C1 F8 04             11476 	lda	hl,4(sp)
   27C3 77                11477 	ld	(hl),a ; 3
                          11478 ; genIfx
                          11479 ; AOP_STK for _main_sloc0_1_0
                          11480 ; Removed redundent or a,a
   27C4 AF                11481 	xor	a,a
   27C5 B6                11482 	or	a,(hl)
   27C6 CA CC 27          11483 	jp	z,00102$
                          11484 ;	game.c 1382
                          11485 ; genCall
   27C9 CD 8F 01          11486 	call	_moveShockWave
                          11487 ; genLabel
   27CC                   11488 00102$:
                          11489 ;	game.c 1387
                          11490 ; genCmpEq
                          11491 ; AOP_HL for _isAttacking
                          11492 ; AOP_STK for _main_sloc1_1_0
   27CC 21 3B 00          11493 	ld	hl,#_isAttacking + 0
   27CF 7E                11494 	ld	a,(hl) ; 2
   27D0 FE 01             11495 	cp	a,#0x01
   27D2 C2 D9 27          11496 	jp	nz,00129$
   27D5 3E 01             11497 	ld	a,#0x01
   27D7 18 01             11498 	jr	00130$
   27D9                   11499 00129$:
   27D9 AF                11500 	xor	a,a
   27DA                   11501 00130$:
   27DA F8 03             11502 	lda	hl,3(sp)
   27DC 77                11503 	ld	(hl),a ; 3
                          11504 ; genIfx
                          11505 ; AOP_STK for _main_sloc1_1_0
                          11506 ; Removed redundent or a,a
   27DD AF                11507 	xor	a,a
   27DE B6                11508 	or	a,(hl)
   27DF CA E5 27          11509 	jp	z,00104$
                          11510 ;	game.c 1388
                          11511 ; genCall
   27E2 CD 25 16          11512 	call	_JudgeGroundAttack
                          11513 ; genLabel
   27E5                   11514 00104$:
                          11515 ;	game.c 1391
                          11516 ; genCmpEq
                          11517 ; AOP_HL for _isWalking
                          11518 ; AOP_STK for _main_sloc2_1_0
   27E5 21 3A 00          11519 	ld	hl,#_isWalking + 0
   27E8 7E                11520 	ld	a,(hl)
   27E9 B7                11521 	or	a,a
   27EA C2 F1 27          11522 	jp	nz,00131$
   27ED 3E 01             11523 	ld	a,#0x01
   27EF 18 01             11524 	jr	00132$
   27F1                   11525 00131$:
   27F1 AF                11526 	xor	a,a
   27F2                   11527 00132$:
   27F2 F8 02             11528 	lda	hl,2(sp)
   27F4 77                11529 	ld	(hl),a ; 3
                          11530 ; genIfx
                          11531 ; AOP_STK for _main_sloc2_1_0
                          11532 ; Removed redundent or a,a
   27F5 AF                11533 	xor	a,a
   27F6 B6                11534 	or	a,(hl)
   27F7 CA 27 28          11535 	jp	z,00106$
                          11536 ; genCmpEq
                          11537 ; AOP_HL for _isAttacking
                          11538 ; AOP_STK for _main_sloc3_1_0
   27FA 21 3B 00          11539 	ld	hl,#_isAttacking + 0
   27FD 7E                11540 	ld	a,(hl)
   27FE B7                11541 	or	a,a
   27FF C2 06 28          11542 	jp	nz,00133$
   2802 3E 01             11543 	ld	a,#0x01
   2804 18 01             11544 	jr	00134$
   2806                   11545 00133$:
   2806 AF                11546 	xor	a,a
   2807                   11547 00134$:
   2807 F8 01             11548 	lda	hl,1(sp)
   2809 77                11549 	ld	(hl),a ; 3
                          11550 ; genIfx
                          11551 ; AOP_STK for _main_sloc3_1_0
                          11552 ; Removed redundent or a,a
   280A AF                11553 	xor	a,a
   280B B6                11554 	or	a,(hl)
   280C CA 27 28          11555 	jp	z,00106$
                          11556 ; genCmpEq
                          11557 ; AOP_HL for _isHurt
                          11558 ; AOP_STK for _main_sloc4_1_0
   280F 21 3C 00          11559 	ld	hl,#_isHurt + 0
   2812 7E                11560 	ld	a,(hl)
   2813 B7                11561 	or	a,a
   2814 C2 1B 28          11562 	jp	nz,00135$
   2817 3E 01             11563 	ld	a,#0x01
   2819 18 01             11564 	jr	00136$
   281B                   11565 00135$:
   281B AF                11566 	xor	a,a
   281C                   11567 00136$:
   281C F8 00             11568 	lda	hl,0(sp)
   281E 77                11569 	ld	(hl),a ; 3
                          11570 ; genIfx
                          11571 ; AOP_STK for _main_sloc4_1_0
                          11572 ; Removed redundent or a,a
   281F AF                11573 	xor	a,a
   2820 B6                11574 	or	a,(hl)
   2821 CA 27 28          11575 	jp	z,00106$
                          11576 ;	game.c 1392
                          11577 ; genCall
   2824 CD 4B 06          11578 	call	_drawJudgeIDLE
                          11579 ; genLabel
   2827                   11580 00106$:
                          11581 ;	game.c 1395
                          11582 ; genCall
   2827 CD D2 1B          11583 	call	_moveBandits
                          11584 ;	game.c 1397
                          11585 ; genOr
                          11586 ; AOP_SFR for _LCDC_REG
                          11587 ; Type res[2] = l[4]&r[1]
                          11588 ; Size res[1] = l[1]&r[1]
   282A F0 00             11589 	ldh	a,(_LCDC_REG+0) ; x
   282C F6 02             11590 	or	a,#0x02
   282E 47                11591 	ld	b,a
                          11592 ; genAssign
                          11593 ; AOP_SFR for _LCDC_REG
   282F 78                11594 	ld	a,b
   2830 E0 00             11595 	ldh	(_LCDC_REG+0),a
                          11596 ; genGoto
   2832 C3 88 27          11597 	jp	00109$
                          11598 ; genLabel
   2835                   11599 00111$:
                          11600 ;	game.c 1399
                          11601 ; genAssign
                          11602 ; AOP_HL for _gameIsLaunch
   2835 21 4B 00          11603 	ld	hl,#_gameIsLaunch + 0
   2838 36 00             11604 	ld	(hl),#0x00
                          11605 ;	game.c 1401
                          11606 ; genCall
   283A CD 01 24          11607 	call	_showScore
                          11608 ; genGoto
   283D C3 F2 26          11609 	jp	00113$
                          11610 ;	game.c 1404
                          11611 ; genLabel
   2840                   11612 00115$:
                          11613 ; genEndFunction
   2840 E8 05             11614 	lda	sp,5(sp)
   2842 C1                11615 	pop bc
   2843 C9                11616 	ret
   2844                   11617 ___main_end:
                          11618 	.area _CODE
   2844                   11619 _logoTiles:
   2844 00                11620 	.db #0x00
   2845 00                11621 	.db #0x00
   2846 00                11622 	.db #0x00
   2847 A0                11623 	.db #0xA0
   2848 A0                11624 	.db #0xA0
   2849 AC                11625 	.db #0xAC
   284A AC                11626 	.db #0xAC
   284B AE                11627 	.db #0xAE
   284C E2                11628 	.db #0xE2
   284D E2                11629 	.db #0xE2
   284E A6                11630 	.db #0xA6
   284F A6                11631 	.db #0xA6
   2850 AA                11632 	.db #0xAA
   2851 AA                11633 	.db #0xAA
   2852 AE                11634 	.db #0xAE
   2853 AE                11635 	.db #0xAE
   2854 00                11636 	.db #0x00
   2855 00                11637 	.db #0x00
   2856 00                11638 	.db #0x00
   2857 00                11639 	.db #0x00
   2858 00                11640 	.db #0x00
   2859 CC                11641 	.db #0xCC
   285A CC                11642 	.db #0xCC
   285B EE                11643 	.db #0xEE
   285C AA                11644 	.db #0xAA
   285D AA                11645 	.db #0xAA
   285E CC                11646 	.db #0xCC
   285F CC                11647 	.db #0xCC
   2860 88                11648 	.db #0x88
   2861 88                11649 	.db #0x88
   2862 88                11650 	.db #0x88
   2863 88                11651 	.db #0x88
   2864 00                11652 	.db #0x00
   2865 00                11653 	.db #0x00
   2866 00                11654 	.db #0x00
   2867 00                11655 	.db #0x00
   2868 00                11656 	.db #0x00
   2869 CC                11657 	.db #0xCC
   286A CC                11658 	.db #0xCC
   286B EE                11659 	.db #0xEE
   286C A2                11660 	.db #0xA2
   286D A2                11661 	.db #0xA2
   286E C6                11662 	.db #0xC6
   286F C6                11663 	.db #0xC6
   2870 8A                11664 	.db #0x8A
   2871 8A                11665 	.db #0x8A
   2872 6E                11666 	.db #0x6E
   2873 6E                11667 	.db #0x6E
   2874 00                11668 	.db #0x00
   2875 00                11669 	.db #0x00
   2876 00                11670 	.db #0x00
   2877 00                11671 	.db #0x00
   2878 00                11672 	.db #0x00
   2879 80                11673 	.db #0x80
   287A 80                11674 	.db #0x80
   287B 80                11675 	.db #0x80
   287C 80                11676 	.db #0x80
   287D 80                11677 	.db #0x80
   287E 80                11678 	.db #0x80
   287F 80                11679 	.db #0x80
   2880 80                11680 	.db #0x80
   2881 E0                11681 	.db #0xE0
   2882 60                11682 	.db #0x60
   2883 60                11683 	.db #0x60
   2884 00                11684 	.db #0x00
   2885 00                11685 	.db #0x00
   2886 00                11686 	.db #0x00
   2887 00                11687 	.db #0x00
   2888 00                11688 	.db #0x00
   2889 6A                11689 	.db #0x6A
   288A 6A                11690 	.db #0x6A
   288B EA                11691 	.db #0xEA
   288C 8A                11692 	.db #0x8A
   288D 8E                11693 	.db #0x8E
   288E 44                11694 	.db #0x44
   288F 44                11695 	.db #0x44
   2890 24                11696 	.db #0x24
   2891 24                11697 	.db #0x24
   2892 C4                11698 	.db #0xC4
   2893 C4                11699 	.db #0xC4
   2894 00                11700 	.db #0x00
   2895 00                11701 	.db #0x00
   2896 00                11702 	.db #0x00
   2897 00                11703 	.db #0x00
   2898 00                11704 	.db #0x00
   2899 6E                11705 	.db #0x6E
   289A 6E                11706 	.db #0x6E
   289B EE                11707 	.db #0xEE
   289C 84                11708 	.db #0x84
   289D 84                11709 	.db #0x84
   289E 44                11710 	.db #0x44
   289F 44                11711 	.db #0x44
   28A0 24                11712 	.db #0x24
   28A1 24                11713 	.db #0x24
   28A2 C4                11714 	.db #0xC4
   28A3 C4                11715 	.db #0xC4
   28A4 00                11716 	.db #0x00
   28A5 00                11717 	.db #0x00
   28A6 00                11718 	.db #0x00
   28A7 00                11719 	.db #0x00
   28A8 00                11720 	.db #0x00
   28A9 EF                11721 	.db #0xEF
   28AA EF                11722 	.db #0xEF
   28AB EF                11723 	.db #0xEF
   28AC 89                11724 	.db #0x89
   28AD 89                11725 	.db #0x89
   28AE E9                11726 	.db #0xE9
   28AF E9                11727 	.db #0xE9
   28B0 89                11728 	.db #0x89
   28B1 89                11729 	.db #0x89
   28B2 E9                11730 	.db #0xE9
   28B3 E9                11731 	.db #0xE9
   28B4 00                11732 	.db #0x00
   28B5 00                11733 	.db #0x00
   28B6 00                11734 	.db #0x00
   28B7 00                11735 	.db #0x00
   28B8 00                11736 	.db #0x00
   28B9 C0                11737 	.db #0xC0
   28BA C0                11738 	.db #0xC0
   28BB C0                11739 	.db #0xC0
   28BC 40                11740 	.db #0x40
   28BD 40                11741 	.db #0x40
   28BE 40                11742 	.db #0x40
   28BF 40                11743 	.db #0x40
   28C0 40                11744 	.db #0x40
   28C1 40                11745 	.db #0x40
   28C2 40                11746 	.db #0x40
   28C3 40                11747 	.db #0x40
   28C4 00                11748 	.db #0x00
   28C5 00                11749 	.db #0x00
   28C6 00                11750 	.db #0x00
   28C7 00                11751 	.db #0x00
   28C8 00                11752 	.db #0x00
   28C9 00                11753 	.db #0x00
   28CA 00                11754 	.db #0x00
   28CB 00                11755 	.db #0x00
   28CC 00                11756 	.db #0x00
   28CD 00                11757 	.db #0x00
   28CE 08                11758 	.db #0x08
   28CF 00                11759 	.db #0x00
   28D0 1D                11760 	.db #0x1D
   28D1 01                11761 	.db #0x01
   28D2 09                11762 	.db #0x09
   28D3 01                11763 	.db #0x01
   28D4 01                11764 	.db #0x01
   28D5 01                11765 	.db #0x01
   28D6 01                11766 	.db #0x01
   28D7 01                11767 	.db #0x01
   28D8 01                11768 	.db #0x01
   28D9 01                11769 	.db #0x01
   28DA 01                11770 	.db #0x01
   28DB 01                11771 	.db #0x01
   28DC 01                11772 	.db #0x01
   28DD 01                11773 	.db #0x01
   28DE 01                11774 	.db #0x01
   28DF 01                11775 	.db #0x01
   28E0 01                11776 	.db #0x01
   28E1 01                11777 	.db #0x01
   28E2 01                11778 	.db #0x01
   28E3 01                11779 	.db #0x01
   28E4 00                11780 	.db #0x00
   28E5 00                11781 	.db #0x00
   28E6 00                11782 	.db #0x00
   28E7 00                11783 	.db #0x00
   28E8 00                11784 	.db #0x00
   28E9 00                11785 	.db #0x00
   28EA 00                11786 	.db #0x00
   28EB 00                11787 	.db #0x00
   28EC 78                11788 	.db #0x78
   28ED 78                11789 	.db #0x78
   28EE FC                11790 	.db #0xFC
   28EF FC                11791 	.db #0xFC
   28F0 02                11792 	.db #0x02
   28F1 FE                11793 	.db #0xFE
   28F2 02                11794 	.db #0x02
   28F3 FE                11795 	.db #0xFE
   28F4 02                11796 	.db #0x02
   28F5 FE                11797 	.db #0xFE
   28F6 FE                11798 	.db #0xFE
   28F7 FE                11799 	.db #0xFE
   28F8 02                11800 	.db #0x02
   28F9 FE                11801 	.db #0xFE
   28FA 02                11802 	.db #0x02
   28FB FE                11803 	.db #0xFE
   28FC 02                11804 	.db #0x02
   28FD FE                11805 	.db #0xFE
   28FE FE                11806 	.db #0xFE
   28FF FE                11807 	.db #0xFE
   2900 02                11808 	.db #0x02
   2901 FE                11809 	.db #0xFE
   2902 02                11810 	.db #0x02
   2903 FE                11811 	.db #0xFE
   2904 01                11812 	.db #0x01
   2905 01                11813 	.db #0x01
   2906 01                11814 	.db #0x01
   2907 01                11815 	.db #0x01
   2908 01                11816 	.db #0x01
   2909 01                11817 	.db #0x01
   290A 01                11818 	.db #0x01
   290B 01                11819 	.db #0x01
   290C 00                11820 	.db #0x00
   290D 00                11821 	.db #0x00
   290E 1C                11822 	.db #0x1C
   290F 00                11823 	.db #0x00
   2910 00                11824 	.db #0x00
   2911 00                11825 	.db #0x00
   2912 00                11826 	.db #0x00
   2913 00                11827 	.db #0x00
   2914 02                11828 	.db #0x02
   2915 FE                11829 	.db #0xFE
   2916 FE                11830 	.db #0xFE
   2917 FE                11831 	.db #0xFE
   2918 02                11832 	.db #0x02
   2919 FE                11833 	.db #0xFE
   291A 02                11834 	.db #0x02
   291B FE                11835 	.db #0xFE
   291C FC                11836 	.db #0xFC
   291D FC                11837 	.db #0xFC
   291E 00                11838 	.db #0x00
   291F 00                11839 	.db #0x00
   2920 00                11840 	.db #0x00
   2921 00                11841 	.db #0x00
   2922 00                11842 	.db #0x00
   2923 00                11843 	.db #0x00
   2924 00                11844 	.db #0x00
   2925 00                11845 	.db #0x00
   2926 00                11846 	.db #0x00
   2927 00                11847 	.db #0x00
   2928 00                11848 	.db #0x00
   2929 00                11849 	.db #0x00
   292A 00                11850 	.db #0x00
   292B 00                11851 	.db #0x00
   292C 00                11852 	.db #0x00
   292D 00                11853 	.db #0x00
   292E 00                11854 	.db #0x00
   292F 00                11855 	.db #0x00
   2930 00                11856 	.db #0x00
   2931 00                11857 	.db #0x00
   2932 00                11858 	.db #0x00
   2933 00                11859 	.db #0x00
   2934                   11860 _logoWin:
   2934 08                11861 	.db #0x08
   2935 0A                11862 	.db #0x0A
   2936 0E                11863 	.db #0x0E
   2937 00                11864 	.db #0x00
   2938 01                11865 	.db #0x01
   2939 02                11866 	.db #0x02
   293A 03                11867 	.db #0x03
   293B 09                11868 	.db #0x09
   293C 0B                11869 	.db #0x0B
   293D 0E                11870 	.db #0x0E
   293E 0E                11871 	.db #0x0E
   293F 0E                11872 	.db #0x0E
   2940 0E                11873 	.db #0x0E
   2941 0E                11874 	.db #0x0E
   2942 0C                11875 	.db #0x0C
   2943 0D                11876 	.db #0x0D
   2944 0E                11877 	.db #0x0E
   2945 04                11878 	.db #0x04
   2946 05                11879 	.db #0x05
   2947 06                11880 	.db #0x06
   2948 07                11881 	.db #0x07
   2949                   11882 _BenMetTiles:
   2949 00                11883 	.db #0x00
   294A 00                11884 	.db #0x00
   294B 00                11885 	.db #0x00
   294C 07                11886 	.db #0x07
   294D 00                11887 	.db #0x00
   294E 1F                11888 	.db #0x1F
   294F 00                11889 	.db #0x00
   2950 3F                11890 	.db #0x3F
   2951 1C                11891 	.db #0x1C
   2952 23                11892 	.db #0x23
   2953 12                11893 	.db #0x12
   2954 6D                11894 	.db #0x6D
   2955 12                11895 	.db #0x12
   2956 6D                11896 	.db #0x6D
   2957 1C                11897 	.db #0x1C
   2958 63                11898 	.db #0x63
   2959 12                11899 	.db #0x12
   295A 6D                11900 	.db #0x6D
   295B 12                11901 	.db #0x12
   295C 6D                11902 	.db #0x6D
   295D 1C                11903 	.db #0x1C
   295E 63                11904 	.db #0x63
   295F 00                11905 	.db #0x00
   2960 3F                11906 	.db #0x3F
   2961 00                11907 	.db #0x00
   2962 3F                11908 	.db #0x3F
   2963 00                11909 	.db #0x00
   2964 1F                11910 	.db #0x1F
   2965 00                11911 	.db #0x00
   2966 07                11912 	.db #0x07
   2967 00                11913 	.db #0x00
   2968 00                11914 	.db #0x00
   2969 00                11915 	.db #0x00
   296A 00                11916 	.db #0x00
   296B 00                11917 	.db #0x00
   296C E0                11918 	.db #0xE0
   296D 00                11919 	.db #0x00
   296E F8                11920 	.db #0xF8
   296F 00                11921 	.db #0x00
   2970 FC                11922 	.db #0xFC
   2971 D8                11923 	.db #0xD8
   2972 24                11924 	.db #0x24
   2973 A8                11925 	.db #0xA8
   2974 56                11926 	.db #0x56
   2975 A8                11927 	.db #0xA8
   2976 56                11928 	.db #0x56
   2977 A8                11929 	.db #0xA8
   2978 56                11930 	.db #0x56
   2979 A8                11931 	.db #0xA8
   297A 56                11932 	.db #0x56
   297B A8                11933 	.db #0xA8
   297C 56                11934 	.db #0x56
   297D A8                11935 	.db #0xA8
   297E 56                11936 	.db #0x56
   297F 00                11937 	.db #0x00
   2980 FC                11938 	.db #0xFC
   2981 00                11939 	.db #0x00
   2982 FC                11940 	.db #0xFC
   2983 00                11941 	.db #0x00
   2984 F8                11942 	.db #0xF8
   2985 00                11943 	.db #0x00
   2986 E0                11944 	.db #0xE0
   2987 00                11945 	.db #0x00
   2988 00                11946 	.db #0x00
   2989 CE                11947 	.db #0xCE
   298A 00                11948 	.db #0x00
   298B EE                11949 	.db #0xEE
   298C CE                11950 	.db #0xCE
   298D A8                11951 	.db #0xA8
   298E A8                11952 	.db #0xA8
   298F EE                11953 	.db #0xEE
   2990 A8                11954 	.db #0xA8
   2991 CE                11955 	.db #0xCE
   2992 CE                11956 	.db #0xCE
   2993 A8                11957 	.db #0xA8
   2994 A8                11958 	.db #0xA8
   2995 EE                11959 	.db #0xEE
   2996 A8                11960 	.db #0xA8
   2997 CE                11961 	.db #0xCE
   2998 CE                11962 	.db #0xCE
   2999 EE                11963 	.db #0xEE
   299A 00                11964 	.db #0x00
   299B EE                11965 	.db #0xEE
   299C EE                11966 	.db #0xEE
   299D A4                11967 	.db #0xA4
   299E A4                11968 	.db #0xA4
   299F A4                11969 	.db #0xA4
   29A0 A4                11970 	.db #0xA4
   29A1 A4                11971 	.db #0xA4
   29A2 A4                11972 	.db #0xA4
   29A3 A4                11973 	.db #0xA4
   29A4 A4                11974 	.db #0xA4
   29A5 AC                11975 	.db #0xAC
   29A6 A4                11976 	.db #0xA4
   29A7 AC                11977 	.db #0xAC
   29A8 AC                11978 	.db #0xAC
   29A9 EF                11979 	.db #0xEF
   29AA 00                11980 	.db #0x00
   29AB EF                11981 	.db #0xEF
   29AC EF                11982 	.db #0xEF
   29AD AA                11983 	.db #0xAA
   29AE AA                11984 	.db #0xAA
   29AF EA                11985 	.db #0xEA
   29B0 AA                11986 	.db #0xAA
   29B1 EA                11987 	.db #0xEA
   29B2 EA                11988 	.db #0xEA
   29B3 AA                11989 	.db #0xAA
   29B4 AA                11990 	.db #0xAA
   29B5 AA                11991 	.db #0xAA
   29B6 AA                11992 	.db #0xAA
   29B7 AA                11993 	.db #0xAA
   29B8 AA                11994 	.db #0xAA
   29B9 3B                11995 	.db #0x3B
   29BA 00                11996 	.db #0x00
   29BB BB                11997 	.db #0xBB
   29BC BB                11998 	.db #0xBB
   29BD 92                11999 	.db #0x92
   29BE 92                12000 	.db #0x92
   29BF 92                12001 	.db #0x92
   29C0 92                12002 	.db #0x92
   29C1 92                12003 	.db #0x92
   29C2 92                12004 	.db #0x92
   29C3 92                12005 	.db #0x92
   29C4 92                12006 	.db #0x92
   29C5 BA                12007 	.db #0xBA
   29C6 92                12008 	.db #0x92
   29C7 BA                12009 	.db #0xBA
   29C8 BA                12010 	.db #0xBA
   29C9 80                12011 	.db #0x80
   29CA 00                12012 	.db #0x00
   29CB 80                12013 	.db #0x80
   29CC 80                12014 	.db #0x80
   29CD 80                12015 	.db #0x80
   29CE 80                12016 	.db #0x80
   29CF 80                12017 	.db #0x80
   29D0 80                12018 	.db #0x80
   29D1 80                12019 	.db #0x80
   29D2 80                12020 	.db #0x80
   29D3 80                12021 	.db #0x80
   29D4 80                12022 	.db #0x80
   29D5 80                12023 	.db #0x80
   29D6 80                12024 	.db #0x80
   29D7 80                12025 	.db #0x80
   29D8 80                12026 	.db #0x80
   29D9 FB                12027 	.db #0xFB
   29DA 00                12028 	.db #0x00
   29DB FB                12029 	.db #0xFB
   29DC FB                12030 	.db #0xFB
   29DD AA                12031 	.db #0xAA
   29DE AA                12032 	.db #0xAA
   29DF AB                12033 	.db #0xAB
   29E0 AA                12034 	.db #0xAA
   29E1 AB                12035 	.db #0xAB
   29E2 AB                12036 	.db #0xAB
   29E3 AA                12037 	.db #0xAA
   29E4 AA                12038 	.db #0xAA
   29E5 AB                12039 	.db #0xAB
   29E6 AA                12040 	.db #0xAA
   29E7 AB                12041 	.db #0xAB
   29E8 AB                12042 	.db #0xAB
   29E9 BB                12043 	.db #0xBB
   29EA 00                12044 	.db #0x00
   29EB BB                12045 	.db #0xBB
   29EC BB                12046 	.db #0xBB
   29ED 12                12047 	.db #0x12
   29EE 12                12048 	.db #0x12
   29EF 93                12049 	.db #0x93
   29F0 12                12050 	.db #0x12
   29F1 93                12051 	.db #0x93
   29F2 93                12052 	.db #0x93
   29F3 12                12053 	.db #0x12
   29F4 12                12054 	.db #0x12
   29F5 92                12055 	.db #0x92
   29F6 12                12056 	.db #0x12
   29F7 92                12057 	.db #0x92
   29F8 92                12058 	.db #0x92
   29F9 AB                12059 	.db #0xAB
   29FA 00                12060 	.db #0x00
   29FB AB                12061 	.db #0xAB
   29FC AB                12062 	.db #0xAB
   29FD A9                12063 	.db #0xA9
   29FE A9                12064 	.db #0xA9
   29FF A9                12065 	.db #0xA9
   2A00 A9                12066 	.db #0xA9
   2A01 A9                12067 	.db #0xA9
   2A02 A9                12068 	.db #0xA9
   2A03 A9                12069 	.db #0xA9
   2A04 A9                12070 	.db #0xA9
   2A05 B9                12071 	.db #0xB9
   2A06 A9                12072 	.db #0xA9
   2A07 B9                12073 	.db #0xB9
   2A08 B9                12074 	.db #0xB9
   2A09 80                12075 	.db #0x80
   2A0A 00                12076 	.db #0x00
   2A0B 80                12077 	.db #0x80
   2A0C 80                12078 	.db #0x80
   2A0D 00                12079 	.db #0x00
   2A0E 00                12080 	.db #0x00
   2A0F 00                12081 	.db #0x00
   2A10 00                12082 	.db #0x00
   2A11 00                12083 	.db #0x00
   2A12 00                12084 	.db #0x00
   2A13 00                12085 	.db #0x00
   2A14 00                12086 	.db #0x00
   2A15 00                12087 	.db #0x00
   2A16 00                12088 	.db #0x00
   2A17 00                12089 	.db #0x00
   2A18 00                12090 	.db #0x00
   2A19 00                12091 	.db #0x00
   2A1A 00                12092 	.db #0x00
   2A1B 00                12093 	.db #0x00
   2A1C 00                12094 	.db #0x00
   2A1D 00                12095 	.db #0x00
   2A1E 00                12096 	.db #0x00
   2A1F 00                12097 	.db #0x00
   2A20 00                12098 	.db #0x00
   2A21 00                12099 	.db #0x00
   2A22 00                12100 	.db #0x00
   2A23 00                12101 	.db #0x00
   2A24 00                12102 	.db #0x00
   2A25 00                12103 	.db #0x00
   2A26 00                12104 	.db #0x00
   2A27 00                12105 	.db #0x00
   2A28 00                12106 	.db #0x00
   2A29                   12107 _BenMetLogo:
   2A29 0D                12108 	.db #0x0D
   2A2A 0D                12109 	.db #0x0D
   2A2B 0D                12110 	.db #0x0D
   2A2C 00                12111 	.db #0x00
   2A2D 02                12112 	.db #0x02
   2A2E 0D                12113 	.db #0x0D
   2A2F 0D                12114 	.db #0x0D
   2A30 0D                12115 	.db #0x0D
   2A31 0D                12116 	.db #0x0D
   2A32 0D                12117 	.db #0x0D
   2A33 0D                12118 	.db #0x0D
   2A34 0D                12119 	.db #0x0D
   2A35 01                12120 	.db #0x01
   2A36 03                12121 	.db #0x03
   2A37 0D                12122 	.db #0x0D
   2A38 0D                12123 	.db #0x0D
   2A39 0D                12124 	.db #0x0D
   2A3A 0D                12125 	.db #0x0D
   2A3B 0D                12126 	.db #0x0D
   2A3C 0D                12127 	.db #0x0D
   2A3D 0D                12128 	.db #0x0D
   2A3E 0D                12129 	.db #0x0D
   2A3F 0D                12130 	.db #0x0D
   2A40 0D                12131 	.db #0x0D
   2A41 0D                12132 	.db #0x0D
   2A42 0D                12133 	.db #0x0D
   2A43 0D                12134 	.db #0x0D
   2A44 04                12135 	.db #0x04
   2A45 05                12136 	.db #0x05
   2A46 06                12137 	.db #0x06
   2A47 07                12138 	.db #0x07
   2A48 08                12139 	.db #0x08
   2A49 09                12140 	.db #0x09
   2A4A 0A                12141 	.db #0x0A
   2A4B 0B                12142 	.db #0x0B
   2A4C 0C                12143 	.db #0x0C
   2A4D                   12144 _GameOver:
   2A4D 4F                12145 	.db #0x4F
   2A4E 50                12146 	.db #0x50
   2A4F 51                12147 	.db #0x51
   2A50 52                12148 	.db #0x52
   2A51 53                12149 	.db #0x53
   2A52                   12150 _ScoreScreen:
   2A52 25                12151 	.db #0x25
   2A53 25                12152 	.db #0x25
   2A54 25                12153 	.db #0x25
   2A55 25                12154 	.db #0x25
   2A56 25                12155 	.db #0x25
   2A57 25                12156 	.db #0x25
   2A58 25                12157 	.db #0x25
   2A59 25                12158 	.db #0x25
   2A5A 25                12159 	.db #0x25
   2A5B 25                12160 	.db #0x25
   2A5C 25                12161 	.db #0x25
   2A5D 25                12162 	.db #0x25
   2A5E 25                12163 	.db #0x25
   2A5F 25                12164 	.db #0x25
   2A60 25                12165 	.db #0x25
   2A61 25                12166 	.db #0x25
   2A62 25                12167 	.db #0x25
   2A63 25                12168 	.db #0x25
   2A64 25                12169 	.db #0x25
   2A65 25                12170 	.db #0x25
   2A66 25                12171 	.db #0x25
   2A67 25                12172 	.db #0x25
   2A68 25                12173 	.db #0x25
   2A69 25                12174 	.db #0x25
   2A6A 25                12175 	.db #0x25
   2A6B 25                12176 	.db #0x25
   2A6C 25                12177 	.db #0x25
   2A6D 44                12178 	.db #0x44
   2A6E 54                12179 	.db #0x54
   2A6F 46                12180 	.db #0x46
   2A70 55                12181 	.db #0x55
   2A71 56                12182 	.db #0x56
   2A72 25                12183 	.db #0x25
   2A73 25                12184 	.db #0x25
   2A74 25                12185 	.db #0x25
   2A75 25                12186 	.db #0x25
   2A76 25                12187 	.db #0x25
   2A77 25                12188 	.db #0x25
   2A78 25                12189 	.db #0x25
   2A79 25                12190 	.db #0x25
   2A7A 25                12191 	.db #0x25
   2A7B 25                12192 	.db #0x25
   2A7C 25                12193 	.db #0x25
   2A7D 25                12194 	.db #0x25
   2A7E 25                12195 	.db #0x25
   2A7F 25                12196 	.db #0x25
   2A80 25                12197 	.db #0x25
   2A81 25                12198 	.db #0x25
   2A82 25                12199 	.db #0x25
   2A83 25                12200 	.db #0x25
   2A84 25                12201 	.db #0x25
   2A85 25                12202 	.db #0x25
   2A86 25                12203 	.db #0x25
   2A87 25                12204 	.db #0x25
   2A88 25                12205 	.db #0x25
   2A89 25                12206 	.db #0x25
   2A8A 25                12207 	.db #0x25
   2A8B 25                12208 	.db #0x25
   2A8C 25                12209 	.db #0x25
   2A8D 25                12210 	.db #0x25
   2A8E 25                12211 	.db #0x25
   2A8F 25                12212 	.db #0x25
   2A90 25                12213 	.db #0x25
   2A91 25                12214 	.db #0x25
   2A92 5A                12215 	.db #0x5A
   2A93 5E                12216 	.db #0x5E
   2A94 5E                12217 	.db #0x5E
   2A95 5E                12218 	.db #0x5E
   2A96 5E                12219 	.db #0x5E
   2A97 5E                12220 	.db #0x5E
   2A98 5E                12221 	.db #0x5E
   2A99 5E                12222 	.db #0x5E
   2A9A 5E                12223 	.db #0x5E
   2A9B 5E                12224 	.db #0x5E
   2A9C 5E                12225 	.db #0x5E
   2A9D 5B                12226 	.db #0x5B
   2A9E 25                12227 	.db #0x25
   2A9F 25                12228 	.db #0x25
   2AA0 25                12229 	.db #0x25
   2AA1 25                12230 	.db #0x25
   2AA2 25                12231 	.db #0x25
   2AA3 25                12232 	.db #0x25
   2AA4 25                12233 	.db #0x25
   2AA5 25                12234 	.db #0x25
   2AA6 5D                12235 	.db #0x5D
   2AA7 57                12236 	.db #0x57
   2AA8 57                12237 	.db #0x57
   2AA9 57                12238 	.db #0x57
   2AAA 57                12239 	.db #0x57
   2AAB 57                12240 	.db #0x57
   2AAC 57                12241 	.db #0x57
   2AAD 57                12242 	.db #0x57
   2AAE 57                12243 	.db #0x57
   2AAF 57                12244 	.db #0x57
   2AB0 57                12245 	.db #0x57
   2AB1 5C                12246 	.db #0x5C
   2AB2 25                12247 	.db #0x25
   2AB3 25                12248 	.db #0x25
   2AB4 25                12249 	.db #0x25
   2AB5 25                12250 	.db #0x25
   2AB6 25                12251 	.db #0x25
   2AB7 25                12252 	.db #0x25
   2AB8 25                12253 	.db #0x25
   2AB9 25                12254 	.db #0x25
   2ABA 5D                12255 	.db #0x5D
   2ABB 57                12256 	.db #0x57
   2ABC 57                12257 	.db #0x57
   2ABD 57                12258 	.db #0x57
   2ABE 3E                12259 	.db #0x3E
   2ABF 32                12260 	.db #0x32
   2AC0 36                12261 	.db #0x36
   2AC1 57                12262 	.db #0x57
   2AC2 57                12263 	.db #0x57
   2AC3 57                12264 	.db #0x57
   2AC4 57                12265 	.db #0x57
   2AC5 5C                12266 	.db #0x5C
   2AC6 25                12267 	.db #0x25
   2AC7 25                12268 	.db #0x25
   2AC8 25                12269 	.db #0x25
   2AC9 25                12270 	.db #0x25
   2ACA 25                12271 	.db #0x25
   2ACB 25                12272 	.db #0x25
   2ACC 25                12273 	.db #0x25
   2ACD 25                12274 	.db #0x25
   2ACE 5D                12275 	.db #0x5D
   2ACF 57                12276 	.db #0x57
   2AD0 57                12277 	.db #0x57
   2AD1 57                12278 	.db #0x57
   2AD2 3E                12279 	.db #0x3E
   2AD3 33                12280 	.db #0x33
   2AD4 35                12281 	.db #0x35
   2AD5 57                12282 	.db #0x57
   2AD6 57                12283 	.db #0x57
   2AD7 57                12284 	.db #0x57
   2AD8 57                12285 	.db #0x57
   2AD9 5C                12286 	.db #0x5C
   2ADA 25                12287 	.db #0x25
   2ADB 25                12288 	.db #0x25
   2ADC 25                12289 	.db #0x25
   2ADD 25                12290 	.db #0x25
   2ADE 25                12291 	.db #0x25
   2ADF 25                12292 	.db #0x25
   2AE0 25                12293 	.db #0x25
   2AE1 25                12294 	.db #0x25
   2AE2 5D                12295 	.db #0x5D
   2AE3 57                12296 	.db #0x57
   2AE4 57                12297 	.db #0x57
   2AE5 57                12298 	.db #0x57
   2AE6 57                12299 	.db #0x57
   2AE7 57                12300 	.db #0x57
   2AE8 57                12301 	.db #0x57
   2AE9 57                12302 	.db #0x57
   2AEA 57                12303 	.db #0x57
   2AEB 57                12304 	.db #0x57
   2AEC 57                12305 	.db #0x57
   2AED 5C                12306 	.db #0x5C
   2AEE 25                12307 	.db #0x25
   2AEF 25                12308 	.db #0x25
   2AF0 25                12309 	.db #0x25
   2AF1 25                12310 	.db #0x25
   2AF2 25                12311 	.db #0x25
   2AF3 25                12312 	.db #0x25
   2AF4 25                12313 	.db #0x25
   2AF5 25                12314 	.db #0x25
   2AF6 5D                12315 	.db #0x5D
   2AF7 57                12316 	.db #0x57
   2AF8 60                12317 	.db #0x60
   2AF9 61                12318 	.db #0x61
   2AFA 57                12319 	.db #0x57
   2AFB 3F                12320 	.db #0x3F
   2AFC 57                12321 	.db #0x57
   2AFD 28                12322 	.db #0x28
   2AFE 28                12323 	.db #0x28
   2AFF 28                12324 	.db #0x28
   2B00 57                12325 	.db #0x57
   2B01 5C                12326 	.db #0x5C
   2B02 25                12327 	.db #0x25
   2B03 25                12328 	.db #0x25
   2B04 25                12329 	.db #0x25
   2B05 25                12330 	.db #0x25
   2B06 25                12331 	.db #0x25
   2B07 25                12332 	.db #0x25
   2B08 25                12333 	.db #0x25
   2B09 25                12334 	.db #0x25
   2B0A 5D                12335 	.db #0x5D
   2B0B 57                12336 	.db #0x57
   2B0C 57                12337 	.db #0x57
   2B0D 57                12338 	.db #0x57
   2B0E 57                12339 	.db #0x57
   2B0F 57                12340 	.db #0x57
   2B10 57                12341 	.db #0x57
   2B11 57                12342 	.db #0x57
   2B12 57                12343 	.db #0x57
   2B13 57                12344 	.db #0x57
   2B14 57                12345 	.db #0x57
   2B15 5C                12346 	.db #0x5C
   2B16 25                12347 	.db #0x25
   2B17 25                12348 	.db #0x25
   2B18 25                12349 	.db #0x25
   2B19 25                12350 	.db #0x25
   2B1A 25                12351 	.db #0x25
   2B1B 25                12352 	.db #0x25
   2B1C 25                12353 	.db #0x25
   2B1D 25                12354 	.db #0x25
   2B1E 5D                12355 	.db #0x5D
   2B1F 57                12356 	.db #0x57
   2B20 62                12357 	.db #0x62
   2B21 63                12358 	.db #0x63
   2B22 57                12359 	.db #0x57
   2B23 3F                12360 	.db #0x3F
   2B24 57                12361 	.db #0x57
   2B25 28                12362 	.db #0x28
   2B26 28                12363 	.db #0x28
   2B27 28                12364 	.db #0x28
   2B28 57                12365 	.db #0x57
   2B29 5C                12366 	.db #0x5C
   2B2A 25                12367 	.db #0x25
   2B2B 25                12368 	.db #0x25
   2B2C 25                12369 	.db #0x25
   2B2D 25                12370 	.db #0x25
   2B2E 25                12371 	.db #0x25
   2B2F 25                12372 	.db #0x25
   2B30 25                12373 	.db #0x25
   2B31 25                12374 	.db #0x25
   2B32 5D                12375 	.db #0x5D
   2B33 57                12376 	.db #0x57
   2B34 57                12377 	.db #0x57
   2B35 57                12378 	.db #0x57
   2B36 57                12379 	.db #0x57
   2B37 57                12380 	.db #0x57
   2B38 57                12381 	.db #0x57
   2B39 57                12382 	.db #0x57
   2B3A 57                12383 	.db #0x57
   2B3B 57                12384 	.db #0x57
   2B3C 57                12385 	.db #0x57
   2B3D 5C                12386 	.db #0x5C
   2B3E 25                12387 	.db #0x25
   2B3F 25                12388 	.db #0x25
   2B40 25                12389 	.db #0x25
   2B41 25                12390 	.db #0x25
   2B42 25                12391 	.db #0x25
   2B43 25                12392 	.db #0x25
   2B44 25                12393 	.db #0x25
   2B45 25                12394 	.db #0x25
   2B46 5D                12395 	.db #0x5D
   2B47 57                12396 	.db #0x57
   2B48 57                12397 	.db #0x57
   2B49 57                12398 	.db #0x57
   2B4A 57                12399 	.db #0x57
   2B4B 57                12400 	.db #0x57
   2B4C 57                12401 	.db #0x57
   2B4D 57                12402 	.db #0x57
   2B4E 57                12403 	.db #0x57
   2B4F 57                12404 	.db #0x57
   2B50 57                12405 	.db #0x57
   2B51 5C                12406 	.db #0x5C
   2B52 25                12407 	.db #0x25
   2B53 25                12408 	.db #0x25
   2B54 25                12409 	.db #0x25
   2B55 25                12410 	.db #0x25
   2B56 25                12411 	.db #0x25
   2B57 25                12412 	.db #0x25
   2B58 25                12413 	.db #0x25
   2B59 25                12414 	.db #0x25
   2B5A 5D                12415 	.db #0x5D
   2B5B 57                12416 	.db #0x57
   2B5C 57                12417 	.db #0x57
   2B5D 57                12418 	.db #0x57
   2B5E 57                12419 	.db #0x57
   2B5F 3E                12420 	.db #0x3E
   2B60 3E                12421 	.db #0x3E
   2B61 64                12422 	.db #0x64
   2B62 65                12423 	.db #0x65
   2B63 66                12424 	.db #0x66
   2B64 67                12425 	.db #0x67
   2B65 5C                12426 	.db #0x5C
   2B66 25                12427 	.db #0x25
   2B67 25                12428 	.db #0x25
   2B68 25                12429 	.db #0x25
   2B69 25                12430 	.db #0x25
   2B6A 25                12431 	.db #0x25
   2B6B 25                12432 	.db #0x25
   2B6C 25                12433 	.db #0x25
   2B6D 25                12434 	.db #0x25
   2B6E 58                12435 	.db #0x58
   2B6F 5F                12436 	.db #0x5F
   2B70 5F                12437 	.db #0x5F
   2B71 5F                12438 	.db #0x5F
   2B72 5F                12439 	.db #0x5F
   2B73 5F                12440 	.db #0x5F
   2B74 5F                12441 	.db #0x5F
   2B75 5F                12442 	.db #0x5F
   2B76 5F                12443 	.db #0x5F
   2B77 5F                12444 	.db #0x5F
   2B78 5F                12445 	.db #0x5F
   2B79 59                12446 	.db #0x59
   2B7A 25                12447 	.db #0x25
   2B7B 25                12448 	.db #0x25
   2B7C 25                12449 	.db #0x25
   2B7D 25                12450 	.db #0x25
   2B7E 25                12451 	.db #0x25
   2B7F 25                12452 	.db #0x25
   2B80 25                12453 	.db #0x25
   2B81 25                12454 	.db #0x25
   2B82 25                12455 	.db #0x25
   2B83 25                12456 	.db #0x25
   2B84 25                12457 	.db #0x25
   2B85 25                12458 	.db #0x25
   2B86 25                12459 	.db #0x25
   2B87 25                12460 	.db #0x25
   2B88 25                12461 	.db #0x25
   2B89 25                12462 	.db #0x25
   2B8A 25                12463 	.db #0x25
   2B8B 25                12464 	.db #0x25
   2B8C 25                12465 	.db #0x25
   2B8D 25                12466 	.db #0x25
   2B8E 25                12467 	.db #0x25
   2B8F 25                12468 	.db #0x25
   2B90 25                12469 	.db #0x25
   2B91 25                12470 	.db #0x25
   2B92 18                12471 	.db #0x18
   2B93 1A                12472 	.db #0x1A
   2B94 25                12473 	.db #0x25
   2B95 25                12474 	.db #0x25
   2B96 25                12475 	.db #0x25
   2B97 25                12476 	.db #0x25
   2B98 25                12477 	.db #0x25
   2B99 25                12478 	.db #0x25
   2B9A 25                12479 	.db #0x25
   2B9B 1C                12480 	.db #0x1C
   2B9C 1E                12481 	.db #0x1E
   2B9D 25                12482 	.db #0x25
   2B9E 25                12483 	.db #0x25
   2B9F 25                12484 	.db #0x25
   2BA0 25                12485 	.db #0x25
   2BA1 25                12486 	.db #0x25
   2BA2 25                12487 	.db #0x25
   2BA3 25                12488 	.db #0x25
   2BA4 18                12489 	.db #0x18
   2BA5 1A                12490 	.db #0x1A
   2BA6 19                12491 	.db #0x19
   2BA7 1B                12492 	.db #0x1B
   2BA8 25                12493 	.db #0x25
   2BA9 25                12494 	.db #0x25
   2BAA 25                12495 	.db #0x25
   2BAB 25                12496 	.db #0x25
   2BAC 25                12497 	.db #0x25
   2BAD 25                12498 	.db #0x25
   2BAE 25                12499 	.db #0x25
   2BAF 1D                12500 	.db #0x1D
   2BB0 1F                12501 	.db #0x1F
   2BB1 25                12502 	.db #0x25
   2BB2 25                12503 	.db #0x25
   2BB3 25                12504 	.db #0x25
   2BB4 25                12505 	.db #0x25
   2BB5 25                12506 	.db #0x25
   2BB6 25                12507 	.db #0x25
   2BB7 25                12508 	.db #0x25
   2BB8 19                12509 	.db #0x19
   2BB9 1B                12510 	.db #0x1B
   2BBA 22                12511 	.db #0x22
   2BBB 22                12512 	.db #0x22
   2BBC 20                12513 	.db #0x20
   2BBD 22                12514 	.db #0x22
   2BBE 22                12515 	.db #0x22
   2BBF 22                12516 	.db #0x22
   2BC0 22                12517 	.db #0x22
   2BC1 20                12518 	.db #0x20
   2BC2 20                12519 	.db #0x20
   2BC3 20                12520 	.db #0x20
   2BC4 20                12521 	.db #0x20
   2BC5 22                12522 	.db #0x22
   2BC6 22                12523 	.db #0x22
   2BC7 22                12524 	.db #0x22
   2BC8 22                12525 	.db #0x22
   2BC9 20                12526 	.db #0x20
   2BCA 22                12527 	.db #0x22
   2BCB 22                12528 	.db #0x22
   2BCC 22                12529 	.db #0x22
   2BCD 22                12530 	.db #0x22
   2BCE 16                12531 	.db #0x16
   2BCF 16                12532 	.db #0x16
   2BD0 16                12533 	.db #0x16
   2BD1 16                12534 	.db #0x16
   2BD2 16                12535 	.db #0x16
   2BD3 16                12536 	.db #0x16
   2BD4 16                12537 	.db #0x16
   2BD5 16                12538 	.db #0x16
   2BD6 16                12539 	.db #0x16
   2BD7 16                12540 	.db #0x16
   2BD8 16                12541 	.db #0x16
   2BD9 16                12542 	.db #0x16
   2BDA 16                12543 	.db #0x16
   2BDB 16                12544 	.db #0x16
   2BDC 16                12545 	.db #0x16
   2BDD 16                12546 	.db #0x16
   2BDE 16                12547 	.db #0x16
   2BDF 16                12548 	.db #0x16
   2BE0 16                12549 	.db #0x16
   2BE1 16                12550 	.db #0x16
   2BE2                   12551 _TitleScreen:
   2BE2 25                12552 	.db #0x25
   2BE3 25                12553 	.db #0x25
   2BE4 25                12554 	.db #0x25
   2BE5 25                12555 	.db #0x25
   2BE6 25                12556 	.db #0x25
   2BE7 25                12557 	.db #0x25
   2BE8 25                12558 	.db #0x25
   2BE9 25                12559 	.db #0x25
   2BEA 25                12560 	.db #0x25
   2BEB 25                12561 	.db #0x25
   2BEC 25                12562 	.db #0x25
   2BED 25                12563 	.db #0x25
   2BEE 25                12564 	.db #0x25
   2BEF 25                12565 	.db #0x25
   2BF0 25                12566 	.db #0x25
   2BF1 25                12567 	.db #0x25
   2BF2 25                12568 	.db #0x25
   2BF3 25                12569 	.db #0x25
   2BF4 25                12570 	.db #0x25
   2BF5 25                12571 	.db #0x25
   2BF6 25                12572 	.db #0x25
   2BF7 25                12573 	.db #0x25
   2BF8 25                12574 	.db #0x25
   2BF9 25                12575 	.db #0x25
   2BFA 25                12576 	.db #0x25
   2BFB 40                12577 	.db #0x40
   2BFC 41                12578 	.db #0x41
   2BFD 42                12579 	.db #0x42
   2BFE 43                12580 	.db #0x43
   2BFF 40                12581 	.db #0x40
   2C00 44                12582 	.db #0x44
   2C01 40                12583 	.db #0x40
   2C02 45                12584 	.db #0x45
   2C03 40                12585 	.db #0x40
   2C04 46                12586 	.db #0x46
   2C05 41                12587 	.db #0x41
   2C06 25                12588 	.db #0x25
   2C07 25                12589 	.db #0x25
   2C08 25                12590 	.db #0x25
   2C09 25                12591 	.db #0x25
   2C0A 25                12592 	.db #0x25
   2C0B 25                12593 	.db #0x25
   2C0C 25                12594 	.db #0x25
   2C0D 25                12595 	.db #0x25
   2C0E 25                12596 	.db #0x25
   2C0F 25                12597 	.db #0x25
   2C10 25                12598 	.db #0x25
   2C11 25                12599 	.db #0x25
   2C12 25                12600 	.db #0x25
   2C13 25                12601 	.db #0x25
   2C14 25                12602 	.db #0x25
   2C15 25                12603 	.db #0x25
   2C16 25                12604 	.db #0x25
   2C17 25                12605 	.db #0x25
   2C18 25                12606 	.db #0x25
   2C19 25                12607 	.db #0x25
   2C1A 25                12608 	.db #0x25
   2C1B 25                12609 	.db #0x25
   2C1C 25                12610 	.db #0x25
   2C1D 25                12611 	.db #0x25
   2C1E 25                12612 	.db #0x25
   2C1F 25                12613 	.db #0x25
   2C20 25                12614 	.db #0x25
   2C21 25                12615 	.db #0x25
   2C22 25                12616 	.db #0x25
   2C23 25                12617 	.db #0x25
   2C24 25                12618 	.db #0x25
   2C25 25                12619 	.db #0x25
   2C26 25                12620 	.db #0x25
   2C27 32                12621 	.db #0x32
   2C28 34                12622 	.db #0x34
   2C29 25                12623 	.db #0x25
   2C2A 25                12624 	.db #0x25
   2C2B 25                12625 	.db #0x25
   2C2C 25                12626 	.db #0x25
   2C2D 25                12627 	.db #0x25
   2C2E 25                12628 	.db #0x25
   2C2F 25                12629 	.db #0x25
   2C30 25                12630 	.db #0x25
   2C31 25                12631 	.db #0x25
   2C32 25                12632 	.db #0x25
   2C33 25                12633 	.db #0x25
   2C34 25                12634 	.db #0x25
   2C35 25                12635 	.db #0x25
   2C36 25                12636 	.db #0x25
   2C37 25                12637 	.db #0x25
   2C38 25                12638 	.db #0x25
   2C39 25                12639 	.db #0x25
   2C3A 25                12640 	.db #0x25
   2C3B 33                12641 	.db #0x33
   2C3C 35                12642 	.db #0x35
   2C3D 25                12643 	.db #0x25
   2C3E 25                12644 	.db #0x25
   2C3F 25                12645 	.db #0x25
   2C40 25                12646 	.db #0x25
   2C41 25                12647 	.db #0x25
   2C42 25                12648 	.db #0x25
   2C43 25                12649 	.db #0x25
   2C44 25                12650 	.db #0x25
   2C45 25                12651 	.db #0x25
   2C46 25                12652 	.db #0x25
   2C47 25                12653 	.db #0x25
   2C48 25                12654 	.db #0x25
   2C49 25                12655 	.db #0x25
   2C4A 25                12656 	.db #0x25
   2C4B 25                12657 	.db #0x25
   2C4C 25                12658 	.db #0x25
   2C4D 25                12659 	.db #0x25
   2C4E 25                12660 	.db #0x25
   2C4F 25                12661 	.db #0x25
   2C50 25                12662 	.db #0x25
   2C51 25                12663 	.db #0x25
   2C52 25                12664 	.db #0x25
   2C53 25                12665 	.db #0x25
   2C54 25                12666 	.db #0x25
   2C55 25                12667 	.db #0x25
   2C56 25                12668 	.db #0x25
   2C57 25                12669 	.db #0x25
   2C58 25                12670 	.db #0x25
   2C59 25                12671 	.db #0x25
   2C5A 25                12672 	.db #0x25
   2C5B 25                12673 	.db #0x25
   2C5C 25                12674 	.db #0x25
   2C5D 25                12675 	.db #0x25
   2C5E 25                12676 	.db #0x25
   2C5F 25                12677 	.db #0x25
   2C60 25                12678 	.db #0x25
   2C61 25                12679 	.db #0x25
   2C62 25                12680 	.db #0x25
   2C63 25                12681 	.db #0x25
   2C64 25                12682 	.db #0x25
   2C65 25                12683 	.db #0x25
   2C66 25                12684 	.db #0x25
   2C67 25                12685 	.db #0x25
   2C68 25                12686 	.db #0x25
   2C69 25                12687 	.db #0x25
   2C6A 25                12688 	.db #0x25
   2C6B 25                12689 	.db #0x25
   2C6C 25                12690 	.db #0x25
   2C6D 25                12691 	.db #0x25
   2C6E 25                12692 	.db #0x25
   2C6F 25                12693 	.db #0x25
   2C70 25                12694 	.db #0x25
   2C71 25                12695 	.db #0x25
   2C72 25                12696 	.db #0x25
   2C73 25                12697 	.db #0x25
   2C74 25                12698 	.db #0x25
   2C75 25                12699 	.db #0x25
   2C76 25                12700 	.db #0x25
   2C77 25                12701 	.db #0x25
   2C78 25                12702 	.db #0x25
   2C79 25                12703 	.db #0x25
   2C7A 25                12704 	.db #0x25
   2C7B 25                12705 	.db #0x25
   2C7C 25                12706 	.db #0x25
   2C7D 25                12707 	.db #0x25
   2C7E 25                12708 	.db #0x25
   2C7F 25                12709 	.db #0x25
   2C80 25                12710 	.db #0x25
   2C81 25                12711 	.db #0x25
   2C82 25                12712 	.db #0x25
   2C83 25                12713 	.db #0x25
   2C84 25                12714 	.db #0x25
   2C85 25                12715 	.db #0x25
   2C86 25                12716 	.db #0x25
   2C87 25                12717 	.db #0x25
   2C88 25                12718 	.db #0x25
   2C89 25                12719 	.db #0x25
   2C8A 25                12720 	.db #0x25
   2C8B 25                12721 	.db #0x25
   2C8C 25                12722 	.db #0x25
   2C8D 25                12723 	.db #0x25
   2C8E 25                12724 	.db #0x25
   2C8F 25                12725 	.db #0x25
   2C90 25                12726 	.db #0x25
   2C91 25                12727 	.db #0x25
   2C92 25                12728 	.db #0x25
   2C93 25                12729 	.db #0x25
   2C94 25                12730 	.db #0x25
   2C95 25                12731 	.db #0x25
   2C96 25                12732 	.db #0x25
   2C97 25                12733 	.db #0x25
   2C98 25                12734 	.db #0x25
   2C99 25                12735 	.db #0x25
   2C9A 25                12736 	.db #0x25
   2C9B 25                12737 	.db #0x25
   2C9C 25                12738 	.db #0x25
   2C9D 25                12739 	.db #0x25
   2C9E 25                12740 	.db #0x25
   2C9F 25                12741 	.db #0x25
   2CA0 25                12742 	.db #0x25
   2CA1 25                12743 	.db #0x25
   2CA2 25                12744 	.db #0x25
   2CA3 25                12745 	.db #0x25
   2CA4 25                12746 	.db #0x25
   2CA5 25                12747 	.db #0x25
   2CA6 25                12748 	.db #0x25
   2CA7 25                12749 	.db #0x25
   2CA8 25                12750 	.db #0x25
   2CA9 25                12751 	.db #0x25
   2CAA 25                12752 	.db #0x25
   2CAB 25                12753 	.db #0x25
   2CAC 25                12754 	.db #0x25
   2CAD 25                12755 	.db #0x25
   2CAE 25                12756 	.db #0x25
   2CAF 25                12757 	.db #0x25
   2CB0 25                12758 	.db #0x25
   2CB1 47                12759 	.db #0x47
   2CB2 48                12760 	.db #0x48
   2CB3 49                12761 	.db #0x49
   2CB4 4A                12762 	.db #0x4A
   2CB5 4B                12763 	.db #0x4B
   2CB6 4C                12764 	.db #0x4C
   2CB7 25                12765 	.db #0x25
   2CB8 25                12766 	.db #0x25
   2CB9 25                12767 	.db #0x25
   2CBA 25                12768 	.db #0x25
   2CBB 25                12769 	.db #0x25
   2CBC 25                12770 	.db #0x25
   2CBD 25                12771 	.db #0x25
   2CBE 25                12772 	.db #0x25
   2CBF 25                12773 	.db #0x25
   2CC0 25                12774 	.db #0x25
   2CC1 25                12775 	.db #0x25
   2CC2 25                12776 	.db #0x25
   2CC3 25                12777 	.db #0x25
   2CC4 25                12778 	.db #0x25
   2CC5 25                12779 	.db #0x25
   2CC6 25                12780 	.db #0x25
   2CC7 25                12781 	.db #0x25
   2CC8 25                12782 	.db #0x25
   2CC9 25                12783 	.db #0x25
   2CCA 25                12784 	.db #0x25
   2CCB 25                12785 	.db #0x25
   2CCC 25                12786 	.db #0x25
   2CCD 25                12787 	.db #0x25
   2CCE 25                12788 	.db #0x25
   2CCF 25                12789 	.db #0x25
   2CD0 25                12790 	.db #0x25
   2CD1 25                12791 	.db #0x25
   2CD2 18                12792 	.db #0x18
   2CD3 1A                12793 	.db #0x1A
   2CD4 25                12794 	.db #0x25
   2CD5 18                12795 	.db #0x18
   2CD6 1A                12796 	.db #0x1A
   2CD7 25                12797 	.db #0x25
   2CD8 25                12798 	.db #0x25
   2CD9 25                12799 	.db #0x25
   2CDA 25                12800 	.db #0x25
   2CDB 1C                12801 	.db #0x1C
   2CDC 1E                12802 	.db #0x1E
   2CDD 25                12803 	.db #0x25
   2CDE 25                12804 	.db #0x25
   2CDF 25                12805 	.db #0x25
   2CE0 25                12806 	.db #0x25
   2CE1 18                12807 	.db #0x18
   2CE2 1A                12808 	.db #0x1A
   2CE3 25                12809 	.db #0x25
   2CE4 18                12810 	.db #0x18
   2CE5 1A                12811 	.db #0x1A
   2CE6 19                12812 	.db #0x19
   2CE7 1B                12813 	.db #0x1B
   2CE8 25                12814 	.db #0x25
   2CE9 19                12815 	.db #0x19
   2CEA 1B                12816 	.db #0x1B
   2CEB 25                12817 	.db #0x25
   2CEC 25                12818 	.db #0x25
   2CED 25                12819 	.db #0x25
   2CEE 25                12820 	.db #0x25
   2CEF 1D                12821 	.db #0x1D
   2CF0 1F                12822 	.db #0x1F
   2CF1 25                12823 	.db #0x25
   2CF2 25                12824 	.db #0x25
   2CF3 25                12825 	.db #0x25
   2CF4 25                12826 	.db #0x25
   2CF5 19                12827 	.db #0x19
   2CF6 1B                12828 	.db #0x1B
   2CF7 25                12829 	.db #0x25
   2CF8 19                12830 	.db #0x19
   2CF9 1B                12831 	.db #0x1B
   2CFA 24                12832 	.db #0x24
   2CFB 24                12833 	.db #0x24
   2CFC 24                12834 	.db #0x24
   2CFD 24                12835 	.db #0x24
   2CFE 24                12836 	.db #0x24
   2CFF 24                12837 	.db #0x24
   2D00 24                12838 	.db #0x24
   2D01 24                12839 	.db #0x24
   2D02 24                12840 	.db #0x24
   2D03 24                12841 	.db #0x24
   2D04 24                12842 	.db #0x24
   2D05 24                12843 	.db #0x24
   2D06 24                12844 	.db #0x24
   2D07 24                12845 	.db #0x24
   2D08 24                12846 	.db #0x24
   2D09 24                12847 	.db #0x24
   2D0A 24                12848 	.db #0x24
   2D0B 24                12849 	.db #0x24
   2D0C 24                12850 	.db #0x24
   2D0D 24                12851 	.db #0x24
   2D0E 22                12852 	.db #0x22
   2D0F 20                12853 	.db #0x20
   2D10 22                12854 	.db #0x22
   2D11 20                12855 	.db #0x20
   2D12 22                12856 	.db #0x22
   2D13 20                12857 	.db #0x20
   2D14 22                12858 	.db #0x22
   2D15 20                12859 	.db #0x20
   2D16 22                12860 	.db #0x22
   2D17 20                12861 	.db #0x20
   2D18 22                12862 	.db #0x22
   2D19 20                12863 	.db #0x20
   2D1A 22                12864 	.db #0x22
   2D1B 20                12865 	.db #0x20
   2D1C 22                12866 	.db #0x22
   2D1D 20                12867 	.db #0x20
   2D1E 22                12868 	.db #0x22
   2D1F 20                12869 	.db #0x20
   2D20 22                12870 	.db #0x22
   2D21 20                12871 	.db #0x20
   2D22 23                12872 	.db #0x23
   2D23 23                12873 	.db #0x23
   2D24 23                12874 	.db #0x23
   2D25 23                12875 	.db #0x23
   2D26 23                12876 	.db #0x23
   2D27 23                12877 	.db #0x23
   2D28 23                12878 	.db #0x23
   2D29 23                12879 	.db #0x23
   2D2A 23                12880 	.db #0x23
   2D2B 23                12881 	.db #0x23
   2D2C 23                12882 	.db #0x23
   2D2D 23                12883 	.db #0x23
   2D2E 23                12884 	.db #0x23
   2D2F 23                12885 	.db #0x23
   2D30 23                12886 	.db #0x23
   2D31 23                12887 	.db #0x23
   2D32 23                12888 	.db #0x23
   2D33 23                12889 	.db #0x23
   2D34 23                12890 	.db #0x23
   2D35 23                12891 	.db #0x23
   2D36 23                12892 	.db #0x23
   2D37 23                12893 	.db #0x23
   2D38 23                12894 	.db #0x23
   2D39 23                12895 	.db #0x23
   2D3A 23                12896 	.db #0x23
   2D3B 0C                12897 	.db #0x0C
   2D3C 23                12898 	.db #0x23
   2D3D 23                12899 	.db #0x23
   2D3E 23                12900 	.db #0x23
   2D3F 23                12901 	.db #0x23
   2D40 0C                12902 	.db #0x0C
   2D41 23                12903 	.db #0x23
   2D42 23                12904 	.db #0x23
   2D43 23                12905 	.db #0x23
   2D44 0C                12906 	.db #0x0C
   2D45 23                12907 	.db #0x23
   2D46 23                12908 	.db #0x23
   2D47 23                12909 	.db #0x23
   2D48 00                12910 	.db #0x00
   2D49 02                12911 	.db #0x02
   2D4A 23                12912 	.db #0x23
   2D4B 23                12913 	.db #0x23
   2D4C 23                12914 	.db #0x23
   2D4D 23                12915 	.db #0x23
   2D4E 0C                12916 	.db #0x0C
   2D4F 0C                12917 	.db #0x0C
   2D50 23                12918 	.db #0x23
   2D51 23                12919 	.db #0x23
   2D52 23                12920 	.db #0x23
   2D53 23                12921 	.db #0x23
   2D54 23                12922 	.db #0x23
   2D55 16                12923 	.db #0x16
   2D56 23                12924 	.db #0x23
   2D57 0C                12925 	.db #0x0C
   2D58 0C                12926 	.db #0x0C
   2D59 23                12927 	.db #0x23
   2D5A 23                12928 	.db #0x23
   2D5B 23                12929 	.db #0x23
   2D5C 01                12930 	.db #0x01
   2D5D 03                12931 	.db #0x03
   2D5E                   12932 _JUDGEIDLE:
   2D5E 00                12933 	.db #0x00
   2D5F 00                12934 	.db #0x00
   2D60 00                12935 	.db #0x00
   2D61 00                12936 	.db #0x00
   2D62 00                12937 	.db #0x00
   2D63 00                12938 	.db #0x00
   2D64 00                12939 	.db #0x00
   2D65 00                12940 	.db #0x00
   2D66 00                12941 	.db #0x00
   2D67 00                12942 	.db #0x00
   2D68 00                12943 	.db #0x00
   2D69 00                12944 	.db #0x00
   2D6A 00                12945 	.db #0x00
   2D6B 00                12946 	.db #0x00
   2D6C 00                12947 	.db #0x00
   2D6D 00                12948 	.db #0x00
   2D6E 00                12949 	.db #0x00
   2D6F 00                12950 	.db #0x00
   2D70 00                12951 	.db #0x00
   2D71 00                12952 	.db #0x00
   2D72 00                12953 	.db #0x00
   2D73 00                12954 	.db #0x00
   2D74 00                12955 	.db #0x00
   2D75 00                12956 	.db #0x00
   2D76 00                12957 	.db #0x00
   2D77 00                12958 	.db #0x00
   2D78 00                12959 	.db #0x00
   2D79 00                12960 	.db #0x00
   2D7A 00                12961 	.db #0x00
   2D7B 00                12962 	.db #0x00
   2D7C 00                12963 	.db #0x00
   2D7D 00                12964 	.db #0x00
   2D7E 00                12965 	.db #0x00
   2D7F 00                12966 	.db #0x00
   2D80 00                12967 	.db #0x00
   2D81 00                12968 	.db #0x00
   2D82 00                12969 	.db #0x00
   2D83 00                12970 	.db #0x00
   2D84 00                12971 	.db #0x00
   2D85 00                12972 	.db #0x00
   2D86 00                12973 	.db #0x00
   2D87 00                12974 	.db #0x00
   2D88 00                12975 	.db #0x00
   2D89 00                12976 	.db #0x00
   2D8A 00                12977 	.db #0x00
   2D8B 00                12978 	.db #0x00
   2D8C 00                12979 	.db #0x00
   2D8D 00                12980 	.db #0x00
   2D8E 00                12981 	.db #0x00
   2D8F 00                12982 	.db #0x00
   2D90 00                12983 	.db #0x00
   2D91 00                12984 	.db #0x00
   2D92 00                12985 	.db #0x00
   2D93 00                12986 	.db #0x00
   2D94 00                12987 	.db #0x00
   2D95 00                12988 	.db #0x00
   2D96 00                12989 	.db #0x00
   2D97 00                12990 	.db #0x00
   2D98 00                12991 	.db #0x00
   2D99 00                12992 	.db #0x00
   2D9A 00                12993 	.db #0x00
   2D9B 00                12994 	.db #0x00
   2D9C 3F                12995 	.db #0x3F
   2D9D 3F                12996 	.db #0x3F
   2D9E 00                12997 	.db #0x00
   2D9F 00                12998 	.db #0x00
   2DA0 00                12999 	.db #0x00
   2DA1 00                13000 	.db #0x00
   2DA2 00                13001 	.db #0x00
   2DA3 00                13002 	.db #0x00
   2DA4 00                13003 	.db #0x00
   2DA5 00                13004 	.db #0x00
   2DA6 00                13005 	.db #0x00
   2DA7 00                13006 	.db #0x00
   2DA8 00                13007 	.db #0x00
   2DA9 00                13008 	.db #0x00
   2DAA 00                13009 	.db #0x00
   2DAB 78                13010 	.db #0x78
   2DAC 78                13011 	.db #0x78
   2DAD 78                13012 	.db #0x78
   2DAE 79                13013 	.db #0x79
   2DAF 79                13014 	.db #0x79
   2DB0 7F                13015 	.db #0x7F
   2DB1 79                13016 	.db #0x79
   2DB2 79                13017 	.db #0x79
   2DB3 79                13018 	.db #0x79
   2DB4 78                13019 	.db #0x78
   2DB5 78                13020 	.db #0x78
   2DB6 00                13021 	.db #0x00
   2DB7 78                13022 	.db #0x78
   2DB8 00                13023 	.db #0x00
   2DB9 00                13024 	.db #0x00
   2DBA 00                13025 	.db #0x00
   2DBB 00                13026 	.db #0x00
   2DBC 00                13027 	.db #0x00
   2DBD 00                13028 	.db #0x00
   2DBE 7F                13029 	.db #0x7F
   2DBF 41                13030 	.db #0x41
   2DC0 7F                13031 	.db #0x7F
   2DC1 4F                13032 	.db #0x4F
   2DC2 70                13033 	.db #0x70
   2DC3 5F                13034 	.db #0x5F
   2DC4 71                13035 	.db #0x71
   2DC5 5F                13036 	.db #0x5F
   2DC6 70                13037 	.db #0x70
   2DC7 5F                13038 	.db #0x5F
   2DC8 70                13039 	.db #0x70
   2DC9 5F                13040 	.db #0x5F
   2DCA 7F                13041 	.db #0x7F
   2DCB 7F                13042 	.db #0x7F
   2DCC 18                13043 	.db #0x18
   2DCD 1F                13044 	.db #0x1F
   2DCE D0                13045 	.db #0xD0
   2DCF DF                13046 	.db #0xDF
   2DD0 FF                13047 	.db #0xFF
   2DD1 C0                13048 	.db #0xC0
   2DD2 CF                13049 	.db #0xCF
   2DD3 CF                13050 	.db #0xCF
   2DD4 18                13051 	.db #0x18
   2DD5 1F                13052 	.db #0x1F
   2DD6 13                13053 	.db #0x13
   2DD7 1F                13054 	.db #0x1F
   2DD8 7C                13055 	.db #0x7C
   2DD9 7C                13056 	.db #0x7C
   2DDA 44                13057 	.db #0x44
   2DDB 7C                13058 	.db #0x7C
   2DDC 7C                13059 	.db #0x7C
   2DDD 7C                13060 	.db #0x7C
   2DDE 00                13061 	.db #0x00
   2DDF 00                13062 	.db #0x00
   2DE0 00                13063 	.db #0x00
   2DE1 00                13064 	.db #0x00
   2DE2 00                13065 	.db #0x00
   2DE3 00                13066 	.db #0x00
   2DE4 00                13067 	.db #0x00
   2DE5 00                13068 	.db #0x00
   2DE6 00                13069 	.db #0x00
   2DE7 00                13070 	.db #0x00
   2DE8 00                13071 	.db #0x00
   2DE9 00                13072 	.db #0x00
   2DEA 00                13073 	.db #0x00
   2DEB 00                13074 	.db #0x00
   2DEC 00                13075 	.db #0x00
   2DED 00                13076 	.db #0x00
   2DEE 00                13077 	.db #0x00
   2DEF 00                13078 	.db #0x00
   2DF0 00                13079 	.db #0x00
   2DF1 00                13080 	.db #0x00
   2DF2 00                13081 	.db #0x00
   2DF3 00                13082 	.db #0x00
   2DF4 00                13083 	.db #0x00
   2DF5 00                13084 	.db #0x00
   2DF6 00                13085 	.db #0x00
   2DF7 00                13086 	.db #0x00
   2DF8 00                13087 	.db #0x00
   2DF9 00                13088 	.db #0x00
   2DFA 00                13089 	.db #0x00
   2DFB 00                13090 	.db #0x00
   2DFC 00                13091 	.db #0x00
   2DFD 00                13092 	.db #0x00
   2DFE 00                13093 	.db #0x00
   2DFF 00                13094 	.db #0x00
   2E00 00                13095 	.db #0x00
   2E01 00                13096 	.db #0x00
   2E02 00                13097 	.db #0x00
   2E03 00                13098 	.db #0x00
   2E04 00                13099 	.db #0x00
   2E05 00                13100 	.db #0x00
   2E06 00                13101 	.db #0x00
   2E07 00                13102 	.db #0x00
   2E08 00                13103 	.db #0x00
   2E09 00                13104 	.db #0x00
   2E0A 00                13105 	.db #0x00
   2E0B 00                13106 	.db #0x00
   2E0C 00                13107 	.db #0x00
   2E0D 00                13108 	.db #0x00
   2E0E 00                13109 	.db #0x00
   2E0F 00                13110 	.db #0x00
   2E10 00                13111 	.db #0x00
   2E11 00                13112 	.db #0x00
   2E12 00                13113 	.db #0x00
   2E13 00                13114 	.db #0x00
   2E14 00                13115 	.db #0x00
   2E15 00                13116 	.db #0x00
   2E16 00                13117 	.db #0x00
   2E17 00                13118 	.db #0x00
   2E18 00                13119 	.db #0x00
   2E19 00                13120 	.db #0x00
   2E1A 00                13121 	.db #0x00
   2E1B 00                13122 	.db #0x00
   2E1C 00                13123 	.db #0x00
   2E1D 00                13124 	.db #0x00
   2E1E 00                13125 	.db #0x00
   2E1F 00                13126 	.db #0x00
   2E20 C0                13127 	.db #0xC0
   2E21 C0                13128 	.db #0xC0
   2E22 A0                13129 	.db #0xA0
   2E23 E0                13130 	.db #0xE0
   2E24 E0                13131 	.db #0xE0
   2E25 E0                13132 	.db #0xE0
   2E26 A0                13133 	.db #0xA0
   2E27 E0                13134 	.db #0xE0
   2E28 A0                13135 	.db #0xA0
   2E29 E0                13136 	.db #0xE0
   2E2A E0                13137 	.db #0xE0
   2E2B E0                13138 	.db #0xE0
   2E2C 60                13139 	.db #0x60
   2E2D E0                13140 	.db #0xE0
   2E2E 2E                13141 	.db #0x2E
   2E2F EE                13142 	.db #0xEE
   2E30 FE                13143 	.db #0xFE
   2E31 0E                13144 	.db #0x0E
   2E32 CE                13145 	.db #0xCE
   2E33 CE                13146 	.db #0xCE
   2E34 60                13147 	.db #0x60
   2E35 E0                13148 	.db #0xE0
   2E36 20                13149 	.db #0x20
   2E37 E0                13150 	.db #0xE0
   2E38 F0                13151 	.db #0xF0
   2E39 F0                13152 	.db #0xF0
   2E3A 88                13153 	.db #0x88
   2E3B F8                13154 	.db #0xF8
   2E3C F8                13155 	.db #0xF8
   2E3D F8                13156 	.db #0xF8
   2E3E 00                13157 	.db #0x00
   2E3F 00                13158 	.db #0x00
   2E40 00                13159 	.db #0x00
   2E41 00                13160 	.db #0x00
   2E42 00                13161 	.db #0x00
   2E43 00                13162 	.db #0x00
   2E44 00                13163 	.db #0x00
   2E45 00                13164 	.db #0x00
   2E46 00                13165 	.db #0x00
   2E47 00                13166 	.db #0x00
   2E48 00                13167 	.db #0x00
   2E49 00                13168 	.db #0x00
   2E4A 00                13169 	.db #0x00
   2E4B 00                13170 	.db #0x00
   2E4C 00                13171 	.db #0x00
   2E4D 00                13172 	.db #0x00
   2E4E 00                13173 	.db #0x00
   2E4F 00                13174 	.db #0x00
   2E50 00                13175 	.db #0x00
   2E51 00                13176 	.db #0x00
   2E52 00                13177 	.db #0x00
   2E53 00                13178 	.db #0x00
   2E54 00                13179 	.db #0x00
   2E55 00                13180 	.db #0x00
   2E56 00                13181 	.db #0x00
   2E57 00                13182 	.db #0x00
   2E58 00                13183 	.db #0x00
   2E59 00                13184 	.db #0x00
   2E5A 00                13185 	.db #0x00
   2E5B 00                13186 	.db #0x00
   2E5C 00                13187 	.db #0x00
   2E5D 00                13188 	.db #0x00
   2E5E                   13189 _JUDGEWALK1:
   2E5E 00                13190 	.db #0x00
   2E5F 00                13191 	.db #0x00
   2E60 00                13192 	.db #0x00
   2E61 00                13193 	.db #0x00
   2E62 00                13194 	.db #0x00
   2E63 00                13195 	.db #0x00
   2E64 00                13196 	.db #0x00
   2E65 00                13197 	.db #0x00
   2E66 00                13198 	.db #0x00
   2E67 00                13199 	.db #0x00
   2E68 00                13200 	.db #0x00
   2E69 00                13201 	.db #0x00
   2E6A 00                13202 	.db #0x00
   2E6B 00                13203 	.db #0x00
   2E6C 00                13204 	.db #0x00
   2E6D 00                13205 	.db #0x00
   2E6E 00                13206 	.db #0x00
   2E6F 00                13207 	.db #0x00
   2E70 00                13208 	.db #0x00
   2E71 00                13209 	.db #0x00
   2E72 00                13210 	.db #0x00
   2E73 00                13211 	.db #0x00
   2E74 00                13212 	.db #0x00
   2E75 00                13213 	.db #0x00
   2E76 00                13214 	.db #0x00
   2E77 00                13215 	.db #0x00
   2E78 00                13216 	.db #0x00
   2E79 00                13217 	.db #0x00
   2E7A 00                13218 	.db #0x00
   2E7B 00                13219 	.db #0x00
   2E7C 00                13220 	.db #0x00
   2E7D 00                13221 	.db #0x00
   2E7E 00                13222 	.db #0x00
   2E7F 00                13223 	.db #0x00
   2E80 00                13224 	.db #0x00
   2E81 00                13225 	.db #0x00
   2E82 00                13226 	.db #0x00
   2E83 00                13227 	.db #0x00
   2E84 00                13228 	.db #0x00
   2E85 00                13229 	.db #0x00
   2E86 00                13230 	.db #0x00
   2E87 00                13231 	.db #0x00
   2E88 00                13232 	.db #0x00
   2E89 00                13233 	.db #0x00
   2E8A 00                13234 	.db #0x00
   2E8B 00                13235 	.db #0x00
   2E8C 00                13236 	.db #0x00
   2E8D 00                13237 	.db #0x00
   2E8E 00                13238 	.db #0x00
   2E8F 00                13239 	.db #0x00
   2E90 00                13240 	.db #0x00
   2E91 00                13241 	.db #0x00
   2E92 00                13242 	.db #0x00
   2E93 00                13243 	.db #0x00
   2E94 00                13244 	.db #0x00
   2E95 00                13245 	.db #0x00
   2E96 00                13246 	.db #0x00
   2E97 00                13247 	.db #0x00
   2E98 00                13248 	.db #0x00
   2E99 00                13249 	.db #0x00
   2E9A 00                13250 	.db #0x00
   2E9B 00                13251 	.db #0x00
   2E9C 1F                13252 	.db #0x1F
   2E9D 1F                13253 	.db #0x1F
   2E9E 00                13254 	.db #0x00
   2E9F 00                13255 	.db #0x00
   2EA0 00                13256 	.db #0x00
   2EA1 00                13257 	.db #0x00
   2EA2 00                13258 	.db #0x00
   2EA3 00                13259 	.db #0x00
   2EA4 00                13260 	.db #0x00
   2EA5 00                13261 	.db #0x00
   2EA6 00                13262 	.db #0x00
   2EA7 00                13263 	.db #0x00
   2EA8 00                13264 	.db #0x00
   2EA9 00                13265 	.db #0x00
   2EAA 00                13266 	.db #0x00
   2EAB F0                13267 	.db #0xF0
   2EAC F0                13268 	.db #0xF0
   2EAD F0                13269 	.db #0xF0
   2EAE F3                13270 	.db #0xF3
   2EAF F3                13271 	.db #0xF3
   2EB0 FF                13272 	.db #0xFF
   2EB1 F3                13273 	.db #0xF3
   2EB2 F3                13274 	.db #0xF3
   2EB3 F3                13275 	.db #0xF3
   2EB4 F0                13276 	.db #0xF0
   2EB5 F0                13277 	.db #0xF0
   2EB6 00                13278 	.db #0x00
   2EB7 F0                13279 	.db #0xF0
   2EB8 00                13280 	.db #0x00
   2EB9 00                13281 	.db #0x00
   2EBA 00                13282 	.db #0x00
   2EBB 00                13283 	.db #0x00
   2EBC 00                13284 	.db #0x00
   2EBD 00                13285 	.db #0x00
   2EBE 3F                13286 	.db #0x3F
   2EBF 20                13287 	.db #0x20
   2EC0 3F                13288 	.db #0x3F
   2EC1 27                13289 	.db #0x27
   2EC2 38                13290 	.db #0x38
   2EC3 2F                13291 	.db #0x2F
   2EC4 38                13292 	.db #0x38
   2EC5 2F                13293 	.db #0x2F
   2EC6 38                13294 	.db #0x38
   2EC7 2F                13295 	.db #0x2F
   2EC8 38                13296 	.db #0x38
   2EC9 2F                13297 	.db #0x2F
   2ECA 3F                13298 	.db #0x3F
   2ECB 3F                13299 	.db #0x3F
   2ECC 18                13300 	.db #0x18
   2ECD 1F                13301 	.db #0x1F
   2ECE 90                13302 	.db #0x90
   2ECF 9F                13303 	.db #0x9F
   2ED0 FF                13304 	.db #0xFF
   2ED1 80                13305 	.db #0x80
   2ED2 8F                13306 	.db #0x8F
   2ED3 8F                13307 	.db #0x8F
   2ED4 18                13308 	.db #0x18
   2ED5 1F                13309 	.db #0x1F
   2ED6 13                13310 	.db #0x13
   2ED7 1F                13311 	.db #0x1F
   2ED8 7C                13312 	.db #0x7C
   2ED9 7C                13313 	.db #0x7C
   2EDA 44                13314 	.db #0x44
   2EDB 7C                13315 	.db #0x7C
   2EDC 7C                13316 	.db #0x7C
   2EDD 7C                13317 	.db #0x7C
   2EDE 00                13318 	.db #0x00
   2EDF 00                13319 	.db #0x00
   2EE0 00                13320 	.db #0x00
   2EE1 00                13321 	.db #0x00
   2EE2 00                13322 	.db #0x00
   2EE3 00                13323 	.db #0x00
   2EE4 00                13324 	.db #0x00
   2EE5 00                13325 	.db #0x00
   2EE6 00                13326 	.db #0x00
   2EE7 00                13327 	.db #0x00
   2EE8 00                13328 	.db #0x00
   2EE9 00                13329 	.db #0x00
   2EEA 00                13330 	.db #0x00
   2EEB 00                13331 	.db #0x00
   2EEC 00                13332 	.db #0x00
   2EED 00                13333 	.db #0x00
   2EEE 00                13334 	.db #0x00
   2EEF 00                13335 	.db #0x00
   2EF0 00                13336 	.db #0x00
   2EF1 00                13337 	.db #0x00
   2EF2 00                13338 	.db #0x00
   2EF3 00                13339 	.db #0x00
   2EF4 00                13340 	.db #0x00
   2EF5 00                13341 	.db #0x00
   2EF6 00                13342 	.db #0x00
   2EF7 00                13343 	.db #0x00
   2EF8 00                13344 	.db #0x00
   2EF9 00                13345 	.db #0x00
   2EFA 00                13346 	.db #0x00
   2EFB 00                13347 	.db #0x00
   2EFC 80                13348 	.db #0x80
   2EFD 80                13349 	.db #0x80
   2EFE 00                13350 	.db #0x00
   2EFF 00                13351 	.db #0x00
   2F00 00                13352 	.db #0x00
   2F01 00                13353 	.db #0x00
   2F02 00                13354 	.db #0x00
   2F03 00                13355 	.db #0x00
   2F04 00                13356 	.db #0x00
   2F05 00                13357 	.db #0x00
   2F06 00                13358 	.db #0x00
   2F07 00                13359 	.db #0x00
   2F08 00                13360 	.db #0x00
   2F09 00                13361 	.db #0x00
   2F0A 00                13362 	.db #0x00
   2F0B 00                13363 	.db #0x00
   2F0C 00                13364 	.db #0x00
   2F0D 00                13365 	.db #0x00
   2F0E 00                13366 	.db #0x00
   2F0F 00                13367 	.db #0x00
   2F10 00                13368 	.db #0x00
   2F11 00                13369 	.db #0x00
   2F12 00                13370 	.db #0x00
   2F13 00                13371 	.db #0x00
   2F14 00                13372 	.db #0x00
   2F15 00                13373 	.db #0x00
   2F16 00                13374 	.db #0x00
   2F17 00                13375 	.db #0x00
   2F18 00                13376 	.db #0x00
   2F19 00                13377 	.db #0x00
   2F1A 00                13378 	.db #0x00
   2F1B 00                13379 	.db #0x00
   2F1C 00                13380 	.db #0x00
   2F1D 00                13381 	.db #0x00
   2F1E 80                13382 	.db #0x80
   2F1F 80                13383 	.db #0x80
   2F20 E0                13384 	.db #0xE0
   2F21 E0                13385 	.db #0xE0
   2F22 50                13386 	.db #0x50
   2F23 F0                13387 	.db #0xF0
   2F24 F0                13388 	.db #0xF0
   2F25 F0                13389 	.db #0xF0
   2F26 50                13390 	.db #0x50
   2F27 F0                13391 	.db #0xF0
   2F28 50                13392 	.db #0x50
   2F29 F0                13393 	.db #0xF0
   2F2A F0                13394 	.db #0xF0
   2F2B F0                13395 	.db #0xF0
   2F2C 60                13396 	.db #0x60
   2F2D E0                13397 	.db #0xE0
   2F2E 3C                13398 	.db #0x3C
   2F2F FC                13399 	.db #0xFC
   2F30 FC                13400 	.db #0xFC
   2F31 1C                13401 	.db #0x1C
   2F32 DC                13402 	.db #0xDC
   2F33 DC                13403 	.db #0xDC
   2F34 60                13404 	.db #0x60
   2F35 E0                13405 	.db #0xE0
   2F36 2C                13406 	.db #0x2C
   2F37 EC                13407 	.db #0xEC
   2F38 F4                13408 	.db #0xF4
   2F39 FC                13409 	.db #0xFC
   2F3A 28                13410 	.db #0x28
   2F3B 38                13411 	.db #0x38
   2F3C 10                13412 	.db #0x10
   2F3D 10                13413 	.db #0x10
   2F3E 00                13414 	.db #0x00
   2F3F 00                13415 	.db #0x00
   2F40 00                13416 	.db #0x00
   2F41 00                13417 	.db #0x00
   2F42 00                13418 	.db #0x00
   2F43 00                13419 	.db #0x00
   2F44 00                13420 	.db #0x00
   2F45 00                13421 	.db #0x00
   2F46 00                13422 	.db #0x00
   2F47 00                13423 	.db #0x00
   2F48 00                13424 	.db #0x00
   2F49 00                13425 	.db #0x00
   2F4A 00                13426 	.db #0x00
   2F4B 00                13427 	.db #0x00
   2F4C 00                13428 	.db #0x00
   2F4D 00                13429 	.db #0x00
   2F4E 00                13430 	.db #0x00
   2F4F 00                13431 	.db #0x00
   2F50 00                13432 	.db #0x00
   2F51 00                13433 	.db #0x00
   2F52 00                13434 	.db #0x00
   2F53 00                13435 	.db #0x00
   2F54 00                13436 	.db #0x00
   2F55 00                13437 	.db #0x00
   2F56 00                13438 	.db #0x00
   2F57 00                13439 	.db #0x00
   2F58 00                13440 	.db #0x00
   2F59 00                13441 	.db #0x00
   2F5A 00                13442 	.db #0x00
   2F5B 00                13443 	.db #0x00
   2F5C 00                13444 	.db #0x00
   2F5D 00                13445 	.db #0x00
   2F5E                   13446 _JUDGEWALK2:
   2F5E 00                13447 	.db #0x00
   2F5F 00                13448 	.db #0x00
   2F60 00                13449 	.db #0x00
   2F61 00                13450 	.db #0x00
   2F62 00                13451 	.db #0x00
   2F63 00                13452 	.db #0x00
   2F64 00                13453 	.db #0x00
   2F65 00                13454 	.db #0x00
   2F66 00                13455 	.db #0x00
   2F67 00                13456 	.db #0x00
   2F68 00                13457 	.db #0x00
   2F69 00                13458 	.db #0x00
   2F6A 00                13459 	.db #0x00
   2F6B 00                13460 	.db #0x00
   2F6C 00                13461 	.db #0x00
   2F6D 00                13462 	.db #0x00
   2F6E 00                13463 	.db #0x00
   2F6F 00                13464 	.db #0x00
   2F70 00                13465 	.db #0x00
   2F71 00                13466 	.db #0x00
   2F72 00                13467 	.db #0x00
   2F73 00                13468 	.db #0x00
   2F74 00                13469 	.db #0x00
   2F75 00                13470 	.db #0x00
   2F76 00                13471 	.db #0x00
   2F77 00                13472 	.db #0x00
   2F78 00                13473 	.db #0x00
   2F79 00                13474 	.db #0x00
   2F7A 00                13475 	.db #0x00
   2F7B 00                13476 	.db #0x00
   2F7C 00                13477 	.db #0x00
   2F7D 00                13478 	.db #0x00
   2F7E 00                13479 	.db #0x00
   2F7F 00                13480 	.db #0x00
   2F80 00                13481 	.db #0x00
   2F81 00                13482 	.db #0x00
   2F82 00                13483 	.db #0x00
   2F83 00                13484 	.db #0x00
   2F84 00                13485 	.db #0x00
   2F85 00                13486 	.db #0x00
   2F86 00                13487 	.db #0x00
   2F87 00                13488 	.db #0x00
   2F88 00                13489 	.db #0x00
   2F89 00                13490 	.db #0x00
   2F8A 00                13491 	.db #0x00
   2F8B 00                13492 	.db #0x00
   2F8C 00                13493 	.db #0x00
   2F8D 00                13494 	.db #0x00
   2F8E 00                13495 	.db #0x00
   2F8F 00                13496 	.db #0x00
   2F90 00                13497 	.db #0x00
   2F91 00                13498 	.db #0x00
   2F92 00                13499 	.db #0x00
   2F93 00                13500 	.db #0x00
   2F94 00                13501 	.db #0x00
   2F95 00                13502 	.db #0x00
   2F96 00                13503 	.db #0x00
   2F97 00                13504 	.db #0x00
   2F98 00                13505 	.db #0x00
   2F99 00                13506 	.db #0x00
   2F9A 00                13507 	.db #0x00
   2F9B 00                13508 	.db #0x00
   2F9C 1F                13509 	.db #0x1F
   2F9D 1F                13510 	.db #0x1F
   2F9E 00                13511 	.db #0x00
   2F9F 00                13512 	.db #0x00
   2FA0 00                13513 	.db #0x00
   2FA1 00                13514 	.db #0x00
   2FA2 00                13515 	.db #0x00
   2FA3 00                13516 	.db #0x00
   2FA4 00                13517 	.db #0x00
   2FA5 00                13518 	.db #0x00
   2FA6 00                13519 	.db #0x00
   2FA7 00                13520 	.db #0x00
   2FA8 00                13521 	.db #0x00
   2FA9 00                13522 	.db #0x00
   2FAA 00                13523 	.db #0x00
   2FAB F0                13524 	.db #0xF0
   2FAC F0                13525 	.db #0xF0
   2FAD F0                13526 	.db #0xF0
   2FAE F3                13527 	.db #0xF3
   2FAF F3                13528 	.db #0xF3
   2FB0 FF                13529 	.db #0xFF
   2FB1 F3                13530 	.db #0xF3
   2FB2 F3                13531 	.db #0xF3
   2FB3 F3                13532 	.db #0xF3
   2FB4 F0                13533 	.db #0xF0
   2FB5 F0                13534 	.db #0xF0
   2FB6 00                13535 	.db #0x00
   2FB7 F0                13536 	.db #0xF0
   2FB8 00                13537 	.db #0x00
   2FB9 00                13538 	.db #0x00
   2FBA 00                13539 	.db #0x00
   2FBB 00                13540 	.db #0x00
   2FBC 00                13541 	.db #0x00
   2FBD 00                13542 	.db #0x00
   2FBE 3F                13543 	.db #0x3F
   2FBF 20                13544 	.db #0x20
   2FC0 3F                13545 	.db #0x3F
   2FC1 27                13546 	.db #0x27
   2FC2 38                13547 	.db #0x38
   2FC3 2F                13548 	.db #0x2F
   2FC4 38                13549 	.db #0x38
   2FC5 2F                13550 	.db #0x2F
   2FC6 38                13551 	.db #0x38
   2FC7 2F                13552 	.db #0x2F
   2FC8 38                13553 	.db #0x38
   2FC9 2F                13554 	.db #0x2F
   2FCA 3F                13555 	.db #0x3F
   2FCB 3F                13556 	.db #0x3F
   2FCC 18                13557 	.db #0x18
   2FCD 1F                13558 	.db #0x1F
   2FCE 90                13559 	.db #0x90
   2FCF 9F                13560 	.db #0x9F
   2FD0 FF                13561 	.db #0xFF
   2FD1 80                13562 	.db #0x80
   2FD2 8F                13563 	.db #0x8F
   2FD3 8F                13564 	.db #0x8F
   2FD4 18                13565 	.db #0x18
   2FD5 1F                13566 	.db #0x1F
   2FD6 13                13567 	.db #0x13
   2FD7 1F                13568 	.db #0x1F
   2FD8 1E                13569 	.db #0x1E
   2FD9 1F                13570 	.db #0x1F
   2FDA 09                13571 	.db #0x09
   2FDB 0F                13572 	.db #0x0F
   2FDC 07                13573 	.db #0x07
   2FDD 07                13574 	.db #0x07
   2FDE 00                13575 	.db #0x00
   2FDF 00                13576 	.db #0x00
   2FE0 00                13577 	.db #0x00
   2FE1 00                13578 	.db #0x00
   2FE2 00                13579 	.db #0x00
   2FE3 00                13580 	.db #0x00
   2FE4 00                13581 	.db #0x00
   2FE5 00                13582 	.db #0x00
   2FE6 00                13583 	.db #0x00
   2FE7 00                13584 	.db #0x00
   2FE8 00                13585 	.db #0x00
   2FE9 00                13586 	.db #0x00
   2FEA 00                13587 	.db #0x00
   2FEB 00                13588 	.db #0x00
   2FEC 00                13589 	.db #0x00
   2FED 00                13590 	.db #0x00
   2FEE 00                13591 	.db #0x00
   2FEF 00                13592 	.db #0x00
   2FF0 00                13593 	.db #0x00
   2FF1 00                13594 	.db #0x00
   2FF2 00                13595 	.db #0x00
   2FF3 00                13596 	.db #0x00
   2FF4 00                13597 	.db #0x00
   2FF5 00                13598 	.db #0x00
   2FF6 00                13599 	.db #0x00
   2FF7 00                13600 	.db #0x00
   2FF8 00                13601 	.db #0x00
   2FF9 00                13602 	.db #0x00
   2FFA 00                13603 	.db #0x00
   2FFB 00                13604 	.db #0x00
   2FFC 80                13605 	.db #0x80
   2FFD 80                13606 	.db #0x80
   2FFE 00                13607 	.db #0x00
   2FFF 00                13608 	.db #0x00
   3000 00                13609 	.db #0x00
   3001 00                13610 	.db #0x00
   3002 00                13611 	.db #0x00
   3003 00                13612 	.db #0x00
   3004 00                13613 	.db #0x00
   3005 00                13614 	.db #0x00
   3006 00                13615 	.db #0x00
   3007 00                13616 	.db #0x00
   3008 00                13617 	.db #0x00
   3009 00                13618 	.db #0x00
   300A 00                13619 	.db #0x00
   300B 00                13620 	.db #0x00
   300C 00                13621 	.db #0x00
   300D 00                13622 	.db #0x00
   300E 00                13623 	.db #0x00
   300F 00                13624 	.db #0x00
   3010 00                13625 	.db #0x00
   3011 00                13626 	.db #0x00
   3012 00                13627 	.db #0x00
   3013 00                13628 	.db #0x00
   3014 00                13629 	.db #0x00
   3015 00                13630 	.db #0x00
   3016 00                13631 	.db #0x00
   3017 00                13632 	.db #0x00
   3018 00                13633 	.db #0x00
   3019 00                13634 	.db #0x00
   301A 00                13635 	.db #0x00
   301B 00                13636 	.db #0x00
   301C 00                13637 	.db #0x00
   301D 00                13638 	.db #0x00
   301E 80                13639 	.db #0x80
   301F 80                13640 	.db #0x80
   3020 E0                13641 	.db #0xE0
   3021 E0                13642 	.db #0xE0
   3022 50                13643 	.db #0x50
   3023 F0                13644 	.db #0xF0
   3024 F0                13645 	.db #0xF0
   3025 F0                13646 	.db #0xF0
   3026 50                13647 	.db #0x50
   3027 F0                13648 	.db #0xF0
   3028 50                13649 	.db #0x50
   3029 F0                13650 	.db #0xF0
   302A F0                13651 	.db #0xF0
   302B F0                13652 	.db #0xF0
   302C 60                13653 	.db #0x60
   302D E0                13654 	.db #0xE0
   302E 3C                13655 	.db #0x3C
   302F FC                13656 	.db #0xFC
   3030 FC                13657 	.db #0xFC
   3031 1C                13658 	.db #0x1C
   3032 DC                13659 	.db #0xDC
   3033 DC                13660 	.db #0xDC
   3034 60                13661 	.db #0x60
   3035 E0                13662 	.db #0xE0
   3036 20                13663 	.db #0x20
   3037 E0                13664 	.db #0xE0
   3038 F8                13665 	.db #0xF8
   3039 F8                13666 	.db #0xF8
   303A 88                13667 	.db #0x88
   303B F8                13668 	.db #0xF8
   303C F8                13669 	.db #0xF8
   303D F8                13670 	.db #0xF8
   303E 00                13671 	.db #0x00
   303F 00                13672 	.db #0x00
   3040 00                13673 	.db #0x00
   3041 00                13674 	.db #0x00
   3042 00                13675 	.db #0x00
   3043 00                13676 	.db #0x00
   3044 00                13677 	.db #0x00
   3045 00                13678 	.db #0x00
   3046 00                13679 	.db #0x00
   3047 00                13680 	.db #0x00
   3048 00                13681 	.db #0x00
   3049 00                13682 	.db #0x00
   304A 00                13683 	.db #0x00
   304B 00                13684 	.db #0x00
   304C 00                13685 	.db #0x00
   304D 00                13686 	.db #0x00
   304E 00                13687 	.db #0x00
   304F 00                13688 	.db #0x00
   3050 00                13689 	.db #0x00
   3051 00                13690 	.db #0x00
   3052 00                13691 	.db #0x00
   3053 00                13692 	.db #0x00
   3054 00                13693 	.db #0x00
   3055 00                13694 	.db #0x00
   3056 00                13695 	.db #0x00
   3057 00                13696 	.db #0x00
   3058 00                13697 	.db #0x00
   3059 00                13698 	.db #0x00
   305A 00                13699 	.db #0x00
   305B 00                13700 	.db #0x00
   305C 00                13701 	.db #0x00
   305D 00                13702 	.db #0x00
   305E                   13703 _CityMap:
   305E 25                13704 	.db #0x25
   305F 25                13705 	.db #0x25
   3060 25                13706 	.db #0x25
   3061 25                13707 	.db #0x25
   3062 25                13708 	.db #0x25
   3063 25                13709 	.db #0x25
   3064 25                13710 	.db #0x25
   3065 25                13711 	.db #0x25
   3066 25                13712 	.db #0x25
   3067 25                13713 	.db #0x25
   3068 25                13714 	.db #0x25
   3069 25                13715 	.db #0x25
   306A 25                13716 	.db #0x25
   306B 25                13717 	.db #0x25
   306C 25                13718 	.db #0x25
   306D 25                13719 	.db #0x25
   306E 25                13720 	.db #0x25
   306F 25                13721 	.db #0x25
   3070 25                13722 	.db #0x25
   3071 25                13723 	.db #0x25
   3072 25                13724 	.db #0x25
   3073 25                13725 	.db #0x25
   3074 25                13726 	.db #0x25
   3075 25                13727 	.db #0x25
   3076 25                13728 	.db #0x25
   3077 25                13729 	.db #0x25
   3078 25                13730 	.db #0x25
   3079 25                13731 	.db #0x25
   307A 25                13732 	.db #0x25
   307B 25                13733 	.db #0x25
   307C 25                13734 	.db #0x25
   307D 25                13735 	.db #0x25
   307E 25                13736 	.db #0x25
   307F 25                13737 	.db #0x25
   3080 25                13738 	.db #0x25
   3081 25                13739 	.db #0x25
   3082 25                13740 	.db #0x25
   3083 25                13741 	.db #0x25
   3084 25                13742 	.db #0x25
   3085 25                13743 	.db #0x25
   3086 25                13744 	.db #0x25
   3087 25                13745 	.db #0x25
   3088 25                13746 	.db #0x25
   3089 25                13747 	.db #0x25
   308A 25                13748 	.db #0x25
   308B 25                13749 	.db #0x25
   308C 25                13750 	.db #0x25
   308D 25                13751 	.db #0x25
   308E 25                13752 	.db #0x25
   308F 25                13753 	.db #0x25
   3090 25                13754 	.db #0x25
   3091 25                13755 	.db #0x25
   3092 25                13756 	.db #0x25
   3093 25                13757 	.db #0x25
   3094 25                13758 	.db #0x25
   3095 25                13759 	.db #0x25
   3096 25                13760 	.db #0x25
   3097 25                13761 	.db #0x25
   3098 25                13762 	.db #0x25
   3099 25                13763 	.db #0x25
   309A 25                13764 	.db #0x25
   309B 25                13765 	.db #0x25
   309C 25                13766 	.db #0x25
   309D 25                13767 	.db #0x25
   309E 18                13768 	.db #0x18
   309F 1A                13769 	.db #0x1A
   30A0 25                13770 	.db #0x25
   30A1 18                13771 	.db #0x18
   30A2 1A                13772 	.db #0x1A
   30A3 18                13773 	.db #0x18
   30A4 1A                13774 	.db #0x1A
   30A5 25                13775 	.db #0x25
   30A6 1C                13776 	.db #0x1C
   30A7 1E                13777 	.db #0x1E
   30A8 25                13778 	.db #0x25
   30A9 18                13779 	.db #0x18
   30AA 1A                13780 	.db #0x1A
   30AB 18                13781 	.db #0x18
   30AC 1A                13782 	.db #0x1A
   30AD 25                13783 	.db #0x25
   30AE 18                13784 	.db #0x18
   30AF 1A                13785 	.db #0x1A
   30B0 18                13786 	.db #0x18
   30B1 1A                13787 	.db #0x1A
   30B2 1C                13788 	.db #0x1C
   30B3 1E                13789 	.db #0x1E
   30B4 25                13790 	.db #0x25
   30B5 18                13791 	.db #0x18
   30B6 1A                13792 	.db #0x1A
   30B7 18                13793 	.db #0x18
   30B8 1A                13794 	.db #0x1A
   30B9 25                13795 	.db #0x25
   30BA 18                13796 	.db #0x18
   30BB 1A                13797 	.db #0x1A
   30BC 18                13798 	.db #0x18
   30BD 1A                13799 	.db #0x1A
   30BE 19                13800 	.db #0x19
   30BF 1B                13801 	.db #0x1B
   30C0 25                13802 	.db #0x25
   30C1 19                13803 	.db #0x19
   30C2 1B                13804 	.db #0x1B
   30C3 19                13805 	.db #0x19
   30C4 1B                13806 	.db #0x1B
   30C5 25                13807 	.db #0x25
   30C6 1D                13808 	.db #0x1D
   30C7 1F                13809 	.db #0x1F
   30C8 25                13810 	.db #0x25
   30C9 19                13811 	.db #0x19
   30CA 1B                13812 	.db #0x1B
   30CB 19                13813 	.db #0x19
   30CC 1B                13814 	.db #0x1B
   30CD 25                13815 	.db #0x25
   30CE 19                13816 	.db #0x19
   30CF 1B                13817 	.db #0x1B
   30D0 19                13818 	.db #0x19
   30D1 1B                13819 	.db #0x1B
   30D2 1D                13820 	.db #0x1D
   30D3 1F                13821 	.db #0x1F
   30D4 25                13822 	.db #0x25
   30D5 19                13823 	.db #0x19
   30D6 1B                13824 	.db #0x1B
   30D7 19                13825 	.db #0x19
   30D8 1B                13826 	.db #0x1B
   30D9 25                13827 	.db #0x25
   30DA 19                13828 	.db #0x19
   30DB 1B                13829 	.db #0x1B
   30DC 19                13830 	.db #0x19
   30DD 1B                13831 	.db #0x1B
   30DE 24                13832 	.db #0x24
   30DF 24                13833 	.db #0x24
   30E0 24                13834 	.db #0x24
   30E1 24                13835 	.db #0x24
   30E2 24                13836 	.db #0x24
   30E3 24                13837 	.db #0x24
   30E4 24                13838 	.db #0x24
   30E5 24                13839 	.db #0x24
   30E6 24                13840 	.db #0x24
   30E7 24                13841 	.db #0x24
   30E8 24                13842 	.db #0x24
   30E9 24                13843 	.db #0x24
   30EA 24                13844 	.db #0x24
   30EB 24                13845 	.db #0x24
   30EC 24                13846 	.db #0x24
   30ED 24                13847 	.db #0x24
   30EE 24                13848 	.db #0x24
   30EF 24                13849 	.db #0x24
   30F0 24                13850 	.db #0x24
   30F1 24                13851 	.db #0x24
   30F2 24                13852 	.db #0x24
   30F3 24                13853 	.db #0x24
   30F4 24                13854 	.db #0x24
   30F5 24                13855 	.db #0x24
   30F6 24                13856 	.db #0x24
   30F7 24                13857 	.db #0x24
   30F8 24                13858 	.db #0x24
   30F9 24                13859 	.db #0x24
   30FA 24                13860 	.db #0x24
   30FB 24                13861 	.db #0x24
   30FC 24                13862 	.db #0x24
   30FD 24                13863 	.db #0x24
   30FE 20                13864 	.db #0x20
   30FF 20                13865 	.db #0x20
   3100 20                13866 	.db #0x20
   3101 20                13867 	.db #0x20
   3102 20                13868 	.db #0x20
   3103 20                13869 	.db #0x20
   3104 20                13870 	.db #0x20
   3105 20                13871 	.db #0x20
   3106 20                13872 	.db #0x20
   3107 20                13873 	.db #0x20
   3108 20                13874 	.db #0x20
   3109 20                13875 	.db #0x20
   310A 20                13876 	.db #0x20
   310B 20                13877 	.db #0x20
   310C 20                13878 	.db #0x20
   310D 20                13879 	.db #0x20
   310E 20                13880 	.db #0x20
   310F 20                13881 	.db #0x20
   3110 20                13882 	.db #0x20
   3111 20                13883 	.db #0x20
   3112 20                13884 	.db #0x20
   3113 20                13885 	.db #0x20
   3114 20                13886 	.db #0x20
   3115 20                13887 	.db #0x20
   3116 20                13888 	.db #0x20
   3117 20                13889 	.db #0x20
   3118 20                13890 	.db #0x20
   3119 20                13891 	.db #0x20
   311A 20                13892 	.db #0x20
   311B 20                13893 	.db #0x20
   311C 20                13894 	.db #0x20
   311D 20                13895 	.db #0x20
   311E 16                13896 	.db #0x16
   311F 16                13897 	.db #0x16
   3120 16                13898 	.db #0x16
   3121 16                13899 	.db #0x16
   3122 16                13900 	.db #0x16
   3123 16                13901 	.db #0x16
   3124 16                13902 	.db #0x16
   3125 16                13903 	.db #0x16
   3126 16                13904 	.db #0x16
   3127 16                13905 	.db #0x16
   3128 16                13906 	.db #0x16
   3129 16                13907 	.db #0x16
   312A 16                13908 	.db #0x16
   312B 16                13909 	.db #0x16
   312C 16                13910 	.db #0x16
   312D 16                13911 	.db #0x16
   312E 16                13912 	.db #0x16
   312F 16                13913 	.db #0x16
   3130 16                13914 	.db #0x16
   3131 16                13915 	.db #0x16
   3132 16                13916 	.db #0x16
   3133 16                13917 	.db #0x16
   3134 16                13918 	.db #0x16
   3135 16                13919 	.db #0x16
   3136 16                13920 	.db #0x16
   3137 16                13921 	.db #0x16
   3138 16                13922 	.db #0x16
   3139 16                13923 	.db #0x16
   313A 16                13924 	.db #0x16
   313B 16                13925 	.db #0x16
   313C 16                13926 	.db #0x16
   313D 16                13927 	.db #0x16
   313E 16                13928 	.db #0x16
   313F 16                13929 	.db #0x16
   3140 00                13930 	.db #0x00
   3141 02                13931 	.db #0x02
   3142 16                13932 	.db #0x16
   3143 16                13933 	.db #0x16
   3144 16                13934 	.db #0x16
   3145 16                13935 	.db #0x16
   3146 16                13936 	.db #0x16
   3147 16                13937 	.db #0x16
   3148 16                13938 	.db #0x16
   3149 16                13939 	.db #0x16
   314A 16                13940 	.db #0x16
   314B 16                13941 	.db #0x16
   314C 16                13942 	.db #0x16
   314D 16                13943 	.db #0x16
   314E 16                13944 	.db #0x16
   314F 16                13945 	.db #0x16
   3150 16                13946 	.db #0x16
   3151 16                13947 	.db #0x16
   3152 16                13948 	.db #0x16
   3153 16                13949 	.db #0x16
   3154 16                13950 	.db #0x16
   3155 16                13951 	.db #0x16
   3156 16                13952 	.db #0x16
   3157 16                13953 	.db #0x16
   3158 16                13954 	.db #0x16
   3159 16                13955 	.db #0x16
   315A 00                13956 	.db #0x00
   315B 02                13957 	.db #0x02
   315C 16                13958 	.db #0x16
   315D 16                13959 	.db #0x16
   315E 16                13960 	.db #0x16
   315F 16                13961 	.db #0x16
   3160 01                13962 	.db #0x01
   3161 03                13963 	.db #0x03
   3162 16                13964 	.db #0x16
   3163 08                13965 	.db #0x08
   3164 0A                13966 	.db #0x0A
   3165 16                13967 	.db #0x16
   3166 16                13968 	.db #0x16
   3167 16                13969 	.db #0x16
   3168 00                13970 	.db #0x00
   3169 02                13971 	.db #0x02
   316A 16                13972 	.db #0x16
   316B 16                13973 	.db #0x16
   316C 16                13974 	.db #0x16
   316D 16                13975 	.db #0x16
   316E 16                13976 	.db #0x16
   316F 16                13977 	.db #0x16
   3170 16                13978 	.db #0x16
   3171 16                13979 	.db #0x16
   3172 16                13980 	.db #0x16
   3173 16                13981 	.db #0x16
   3174 00                13982 	.db #0x00
   3175 02                13983 	.db #0x02
   3176 16                13984 	.db #0x16
   3177 16                13985 	.db #0x16
   3178 0C                13986 	.db #0x0C
   3179 0E                13987 	.db #0x0E
   317A 01                13988 	.db #0x01
   317B 03                13989 	.db #0x03
   317C 16                13990 	.db #0x16
   317D 16                13991 	.db #0x16
   317E 16                13992 	.db #0x16
   317F 16                13993 	.db #0x16
   3180 16                13994 	.db #0x16
   3181 16                13995 	.db #0x16
   3182 16                13996 	.db #0x16
   3183 09                13997 	.db #0x09
   3184 0B                13998 	.db #0x0B
   3185 16                13999 	.db #0x16
   3186 16                14000 	.db #0x16
   3187 16                14001 	.db #0x16
   3188 01                14002 	.db #0x01
   3189 03                14003 	.db #0x03
   318A 16                14004 	.db #0x16
   318B 16                14005 	.db #0x16
   318C 16                14006 	.db #0x16
   318D 16                14007 	.db #0x16
   318E 16                14008 	.db #0x16
   318F 16                14009 	.db #0x16
   3190 16                14010 	.db #0x16
   3191 16                14011 	.db #0x16
   3192 16                14012 	.db #0x16
   3193 16                14013 	.db #0x16
   3194 01                14014 	.db #0x01
   3195 03                14015 	.db #0x03
   3196 16                14016 	.db #0x16
   3197 16                14017 	.db #0x16
   3198 0F                14018 	.db #0x0F
   3199 0E                14019 	.db #0x0E
   319A 16                14020 	.db #0x16
   319B 16                14021 	.db #0x16
   319C 16                14022 	.db #0x16
   319D 16                14023 	.db #0x16
   319E 16                14024 	.db #0x16
   319F 0C                14025 	.db #0x0C
   31A0 0E                14026 	.db #0x0E
   31A1 16                14027 	.db #0x16
   31A2 16                14028 	.db #0x16
   31A3 16                14029 	.db #0x16
   31A4 16                14030 	.db #0x16
   31A5 0C                14031 	.db #0x0C
   31A6 0E                14032 	.db #0x0E
   31A7 16                14033 	.db #0x16
   31A8 16                14034 	.db #0x16
   31A9 16                14035 	.db #0x16
   31AA 16                14036 	.db #0x16
   31AB 0C                14037 	.db #0x0C
   31AC 0E                14038 	.db #0x0E
   31AD 16                14039 	.db #0x16
   31AE 16                14040 	.db #0x16
   31AF 16                14041 	.db #0x16
   31B0 16                14042 	.db #0x16
   31B1 0C                14043 	.db #0x0C
   31B2 0E                14044 	.db #0x0E
   31B3 16                14045 	.db #0x16
   31B4 16                14046 	.db #0x16
   31B5 16                14047 	.db #0x16
   31B6 16                14048 	.db #0x16
   31B7 16                14049 	.db #0x16
   31B8 16                14050 	.db #0x16
   31B9 16                14051 	.db #0x16
   31BA 16                14052 	.db #0x16
   31BB 16                14053 	.db #0x16
   31BC 16                14054 	.db #0x16
   31BD 16                14055 	.db #0x16
   31BE 16                14056 	.db #0x16
   31BF 0F                14057 	.db #0x0F
   31C0 0E                14058 	.db #0x0E
   31C1 16                14059 	.db #0x16
   31C2 16                14060 	.db #0x16
   31C3 16                14061 	.db #0x16
   31C4 16                14062 	.db #0x16
   31C5 0F                14063 	.db #0x0F
   31C6 0E                14064 	.db #0x0E
   31C7 16                14065 	.db #0x16
   31C8 16                14066 	.db #0x16
   31C9 16                14067 	.db #0x16
   31CA 16                14068 	.db #0x16
   31CB 0F                14069 	.db #0x0F
   31CC 0E                14070 	.db #0x0E
   31CD 16                14071 	.db #0x16
   31CE 16                14072 	.db #0x16
   31CF 16                14073 	.db #0x16
   31D0 16                14074 	.db #0x16
   31D1 0F                14075 	.db #0x0F
   31D2 0E                14076 	.db #0x0E
   31D3 16                14077 	.db #0x16
   31D4 16                14078 	.db #0x16
   31D5 16                14079 	.db #0x16
   31D6 16                14080 	.db #0x16
   31D7 16                14081 	.db #0x16
   31D8 16                14082 	.db #0x16
   31D9 08                14083 	.db #0x08
   31DA 0A                14084 	.db #0x0A
   31DB 16                14085 	.db #0x16
   31DC 16                14086 	.db #0x16
   31DD 16                14087 	.db #0x16
   31DE 16                14088 	.db #0x16
   31DF 16                14089 	.db #0x16
   31E0 16                14090 	.db #0x16
   31E1 16                14091 	.db #0x16
   31E2 16                14092 	.db #0x16
   31E3 16                14093 	.db #0x16
   31E4 16                14094 	.db #0x16
   31E5 16                14095 	.db #0x16
   31E6 16                14096 	.db #0x16
   31E7 16                14097 	.db #0x16
   31E8 16                14098 	.db #0x16
   31E9 16                14099 	.db #0x16
   31EA 16                14100 	.db #0x16
   31EB 16                14101 	.db #0x16
   31EC 16                14102 	.db #0x16
   31ED 16                14103 	.db #0x16
   31EE 16                14104 	.db #0x16
   31EF 16                14105 	.db #0x16
   31F0 16                14106 	.db #0x16
   31F1 16                14107 	.db #0x16
   31F2 16                14108 	.db #0x16
   31F3 16                14109 	.db #0x16
   31F4 16                14110 	.db #0x16
   31F5 16                14111 	.db #0x16
   31F6 16                14112 	.db #0x16
   31F7 16                14113 	.db #0x16
   31F8 16                14114 	.db #0x16
   31F9 09                14115 	.db #0x09
   31FA 0B                14116 	.db #0x0B
   31FB 16                14117 	.db #0x16
   31FC 16                14118 	.db #0x16
   31FD 16                14119 	.db #0x16
   31FE 16                14120 	.db #0x16
   31FF 16                14121 	.db #0x16
   3200 16                14122 	.db #0x16
   3201 16                14123 	.db #0x16
   3202 16                14124 	.db #0x16
   3203 16                14125 	.db #0x16
   3204 16                14126 	.db #0x16
   3205 16                14127 	.db #0x16
   3206 16                14128 	.db #0x16
   3207 16                14129 	.db #0x16
   3208 16                14130 	.db #0x16
   3209 23                14131 	.db #0x23
   320A 23                14132 	.db #0x23
   320B 16                14133 	.db #0x16
   320C 16                14134 	.db #0x16
   320D 16                14135 	.db #0x16
   320E 16                14136 	.db #0x16
   320F 16                14137 	.db #0x16
   3210 16                14138 	.db #0x16
   3211 16                14139 	.db #0x16
   3212 16                14140 	.db #0x16
   3213 16                14141 	.db #0x16
   3214 16                14142 	.db #0x16
   3215 16                14143 	.db #0x16
   3216 16                14144 	.db #0x16
   3217 16                14145 	.db #0x16
   3218 16                14146 	.db #0x16
   3219 16                14147 	.db #0x16
   321A 16                14148 	.db #0x16
   321B 16                14149 	.db #0x16
   321C 16                14150 	.db #0x16
   321D 16                14151 	.db #0x16
   321E 16                14152 	.db #0x16
   321F 16                14153 	.db #0x16
   3220 16                14154 	.db #0x16
   3221 16                14155 	.db #0x16
   3222 10                14156 	.db #0x10
   3223 12                14157 	.db #0x12
   3224 14                14158 	.db #0x14
   3225 16                14159 	.db #0x16
   3226 16                14160 	.db #0x16
   3227 16                14161 	.db #0x16
   3228 16                14162 	.db #0x16
   3229 16                14163 	.db #0x16
   322A 10                14164 	.db #0x10
   322B 12                14165 	.db #0x12
   322C 14                14166 	.db #0x14
   322D 16                14167 	.db #0x16
   322E 16                14168 	.db #0x16
   322F 16                14169 	.db #0x16
   3230 16                14170 	.db #0x16
   3231 10                14171 	.db #0x10
   3232 12                14172 	.db #0x12
   3233 14                14173 	.db #0x14
   3234 16                14174 	.db #0x16
   3235 16                14175 	.db #0x16
   3236 16                14176 	.db #0x16
   3237 16                14177 	.db #0x16
   3238 10                14178 	.db #0x10
   3239 12                14179 	.db #0x12
   323A 14                14180 	.db #0x14
   323B 16                14181 	.db #0x16
   323C 16                14182 	.db #0x16
   323D 16                14183 	.db #0x16
   323E 16                14184 	.db #0x16
   323F 16                14185 	.db #0x16
   3240 16                14186 	.db #0x16
   3241 16                14187 	.db #0x16
   3242 11                14188 	.db #0x11
   3243 13                14189 	.db #0x13
   3244 15                14190 	.db #0x15
   3245 16                14191 	.db #0x16
   3246 16                14192 	.db #0x16
   3247 16                14193 	.db #0x16
   3248 16                14194 	.db #0x16
   3249 16                14195 	.db #0x16
   324A 11                14196 	.db #0x11
   324B 13                14197 	.db #0x13
   324C 15                14198 	.db #0x15
   324D 16                14199 	.db #0x16
   324E 16                14200 	.db #0x16
   324F 16                14201 	.db #0x16
   3250 16                14202 	.db #0x16
   3251 11                14203 	.db #0x11
   3252 13                14204 	.db #0x13
   3253 15                14205 	.db #0x15
   3254 16                14206 	.db #0x16
   3255 16                14207 	.db #0x16
   3256 16                14208 	.db #0x16
   3257 16                14209 	.db #0x16
   3258 11                14210 	.db #0x11
   3259 13                14211 	.db #0x13
   325A 15                14212 	.db #0x15
   325B 16                14213 	.db #0x16
   325C 16                14214 	.db #0x16
   325D 16                14215 	.db #0x16
   325E                   14216 _Shock:
   325E 00                14217 	.db #0x00
   325F 7C                14218 	.db #0x7C
   3260 38                14219 	.db #0x38
   3261 46                14220 	.db #0x46
   3262 1C                14221 	.db #0x1C
   3263 62                14222 	.db #0x62
   3264 0C                14223 	.db #0x0C
   3265 32                14224 	.db #0x32
   3266 0C                14225 	.db #0x0C
   3267 12                14226 	.db #0x12
   3268 0C                14227 	.db #0x0C
   3269 32                14228 	.db #0x32
   326A 18                14229 	.db #0x18
   326B 66                14230 	.db #0x66
   326C 00                14231 	.db #0x00
   326D FC                14232 	.db #0xFC
   326E                   14233 _JUDGEATTACK1:
   326E 00                14234 	.db #0x00
   326F 00                14235 	.db #0x00
   3270 00                14236 	.db #0x00
   3271 00                14237 	.db #0x00
   3272 00                14238 	.db #0x00
   3273 00                14239 	.db #0x00
   3274 00                14240 	.db #0x00
   3275 00                14241 	.db #0x00
   3276 00                14242 	.db #0x00
   3277 00                14243 	.db #0x00
   3278 00                14244 	.db #0x00
   3279 00                14245 	.db #0x00
   327A 00                14246 	.db #0x00
   327B 02                14247 	.db #0x02
   327C 02                14248 	.db #0x02
   327D 03                14249 	.db #0x03
   327E 07                14250 	.db #0x07
   327F 07                14251 	.db #0x07
   3280 0F                14252 	.db #0x0F
   3281 0F                14253 	.db #0x0F
   3282 1F                14254 	.db #0x1F
   3283 1F                14255 	.db #0x1F
   3284 3F                14256 	.db #0x3F
   3285 7F                14257 	.db #0x7F
   3286 5F                14258 	.db #0x5F
   3287 3F                14259 	.db #0x3F
   3288 6E                14260 	.db #0x6E
   3289 1E                14261 	.db #0x1E
   328A 74                14262 	.db #0x74
   328B 0C                14263 	.db #0x0C
   328C 78                14264 	.db #0x78
   328D 04                14265 	.db #0x04
   328E 00                14266 	.db #0x00
   328F 00                14267 	.db #0x00
   3290 00                14268 	.db #0x00
   3291 00                14269 	.db #0x00
   3292 00                14270 	.db #0x00
   3293 00                14271 	.db #0x00
   3294 00                14272 	.db #0x00
   3295 00                14273 	.db #0x00
   3296 00                14274 	.db #0x00
   3297 00                14275 	.db #0x00
   3298 00                14276 	.db #0x00
   3299 00                14277 	.db #0x00
   329A 00                14278 	.db #0x00
   329B 00                14279 	.db #0x00
   329C 00                14280 	.db #0x00
   329D 00                14281 	.db #0x00
   329E 00                14282 	.db #0x00
   329F 80                14283 	.db #0x80
   32A0 80                14284 	.db #0x80
   32A1 C0                14285 	.db #0xC0
   32A2 C0                14286 	.db #0xC0
   32A3 E0                14287 	.db #0xE0
   32A4 80                14288 	.db #0x80
   32A5 80                14289 	.db #0x80
   32A6 00                14290 	.db #0x00
   32A7 00                14291 	.db #0x00
   32A8 80                14292 	.db #0x80
   32A9 00                14293 	.db #0x00
   32AA 40                14294 	.db #0x40
   32AB 00                14295 	.db #0x00
   32AC 3F                14296 	.db #0x3F
   32AD 3F                14297 	.db #0x3F
   32AE 78                14298 	.db #0x78
   32AF 00                14299 	.db #0x00
   32B0 78                14300 	.db #0x78
   32B1 00                14301 	.db #0x00
   32B2 7C                14302 	.db #0x7C
   32B3 00                14303 	.db #0x00
   32B4 3C                14304 	.db #0x3C
   32B5 00                14305 	.db #0x00
   32B6 3E                14306 	.db #0x3E
   32B7 00                14307 	.db #0x00
   32B8 1F                14308 	.db #0x1F
   32B9 00                14309 	.db #0x00
   32BA 1F                14310 	.db #0x1F
   32BB 00                14311 	.db #0x00
   32BC 0F                14312 	.db #0x0F
   32BD 00                14313 	.db #0x00
   32BE 07                14314 	.db #0x07
   32BF 00                14315 	.db #0x00
   32C0 07                14316 	.db #0x07
   32C1 00                14317 	.db #0x00
   32C2 01                14318 	.db #0x01
   32C3 00                14319 	.db #0x00
   32C4 00                14320 	.db #0x00
   32C5 00                14321 	.db #0x00
   32C6 00                14322 	.db #0x00
   32C7 00                14323 	.db #0x00
   32C8 00                14324 	.db #0x00
   32C9 00                14325 	.db #0x00
   32CA 00                14326 	.db #0x00
   32CB 00                14327 	.db #0x00
   32CC 00                14328 	.db #0x00
   32CD 00                14329 	.db #0x00
   32CE 7F                14330 	.db #0x7F
   32CF 5D                14331 	.db #0x5D
   32D0 7F                14332 	.db #0x7F
   32D1 5F                14333 	.db #0x5F
   32D2 72                14334 	.db #0x72
   32D3 5D                14335 	.db #0x5D
   32D4 71                14336 	.db #0x71
   32D5 5E                14337 	.db #0x5E
   32D6 70                14338 	.db #0x70
   32D7 5F                14339 	.db #0x5F
   32D8 70                14340 	.db #0x70
   32D9 5F                14341 	.db #0x5F
   32DA FF                14342 	.db #0xFF
   32DB 7F                14343 	.db #0x7F
   32DC 98                14344 	.db #0x98
   32DD 1F                14345 	.db #0x1F
   32DE D0                14346 	.db #0xD0
   32DF 1F                14347 	.db #0x1F
   32E0 C8                14348 	.db #0xC8
   32E1 0F                14349 	.db #0x0F
   32E2 CF                14350 	.db #0xCF
   32E3 0F                14351 	.db #0x0F
   32E4 18                14352 	.db #0x18
   32E5 1F                14353 	.db #0x1F
   32E6 13                14354 	.db #0x13
   32E7 1F                14355 	.db #0x1F
   32E8 1C                14356 	.db #0x1C
   32E9 1C                14357 	.db #0x1C
   32EA 14                14358 	.db #0x14
   32EB 1C                14359 	.db #0x1C
   32EC 1C                14360 	.db #0x1C
   32ED 1C                14361 	.db #0x1C
   32EE 00                14362 	.db #0x00
   32EF 00                14363 	.db #0x00
   32F0 00                14364 	.db #0x00
   32F1 00                14365 	.db #0x00
   32F2 00                14366 	.db #0x00
   32F3 00                14367 	.db #0x00
   32F4 00                14368 	.db #0x00
   32F5 00                14369 	.db #0x00
   32F6 00                14370 	.db #0x00
   32F7 00                14371 	.db #0x00
   32F8 00                14372 	.db #0x00
   32F9 00                14373 	.db #0x00
   32FA 00                14374 	.db #0x00
   32FB 00                14375 	.db #0x00
   32FC 00                14376 	.db #0x00
   32FD 00                14377 	.db #0x00
   32FE 00                14378 	.db #0x00
   32FF 00                14379 	.db #0x00
   3300 00                14380 	.db #0x00
   3301 00                14381 	.db #0x00
   3302 00                14382 	.db #0x00
   3303 00                14383 	.db #0x00
   3304 00                14384 	.db #0x00
   3305 00                14385 	.db #0x00
   3306 00                14386 	.db #0x00
   3307 00                14387 	.db #0x00
   3308 00                14388 	.db #0x00
   3309 00                14389 	.db #0x00
   330A 00                14390 	.db #0x00
   330B 00                14391 	.db #0x00
   330C 00                14392 	.db #0x00
   330D 00                14393 	.db #0x00
   330E 00                14394 	.db #0x00
   330F 00                14395 	.db #0x00
   3310 00                14396 	.db #0x00
   3311 00                14397 	.db #0x00
   3312 00                14398 	.db #0x00
   3313 00                14399 	.db #0x00
   3314 00                14400 	.db #0x00
   3315 00                14401 	.db #0x00
   3316 00                14402 	.db #0x00
   3317 00                14403 	.db #0x00
   3318 00                14404 	.db #0x00
   3319 00                14405 	.db #0x00
   331A 00                14406 	.db #0x00
   331B 00                14407 	.db #0x00
   331C 00                14408 	.db #0x00
   331D 00                14409 	.db #0x00
   331E 00                14410 	.db #0x00
   331F 00                14411 	.db #0x00
   3320 00                14412 	.db #0x00
   3321 00                14413 	.db #0x00
   3322 00                14414 	.db #0x00
   3323 00                14415 	.db #0x00
   3324 00                14416 	.db #0x00
   3325 00                14417 	.db #0x00
   3326 00                14418 	.db #0x00
   3327 00                14419 	.db #0x00
   3328 00                14420 	.db #0x00
   3329 00                14421 	.db #0x00
   332A 00                14422 	.db #0x00
   332B 00                14423 	.db #0x00
   332C 00                14424 	.db #0x00
   332D 00                14425 	.db #0x00
   332E 00                14426 	.db #0x00
   332F 00                14427 	.db #0x00
   3330 C0                14428 	.db #0xC0
   3331 C0                14429 	.db #0xC0
   3332 A0                14430 	.db #0xA0
   3333 E0                14431 	.db #0xE0
   3334 E0                14432 	.db #0xE0
   3335 E0                14433 	.db #0xE0
   3336 A0                14434 	.db #0xA0
   3337 60                14435 	.db #0x60
   3338 E0                14436 	.db #0xE0
   3339 A0                14437 	.db #0xA0
   333A E0                14438 	.db #0xE0
   333B C0                14439 	.db #0xC0
   333C 70                14440 	.db #0x70
   333D E0                14441 	.db #0xE0
   333E 2E                14442 	.db #0x2E
   333F EE                14443 	.db #0xEE
   3340 4E                14444 	.db #0x4E
   3341 CE                14445 	.db #0xCE
   3342 CE                14446 	.db #0xCE
   3343 CE                14447 	.db #0xCE
   3344 60                14448 	.db #0x60
   3345 E0                14449 	.db #0xE0
   3346 20                14450 	.db #0x20
   3347 E0                14451 	.db #0xE0
   3348 F8                14452 	.db #0xF8
   3349 F8                14453 	.db #0xF8
   334A 88                14454 	.db #0x88
   334B F8                14455 	.db #0xF8
   334C F8                14456 	.db #0xF8
   334D F8                14457 	.db #0xF8
   334E 00                14458 	.db #0x00
   334F 00                14459 	.db #0x00
   3350 00                14460 	.db #0x00
   3351 00                14461 	.db #0x00
   3352 00                14462 	.db #0x00
   3353 00                14463 	.db #0x00
   3354 00                14464 	.db #0x00
   3355 00                14465 	.db #0x00
   3356 00                14466 	.db #0x00
   3357 00                14467 	.db #0x00
   3358 00                14468 	.db #0x00
   3359 00                14469 	.db #0x00
   335A 00                14470 	.db #0x00
   335B 00                14471 	.db #0x00
   335C 00                14472 	.db #0x00
   335D 00                14473 	.db #0x00
   335E 00                14474 	.db #0x00
   335F 00                14475 	.db #0x00
   3360 00                14476 	.db #0x00
   3361 00                14477 	.db #0x00
   3362 00                14478 	.db #0x00
   3363 00                14479 	.db #0x00
   3364 00                14480 	.db #0x00
   3365 00                14481 	.db #0x00
   3366 00                14482 	.db #0x00
   3367 00                14483 	.db #0x00
   3368 00                14484 	.db #0x00
   3369 00                14485 	.db #0x00
   336A 00                14486 	.db #0x00
   336B 00                14487 	.db #0x00
   336C 00                14488 	.db #0x00
   336D 00                14489 	.db #0x00
   336E                   14490 _JUDGEATTACK2:
   336E 00                14491 	.db #0x00
   336F 00                14492 	.db #0x00
   3370 00                14493 	.db #0x00
   3371 00                14494 	.db #0x00
   3372 00                14495 	.db #0x00
   3373 00                14496 	.db #0x00
   3374 00                14497 	.db #0x00
   3375 00                14498 	.db #0x00
   3376 00                14499 	.db #0x00
   3377 00                14500 	.db #0x00
   3378 00                14501 	.db #0x00
   3379 00                14502 	.db #0x00
   337A 00                14503 	.db #0x00
   337B 00                14504 	.db #0x00
   337C 00                14505 	.db #0x00
   337D 00                14506 	.db #0x00
   337E 00                14507 	.db #0x00
   337F 00                14508 	.db #0x00
   3380 00                14509 	.db #0x00
   3381 00                14510 	.db #0x00
   3382 00                14511 	.db #0x00
   3383 00                14512 	.db #0x00
   3384 00                14513 	.db #0x00
   3385 00                14514 	.db #0x00
   3386 00                14515 	.db #0x00
   3387 00                14516 	.db #0x00
   3388 00                14517 	.db #0x00
   3389 00                14518 	.db #0x00
   338A 00                14519 	.db #0x00
   338B 00                14520 	.db #0x00
   338C 03                14521 	.db #0x03
   338D 00                14522 	.db #0x00
   338E 00                14523 	.db #0x00
   338F 00                14524 	.db #0x00
   3390 00                14525 	.db #0x00
   3391 00                14526 	.db #0x00
   3392 00                14527 	.db #0x00
   3393 00                14528 	.db #0x00
   3394 00                14529 	.db #0x00
   3395 00                14530 	.db #0x00
   3396 00                14531 	.db #0x00
   3397 00                14532 	.db #0x00
   3398 00                14533 	.db #0x00
   3399 00                14534 	.db #0x00
   339A 00                14535 	.db #0x00
   339B 00                14536 	.db #0x00
   339C 00                14537 	.db #0x00
   339D 00                14538 	.db #0x00
   339E 00                14539 	.db #0x00
   339F 00                14540 	.db #0x00
   33A0 00                14541 	.db #0x00
   33A1 00                14542 	.db #0x00
   33A2 00                14543 	.db #0x00
   33A3 00                14544 	.db #0x00
   33A4 00                14545 	.db #0x00
   33A5 00                14546 	.db #0x00
   33A6 00                14547 	.db #0x00
   33A7 00                14548 	.db #0x00
   33A8 00                14549 	.db #0x00
   33A9 00                14550 	.db #0x00
   33AA FF                14551 	.db #0xFF
   33AB 00                14552 	.db #0x00
   33AC FF                14553 	.db #0xFF
   33AD 00                14554 	.db #0x00
   33AE 07                14555 	.db #0x07
   33AF 00                14556 	.db #0x00
   33B0 0E                14557 	.db #0x0E
   33B1 00                14558 	.db #0x00
   33B2 18                14559 	.db #0x18
   33B3 00                14560 	.db #0x00
   33B4 30                14561 	.db #0x30
   33B5 00                14562 	.db #0x00
   33B6 20                14563 	.db #0x20
   33B7 00                14564 	.db #0x00
   33B8 00                14565 	.db #0x00
   33B9 00                14566 	.db #0x00
   33BA 00                14567 	.db #0x00
   33BB 00                14568 	.db #0x00
   33BC 00                14569 	.db #0x00
   33BD 00                14570 	.db #0x00
   33BE 00                14571 	.db #0x00
   33BF 00                14572 	.db #0x00
   33C0 00                14573 	.db #0x00
   33C1 00                14574 	.db #0x00
   33C2 00                14575 	.db #0x00
   33C3 00                14576 	.db #0x00
   33C4 00                14577 	.db #0x00
   33C5 00                14578 	.db #0x00
   33C6 00                14579 	.db #0x00
   33C7 00                14580 	.db #0x00
   33C8 00                14581 	.db #0x00
   33C9 00                14582 	.db #0x00
   33CA 00                14583 	.db #0x00
   33CB 00                14584 	.db #0x00
   33CC 00                14585 	.db #0x00
   33CD 00                14586 	.db #0x00
   33CE FF                14587 	.db #0xFF
   33CF 00                14588 	.db #0x00
   33D0 00                14589 	.db #0x00
   33D1 00                14590 	.db #0x00
   33D2 3F                14591 	.db #0x3F
   33D3 3F                14592 	.db #0x3F
   33D4 7F                14593 	.db #0x7F
   33D5 41                14594 	.db #0x41
   33D6 7F                14595 	.db #0x7F
   33D7 4F                14596 	.db #0x4F
   33D8 70                14597 	.db #0x70
   33D9 5F                14598 	.db #0x5F
   33DA 71                14599 	.db #0x71
   33DB 5F                14600 	.db #0x5F
   33DC 70                14601 	.db #0x70
   33DD 5F                14602 	.db #0x5F
   33DE 70                14603 	.db #0x70
   33DF 5F                14604 	.db #0x5F
   33E0 7F                14605 	.db #0x7F
   33E1 7F                14606 	.db #0x7F
   33E2 0C                14607 	.db #0x0C
   33E3 0F                14608 	.db #0x0F
   33E4 0B                14609 	.db #0x0B
   33E5 0F                14610 	.db #0x0F
   33E6 0B                14611 	.db #0x0B
   33E7 0F                14612 	.db #0x0F
   33E8 3F                14613 	.db #0x3F
   33E9 3F                14614 	.db #0x3F
   33EA 27                14615 	.db #0x27
   33EB 3F                14616 	.db #0x3F
   33EC 38                14617 	.db #0x38
   33ED 38                14618 	.db #0x38
   33EE 00                14619 	.db #0x00
   33EF 00                14620 	.db #0x00
   33F0 00                14621 	.db #0x00
   33F1 00                14622 	.db #0x00
   33F2 00                14623 	.db #0x00
   33F3 00                14624 	.db #0x00
   33F4 00                14625 	.db #0x00
   33F5 00                14626 	.db #0x00
   33F6 00                14627 	.db #0x00
   33F7 00                14628 	.db #0x00
   33F8 00                14629 	.db #0x00
   33F9 00                14630 	.db #0x00
   33FA 00                14631 	.db #0x00
   33FB 00                14632 	.db #0x00
   33FC 00                14633 	.db #0x00
   33FD 00                14634 	.db #0x00
   33FE 00                14635 	.db #0x00
   33FF 00                14636 	.db #0x00
   3400 00                14637 	.db #0x00
   3401 00                14638 	.db #0x00
   3402 00                14639 	.db #0x00
   3403 00                14640 	.db #0x00
   3404 00                14641 	.db #0x00
   3405 00                14642 	.db #0x00
   3406 00                14643 	.db #0x00
   3407 00                14644 	.db #0x00
   3408 00                14645 	.db #0x00
   3409 00                14646 	.db #0x00
   340A FC                14647 	.db #0xFC
   340B 00                14648 	.db #0x00
   340C FF                14649 	.db #0xFF
   340D 00                14650 	.db #0x00
   340E 00                14651 	.db #0x00
   340F 00                14652 	.db #0x00
   3410 00                14653 	.db #0x00
   3411 00                14654 	.db #0x00
   3412 00                14655 	.db #0x00
   3413 00                14656 	.db #0x00
   3414 00                14657 	.db #0x00
   3415 00                14658 	.db #0x00
   3416 00                14659 	.db #0x00
   3417 00                14660 	.db #0x00
   3418 00                14661 	.db #0x00
   3419 00                14662 	.db #0x00
   341A 00                14663 	.db #0x00
   341B 00                14664 	.db #0x00
   341C 00                14665 	.db #0x00
   341D 00                14666 	.db #0x00
   341E 00                14667 	.db #0x00
   341F 00                14668 	.db #0x00
   3420 00                14669 	.db #0x00
   3421 00                14670 	.db #0x00
   3422 00                14671 	.db #0x00
   3423 00                14672 	.db #0x00
   3424 00                14673 	.db #0x00
   3425 00                14674 	.db #0x00
   3426 00                14675 	.db #0x00
   3427 00                14676 	.db #0x00
   3428 00                14677 	.db #0x00
   3429 00                14678 	.db #0x00
   342A 00                14679 	.db #0x00
   342B 00                14680 	.db #0x00
   342C 00                14681 	.db #0x00
   342D 00                14682 	.db #0x00
   342E FF                14683 	.db #0xFF
   342F 00                14684 	.db #0x00
   3430 3F                14685 	.db #0x3F
   3431 00                14686 	.db #0x00
   3432 03                14687 	.db #0x03
   3433 00                14688 	.db #0x00
   3434 00                14689 	.db #0x00
   3435 00                14690 	.db #0x00
   3436 C0                14691 	.db #0xC0
   3437 C0                14692 	.db #0xC0
   3438 A0                14693 	.db #0xA0
   3439 E0                14694 	.db #0xE0
   343A E0                14695 	.db #0xE0
   343B E0                14696 	.db #0xE0
   343C A0                14697 	.db #0xA0
   343D E0                14698 	.db #0xE0
   343E A0                14699 	.db #0xA0
   343F E0                14700 	.db #0xE0
   3440 E0                14701 	.db #0xE0
   3441 E0                14702 	.db #0xE0
   3442 60                14703 	.db #0x60
   3443 E0                14704 	.db #0xE0
   3444 A1                14705 	.db #0xA1
   3445 E1                14706 	.db #0xE1
   3446 FF                14707 	.db #0xFF
   3447 81                14708 	.db #0x81
   3448 F1                14709 	.db #0xF1
   3449 F1                14710 	.db #0xF1
   344A C8                14711 	.db #0xC8
   344B F8                14712 	.db #0xF8
   344C 3C                14713 	.db #0x3C
   344D 7C                14714 	.db #0x7C
   344E C0                14715 	.db #0xC0
   344F 00                14716 	.db #0x00
   3450 F0                14717 	.db #0xF0
   3451 00                14718 	.db #0x00
   3452 F8                14719 	.db #0xF8
   3453 00                14720 	.db #0x00
   3454 FC                14721 	.db #0xFC
   3455 00                14722 	.db #0x00
   3456 7E                14723 	.db #0x7E
   3457 00                14724 	.db #0x00
   3458 3F                14725 	.db #0x3F
   3459 00                14726 	.db #0x00
   345A 3F                14727 	.db #0x3F
   345B 00                14728 	.db #0x00
   345C 1F                14729 	.db #0x1F
   345D 00                14730 	.db #0x00
   345E 0F                14731 	.db #0x0F
   345F 00                14732 	.db #0x00
   3460 00                14733 	.db #0x00
   3461 0F                14734 	.db #0x0F
   3462 0F                14735 	.db #0x0F
   3463 0F                14736 	.db #0x0F
   3464 CF                14737 	.db #0xCF
   3465 CF                14738 	.db #0xCF
   3466 FF                14739 	.db #0xFF
   3467 CF                14740 	.db #0xCF
   3468 CF                14741 	.db #0xCF
   3469 CF                14742 	.db #0xCF
   346A 0F                14743 	.db #0x0F
   346B 0F                14744 	.db #0x0F
   346C 00                14745 	.db #0x00
   346D 0F                14746 	.db #0x0F
   346E                   14747 _JUDGEHURT:
   346E 00                14748 	.db #0x00
   346F 00                14749 	.db #0x00
   3470 00                14750 	.db #0x00
   3471 00                14751 	.db #0x00
   3472 00                14752 	.db #0x00
   3473 00                14753 	.db #0x00
   3474 00                14754 	.db #0x00
   3475 00                14755 	.db #0x00
   3476 00                14756 	.db #0x00
   3477 00                14757 	.db #0x00
   3478 00                14758 	.db #0x00
   3479 00                14759 	.db #0x00
   347A 00                14760 	.db #0x00
   347B 00                14761 	.db #0x00
   347C 00                14762 	.db #0x00
   347D 00                14763 	.db #0x00
   347E 00                14764 	.db #0x00
   347F 00                14765 	.db #0x00
   3480 00                14766 	.db #0x00
   3481 00                14767 	.db #0x00
   3482 00                14768 	.db #0x00
   3483 00                14769 	.db #0x00
   3484 00                14770 	.db #0x00
   3485 00                14771 	.db #0x00
   3486 00                14772 	.db #0x00
   3487 00                14773 	.db #0x00
   3488 00                14774 	.db #0x00
   3489 00                14775 	.db #0x00
   348A 00                14776 	.db #0x00
   348B 00                14777 	.db #0x00
   348C 00                14778 	.db #0x00
   348D 00                14779 	.db #0x00
   348E 00                14780 	.db #0x00
   348F 00                14781 	.db #0x00
   3490 00                14782 	.db #0x00
   3491 00                14783 	.db #0x00
   3492 00                14784 	.db #0x00
   3493 00                14785 	.db #0x00
   3494 00                14786 	.db #0x00
   3495 00                14787 	.db #0x00
   3496 00                14788 	.db #0x00
   3497 00                14789 	.db #0x00
   3498 00                14790 	.db #0x00
   3499 00                14791 	.db #0x00
   349A 00                14792 	.db #0x00
   349B 00                14793 	.db #0x00
   349C 00                14794 	.db #0x00
   349D 00                14795 	.db #0x00
   349E 00                14796 	.db #0x00
   349F 00                14797 	.db #0x00
   34A0 00                14798 	.db #0x00
   34A1 00                14799 	.db #0x00
   34A2 00                14800 	.db #0x00
   34A3 00                14801 	.db #0x00
   34A4 00                14802 	.db #0x00
   34A5 00                14803 	.db #0x00
   34A6 01                14804 	.db #0x01
   34A7 01                14805 	.db #0x01
   34A8 01                14806 	.db #0x01
   34A9 01                14807 	.db #0x01
   34AA 01                14808 	.db #0x01
   34AB 01                14809 	.db #0x01
   34AC 1F                14810 	.db #0x1F
   34AD 1F                14811 	.db #0x1F
   34AE 00                14812 	.db #0x00
   34AF 00                14813 	.db #0x00
   34B0 00                14814 	.db #0x00
   34B1 00                14815 	.db #0x00
   34B2 00                14816 	.db #0x00
   34B3 00                14817 	.db #0x00
   34B4 00                14818 	.db #0x00
   34B5 00                14819 	.db #0x00
   34B6 00                14820 	.db #0x00
   34B7 00                14821 	.db #0x00
   34B8 00                14822 	.db #0x00
   34B9 00                14823 	.db #0x00
   34BA 00                14824 	.db #0x00
   34BB 00                14825 	.db #0x00
   34BC 00                14826 	.db #0x00
   34BD 00                14827 	.db #0x00
   34BE 00                14828 	.db #0x00
   34BF 00                14829 	.db #0x00
   34C0 00                14830 	.db #0x00
   34C1 00                14831 	.db #0x00
   34C2 00                14832 	.db #0x00
   34C3 00                14833 	.db #0x00
   34C4 00                14834 	.db #0x00
   34C5 00                14835 	.db #0x00
   34C6 00                14836 	.db #0x00
   34C7 00                14837 	.db #0x00
   34C8 00                14838 	.db #0x00
   34C9 00                14839 	.db #0x00
   34CA 00                14840 	.db #0x00
   34CB 00                14841 	.db #0x00
   34CC 00                14842 	.db #0x00
   34CD 00                14843 	.db #0x00
   34CE 3F                14844 	.db #0x3F
   34CF 20                14845 	.db #0x20
   34D0 3F                14846 	.db #0x3F
   34D1 27                14847 	.db #0x27
   34D2 38                14848 	.db #0x38
   34D3 2F                14849 	.db #0x2F
   34D4 38                14850 	.db #0x38
   34D5 2F                14851 	.db #0x2F
   34D6 38                14852 	.db #0x38
   34D7 2F                14853 	.db #0x2F
   34D8 38                14854 	.db #0x38
   34D9 2F                14855 	.db #0x2F
   34DA 3F                14856 	.db #0x3F
   34DB 3F                14857 	.db #0x3F
   34DC 18                14858 	.db #0x18
   34DD 1F                14859 	.db #0x1F
   34DE 10                14860 	.db #0x10
   34DF 1F                14861 	.db #0x1F
   34E0 08                14862 	.db #0x08
   34E1 0F                14863 	.db #0x0F
   34E2 0F                14864 	.db #0x0F
   34E3 0F                14865 	.db #0x0F
   34E4 18                14866 	.db #0x18
   34E5 1F                14867 	.db #0x1F
   34E6 13                14868 	.db #0x13
   34E7 1F                14869 	.db #0x1F
   34E8 0C                14870 	.db #0x0C
   34E9 0F                14871 	.db #0x0F
   34EA 05                14872 	.db #0x05
   34EB 07                14873 	.db #0x07
   34EC 02                14874 	.db #0x02
   34ED 02                14875 	.db #0x02
   34EE 00                14876 	.db #0x00
   34EF 00                14877 	.db #0x00
   34F0 00                14878 	.db #0x00
   34F1 00                14879 	.db #0x00
   34F2 00                14880 	.db #0x00
   34F3 00                14881 	.db #0x00
   34F4 00                14882 	.db #0x00
   34F5 00                14883 	.db #0x00
   34F6 00                14884 	.db #0x00
   34F7 00                14885 	.db #0x00
   34F8 00                14886 	.db #0x00
   34F9 00                14887 	.db #0x00
   34FA 00                14888 	.db #0x00
   34FB 00                14889 	.db #0x00
   34FC 00                14890 	.db #0x00
   34FD 00                14891 	.db #0x00
   34FE 00                14892 	.db #0x00
   34FF 00                14893 	.db #0x00
   3500 00                14894 	.db #0x00
   3501 00                14895 	.db #0x00
   3502 00                14896 	.db #0x00
   3503 00                14897 	.db #0x00
   3504 00                14898 	.db #0x00
   3505 00                14899 	.db #0x00
   3506 C0                14900 	.db #0xC0
   3507 C0                14901 	.db #0xC0
   3508 CE                14902 	.db #0xCE
   3509 CE                14903 	.db #0xCE
   350A CE                14904 	.db #0xCE
   350B CE                14905 	.db #0xCE
   350C 8E                14906 	.db #0x8E
   350D 8E                14907 	.db #0x8E
   350E 00                14908 	.db #0x00
   350F 00                14909 	.db #0x00
   3510 00                14910 	.db #0x00
   3511 00                14911 	.db #0x00
   3512 00                14912 	.db #0x00
   3513 00                14913 	.db #0x00
   3514 00                14914 	.db #0x00
   3515 00                14915 	.db #0x00
   3516 00                14916 	.db #0x00
   3517 00                14917 	.db #0x00
   3518 00                14918 	.db #0x00
   3519 00                14919 	.db #0x00
   351A 00                14920 	.db #0x00
   351B 00                14921 	.db #0x00
   351C 00                14922 	.db #0x00
   351D 00                14923 	.db #0x00
   351E 00                14924 	.db #0x00
   351F 00                14925 	.db #0x00
   3520 00                14926 	.db #0x00
   3521 00                14927 	.db #0x00
   3522 00                14928 	.db #0x00
   3523 00                14929 	.db #0x00
   3524 00                14930 	.db #0x00
   3525 00                14931 	.db #0x00
   3526 00                14932 	.db #0x00
   3527 00                14933 	.db #0x00
   3528 00                14934 	.db #0x00
   3529 00                14935 	.db #0x00
   352A 00                14936 	.db #0x00
   352B 00                14937 	.db #0x00
   352C 00                14938 	.db #0x00
   352D 00                14939 	.db #0x00
   352E 80                14940 	.db #0x80
   352F 80                14941 	.db #0x80
   3530 E0                14942 	.db #0xE0
   3531 E0                14943 	.db #0xE0
   3532 F0                14944 	.db #0xF0
   3533 F0                14945 	.db #0xF0
   3534 F0                14946 	.db #0xF0
   3535 F0                14947 	.db #0xF0
   3536 50                14948 	.db #0x50
   3537 F0                14949 	.db #0xF0
   3538 50                14950 	.db #0x50
   3539 F0                14951 	.db #0xF0
   353A F0                14952 	.db #0xF0
   353B F0                14953 	.db #0xF0
   353C 60                14954 	.db #0x60
   353D E0                14955 	.db #0xE0
   353E 20                14956 	.db #0x20
   353F E0                14957 	.db #0xE0
   3540 40                14958 	.db #0x40
   3541 C0                14959 	.db #0xC0
   3542 C0                14960 	.db #0xC0
   3543 C0                14961 	.db #0xC0
   3544 60                14962 	.db #0x60
   3545 E0                14963 	.db #0xE0
   3546 2C                14964 	.db #0x2C
   3547 EC                14965 	.db #0xEC
   3548 F4                14966 	.db #0xF4
   3549 FC                14967 	.db #0xFC
   354A 28                14968 	.db #0x28
   354B 38                14969 	.db #0x38
   354C 10                14970 	.db #0x10
   354D 10                14971 	.db #0x10
   354E 00                14972 	.db #0x00
   354F 00                14973 	.db #0x00
   3550 00                14974 	.db #0x00
   3551 00                14975 	.db #0x00
   3552 00                14976 	.db #0x00
   3553 00                14977 	.db #0x00
   3554 00                14978 	.db #0x00
   3555 00                14979 	.db #0x00
   3556 00                14980 	.db #0x00
   3557 00                14981 	.db #0x00
   3558 00                14982 	.db #0x00
   3559 00                14983 	.db #0x00
   355A 00                14984 	.db #0x00
   355B 00                14985 	.db #0x00
   355C 00                14986 	.db #0x00
   355D 00                14987 	.db #0x00
   355E 00                14988 	.db #0x00
   355F 00                14989 	.db #0x00
   3560 00                14990 	.db #0x00
   3561 00                14991 	.db #0x00
   3562 00                14992 	.db #0x00
   3563 00                14993 	.db #0x00
   3564 00                14994 	.db #0x00
   3565 00                14995 	.db #0x00
   3566 00                14996 	.db #0x00
   3567 00                14997 	.db #0x00
   3568 00                14998 	.db #0x00
   3569 00                14999 	.db #0x00
   356A 00                15000 	.db #0x00
   356B 00                15001 	.db #0x00
   356C 00                15002 	.db #0x00
   356D 00                15003 	.db #0x00
   356E                   15004 _decors_data:
   356E 00                15005 	.db #0x00
   356F 00                15006 	.db #0x00
   3570 00                15007 	.db #0x00
   3571 00                15008 	.db #0x00
   3572 00                15009 	.db #0x00
   3573 00                15010 	.db #0x00
   3574 00                15011 	.db #0x00
   3575 00                15012 	.db #0x00
   3576 40                15013 	.db #0x40
   3577 00                15014 	.db #0x00
   3578 02                15015 	.db #0x02
   3579 00                15016 	.db #0x00
   357A 07                15017 	.db #0x07
   357B 00                15018 	.db #0x00
   357C 0F                15019 	.db #0x0F
   357D 00                15020 	.db #0x00
   357E 0F                15021 	.db #0x0F
   357F 00                15022 	.db #0x00
   3580 07                15023 	.db #0x07
   3581 00                15024 	.db #0x00
   3582 07                15025 	.db #0x07
   3583 00                15026 	.db #0x00
   3584 0E                15027 	.db #0x0E
   3585 00                15028 	.db #0x00
   3586 08                15029 	.db #0x08
   3587 00                15030 	.db #0x00
   3588 00                15031 	.db #0x00
   3589 00                15032 	.db #0x00
   358A 00                15033 	.db #0x00
   358B 00                15034 	.db #0x00
   358C 00                15035 	.db #0x00
   358D 00                15036 	.db #0x00
   358E 00                15037 	.db #0x00
   358F 00                15038 	.db #0x00
   3590 00                15039 	.db #0x00
   3591 00                15040 	.db #0x00
   3592 00                15041 	.db #0x00
   3593 00                15042 	.db #0x00
   3594 00                15043 	.db #0x00
   3595 00                15044 	.db #0x00
   3596 00                15045 	.db #0x00
   3597 00                15046 	.db #0x00
   3598 C0                15047 	.db #0xC0
   3599 00                15048 	.db #0x00
   359A F0                15049 	.db #0xF0
   359B 00                15050 	.db #0x00
   359C E0                15051 	.db #0xE0
   359D 00                15052 	.db #0x00
   359E C0                15053 	.db #0xC0
   359F 00                15054 	.db #0x00
   35A0 C0                15055 	.db #0xC0
   35A1 00                15056 	.db #0x00
   35A2 C0                15057 	.db #0xC0
   35A3 00                15058 	.db #0x00
   35A4 00                15059 	.db #0x00
   35A5 00                15060 	.db #0x00
   35A6 00                15061 	.db #0x00
   35A7 00                15062 	.db #0x00
   35A8 00                15063 	.db #0x00
   35A9 00                15064 	.db #0x00
   35AA 00                15065 	.db #0x00
   35AB 00                15066 	.db #0x00
   35AC 00                15067 	.db #0x00
   35AD 00                15068 	.db #0x00
   35AE 0F                15069 	.db #0x0F
   35AF 0F                15070 	.db #0x0F
   35B0 11                15071 	.db #0x11
   35B1 1E                15072 	.db #0x1E
   35B2 27                15073 	.db #0x27
   35B3 38                15074 	.db #0x38
   35B4 23                15075 	.db #0x23
   35B5 3C                15076 	.db #0x3C
   35B6 2F                15077 	.db #0x2F
   35B7 30                15078 	.db #0x30
   35B8 33                15079 	.db #0x33
   35B9 3C                15080 	.db #0x3C
   35BA 2F                15081 	.db #0x2F
   35BB 38                15082 	.db #0x38
   35BC 27                15083 	.db #0x27
   35BD 3F                15084 	.db #0x3F
   35BE 30                15085 	.db #0x30
   35BF 2F                15086 	.db #0x2F
   35C0 2F                15087 	.db #0x2F
   35C1 30                15088 	.db #0x30
   35C2 20                15089 	.db #0x20
   35C3 3F                15090 	.db #0x3F
   35C4 30                15091 	.db #0x30
   35C5 2F                15092 	.db #0x2F
   35C6 2F                15093 	.db #0x2F
   35C7 30                15094 	.db #0x30
   35C8 10                15095 	.db #0x10
   35C9 1F                15096 	.db #0x1F
   35CA 0C                15097 	.db #0x0C
   35CB 0F                15098 	.db #0x0F
   35CC 03                15099 	.db #0x03
   35CD 03                15100 	.db #0x03
   35CE F0                15101 	.db #0xF0
   35CF F0                15102 	.db #0xF0
   35D0 88                15103 	.db #0x88
   35D1 78                15104 	.db #0x78
   35D2 E4                15105 	.db #0xE4
   35D3 1C                15106 	.db #0x1C
   35D4 C4                15107 	.db #0xC4
   35D5 3C                15108 	.db #0x3C
   35D6 F4                15109 	.db #0xF4
   35D7 0C                15110 	.db #0x0C
   35D8 CC                15111 	.db #0xCC
   35D9 3C                15112 	.db #0x3C
   35DA F4                15113 	.db #0xF4
   35DB 1C                15114 	.db #0x1C
   35DC E4                15115 	.db #0xE4
   35DD FC                15116 	.db #0xFC
   35DE 0C                15117 	.db #0x0C
   35DF F4                15118 	.db #0xF4
   35E0 F4                15119 	.db #0xF4
   35E1 0C                15120 	.db #0x0C
   35E2 04                15121 	.db #0x04
   35E3 FC                15122 	.db #0xFC
   35E4 0C                15123 	.db #0x0C
   35E5 F4                15124 	.db #0xF4
   35E6 F4                15125 	.db #0xF4
   35E7 0C                15126 	.db #0x0C
   35E8 08                15127 	.db #0x08
   35E9 F8                15128 	.db #0xF8
   35EA 30                15129 	.db #0x30
   35EB F0                15130 	.db #0xF0
   35EC C0                15131 	.db #0xC0
   35ED C0                15132 	.db #0xC0
   35EE 00                15133 	.db #0x00
   35EF 00                15134 	.db #0x00
   35F0 00                15135 	.db #0x00
   35F1 00                15136 	.db #0x00
   35F2 00                15137 	.db #0x00
   35F3 00                15138 	.db #0x00
   35F4 00                15139 	.db #0x00
   35F5 00                15140 	.db #0x00
   35F6 0F                15141 	.db #0x0F
   35F7 00                15142 	.db #0x00
   35F8 1F                15143 	.db #0x1F
   35F9 00                15144 	.db #0x00
   35FA 1B                15145 	.db #0x1B
   35FB 00                15146 	.db #0x00
   35FC 1B                15147 	.db #0x1B
   35FD 00                15148 	.db #0x00
   35FE 1F                15149 	.db #0x1F
   35FF 00                15150 	.db #0x00
   3600 1F                15151 	.db #0x1F
   3601 00                15152 	.db #0x00
   3602 00                15153 	.db #0x00
   3603 00                15154 	.db #0x00
   3604 07                15155 	.db #0x07
   3605 00                15156 	.db #0x00
   3606 03                15157 	.db #0x03
   3607 00                15158 	.db #0x00
   3608 00                15159 	.db #0x00
   3609 00                15160 	.db #0x00
   360A 00                15161 	.db #0x00
   360B 00                15162 	.db #0x00
   360C 00                15163 	.db #0x00
   360D 00                15164 	.db #0x00
   360E 00                15165 	.db #0x00
   360F 00                15166 	.db #0x00
   3610 00                15167 	.db #0x00
   3611 00                15168 	.db #0x00
   3612 00                15169 	.db #0x00
   3613 00                15170 	.db #0x00
   3614 00                15171 	.db #0x00
   3615 00                15172 	.db #0x00
   3616 C0                15173 	.db #0xC0
   3617 00                15174 	.db #0x00
   3618 E0                15175 	.db #0xE0
   3619 00                15176 	.db #0x00
   361A 60                15177 	.db #0x60
   361B 00                15178 	.db #0x00
   361C 60                15179 	.db #0x60
   361D 00                15180 	.db #0x00
   361E E0                15181 	.db #0xE0
   361F 00                15182 	.db #0x00
   3620 E0                15183 	.db #0xE0
   3621 00                15184 	.db #0x00
   3622 00                15185 	.db #0x00
   3623 00                15186 	.db #0x00
   3624 80                15187 	.db #0x80
   3625 00                15188 	.db #0x00
   3626 00                15189 	.db #0x00
   3627 00                15190 	.db #0x00
   3628 00                15191 	.db #0x00
   3629 00                15192 	.db #0x00
   362A 00                15193 	.db #0x00
   362B 00                15194 	.db #0x00
   362C 00                15195 	.db #0x00
   362D 00                15196 	.db #0x00
   362E 00                15197 	.db #0x00
   362F 00                15198 	.db #0x00
   3630 00                15199 	.db #0x00
   3631 00                15200 	.db #0x00
   3632 00                15201 	.db #0x00
   3633 30                15202 	.db #0x30
   3634 00                15203 	.db #0x00
   3635 00                15204 	.db #0x00
   3636 00                15205 	.db #0x00
   3637 00                15206 	.db #0x00
   3638 00                15207 	.db #0x00
   3639 1C                15208 	.db #0x1C
   363A 00                15209 	.db #0x00
   363B 00                15210 	.db #0x00
   363C 00                15211 	.db #0x00
   363D 00                15212 	.db #0x00
   363E 00                15213 	.db #0x00
   363F 00                15214 	.db #0x00
   3640 00                15215 	.db #0x00
   3641 00                15216 	.db #0x00
   3642 00                15217 	.db #0x00
   3643 18                15218 	.db #0x18
   3644 00                15219 	.db #0x00
   3645 00                15220 	.db #0x00
   3646 00                15221 	.db #0x00
   3647 00                15222 	.db #0x00
   3648 00                15223 	.db #0x00
   3649 00                15224 	.db #0x00
   364A 00                15225 	.db #0x00
   364B 00                15226 	.db #0x00
   364C 00                15227 	.db #0x00
   364D 00                15228 	.db #0x00
   364E 00                15229 	.db #0x00
   364F 00                15230 	.db #0x00
   3650 00                15231 	.db #0x00
   3651 00                15232 	.db #0x00
   3652 00                15233 	.db #0x00
   3653 00                15234 	.db #0x00
   3654 00                15235 	.db #0x00
   3655 00                15236 	.db #0x00
   3656 00                15237 	.db #0x00
   3657 60                15238 	.db #0x60
   3658 00                15239 	.db #0x00
   3659 00                15240 	.db #0x00
   365A 00                15241 	.db #0x00
   365B 00                15242 	.db #0x00
   365C 00                15243 	.db #0x00
   365D 00                15244 	.db #0x00
   365E 00                15245 	.db #0x00
   365F 00                15246 	.db #0x00
   3660 00                15247 	.db #0x00
   3661 38                15248 	.db #0x38
   3662 00                15249 	.db #0x00
   3663 00                15250 	.db #0x00
   3664 00                15251 	.db #0x00
   3665 00                15252 	.db #0x00
   3666 00                15253 	.db #0x00
   3667 00                15254 	.db #0x00
   3668 00                15255 	.db #0x00
   3669 60                15256 	.db #0x60
   366A 00                15257 	.db #0x00
   366B 04                15258 	.db #0x04
   366C 00                15259 	.db #0x00
   366D 00                15260 	.db #0x00
   366E 00                15261 	.db #0x00
   366F 00                15262 	.db #0x00
   3670 00                15263 	.db #0x00
   3671 00                15264 	.db #0x00
   3672 00                15265 	.db #0x00
   3673 00                15266 	.db #0x00
   3674 00                15267 	.db #0x00
   3675 08                15268 	.db #0x08
   3676 00                15269 	.db #0x00
   3677 1C                15270 	.db #0x1C
   3678 03                15271 	.db #0x03
   3679 1C                15272 	.db #0x1C
   367A 13                15273 	.db #0x13
   367B 1C                15274 	.db #0x1C
   367C 13                15275 	.db #0x13
   367D 1C                15276 	.db #0x1C
   367E 10                15277 	.db #0x10
   367F 1C                15278 	.db #0x1C
   3680 00                15279 	.db #0x00
   3681 1C                15280 	.db #0x1C
   3682 00                15281 	.db #0x00
   3683 1C                15282 	.db #0x1C
   3684 00                15283 	.db #0x00
   3685 1C                15284 	.db #0x1C
   3686 00                15285 	.db #0x00
   3687 1C                15286 	.db #0x1C
   3688 00                15287 	.db #0x00
   3689 1C                15288 	.db #0x1C
   368A 00                15289 	.db #0x00
   368B 1C                15290 	.db #0x1C
   368C 00                15291 	.db #0x00
   368D 1C                15292 	.db #0x1C
   368E 00                15293 	.db #0x00
   368F 00                15294 	.db #0x00
   3690 00                15295 	.db #0x00
   3691 00                15296 	.db #0x00
   3692 00                15297 	.db #0x00
   3693 00                15298 	.db #0x00
   3694 00                15299 	.db #0x00
   3695 02                15300 	.db #0x02
   3696 00                15301 	.db #0x00
   3697 07                15302 	.db #0x07
   3698 F8                15303 	.db #0xF8
   3699 07                15304 	.db #0x07
   369A FC                15305 	.db #0xFC
   369B 07                15306 	.db #0x07
   369C FC                15307 	.db #0xFC
   369D 07                15308 	.db #0x07
   369E 04                15309 	.db #0x04
   369F 07                15310 	.db #0x07
   36A0 00                15311 	.db #0x00
   36A1 07                15312 	.db #0x07
   36A2 00                15313 	.db #0x00
   36A3 07                15314 	.db #0x07
   36A4 00                15315 	.db #0x00
   36A5 07                15316 	.db #0x07
   36A6 00                15317 	.db #0x00
   36A7 07                15318 	.db #0x07
   36A8 00                15319 	.db #0x00
   36A9 07                15320 	.db #0x07
   36AA 00                15321 	.db #0x00
   36AB 07                15322 	.db #0x07
   36AC 00                15323 	.db #0x00
   36AD 07                15324 	.db #0x07
   36AE 00                15325 	.db #0x00
   36AF 00                15326 	.db #0x00
   36B0 00                15327 	.db #0x00
   36B1 00                15328 	.db #0x00
   36B2 00                15329 	.db #0x00
   36B3 00                15330 	.db #0x00
   36B4 00                15331 	.db #0x00
   36B5 00                15332 	.db #0x00
   36B6 00                15333 	.db #0x00
   36B7 00                15334 	.db #0x00
   36B8 00                15335 	.db #0x00
   36B9 80                15336 	.db #0x80
   36BA 00                15337 	.db #0x00
   36BB 40                15338 	.db #0x40
   36BC 00                15339 	.db #0x00
   36BD 20                15340 	.db #0x20
   36BE 00                15341 	.db #0x00
   36BF 10                15342 	.db #0x10
   36C0 00                15343 	.db #0x00
   36C1 08                15344 	.db #0x08
   36C2 00                15345 	.db #0x00
   36C3 04                15346 	.db #0x04
   36C4 00                15347 	.db #0x00
   36C5 02                15348 	.db #0x02
   36C6 00                15349 	.db #0x00
   36C7 01                15350 	.db #0x01
   36C8 00                15351 	.db #0x00
   36C9 00                15352 	.db #0x00
   36CA 00                15353 	.db #0x00
   36CB 00                15354 	.db #0x00
   36CC 00                15355 	.db #0x00
   36CD 00                15356 	.db #0x00
   36CE 00                15357 	.db #0x00
   36CF 00                15358 	.db #0x00
   36D0 00                15359 	.db #0x00
   36D1 00                15360 	.db #0x00
   36D2 00                15361 	.db #0x00
   36D3 00                15362 	.db #0x00
   36D4 00                15363 	.db #0x00
   36D5 00                15364 	.db #0x00
   36D6 00                15365 	.db #0x00
   36D7 00                15366 	.db #0x00
   36D8 00                15367 	.db #0x00
   36D9 00                15368 	.db #0x00
   36DA 00                15369 	.db #0x00
   36DB 00                15370 	.db #0x00
   36DC 00                15371 	.db #0x00
   36DD 00                15372 	.db #0x00
   36DE 00                15373 	.db #0x00
   36DF 00                15374 	.db #0x00
   36E0 00                15375 	.db #0x00
   36E1 00                15376 	.db #0x00
   36E2 00                15377 	.db #0x00
   36E3 00                15378 	.db #0x00
   36E4 00                15379 	.db #0x00
   36E5 00                15380 	.db #0x00
   36E6 00                15381 	.db #0x00
   36E7 00                15382 	.db #0x00
   36E8 00                15383 	.db #0x00
   36E9 80                15384 	.db #0x80
   36EA 00                15385 	.db #0x00
   36EB 40                15386 	.db #0x40
   36EC 00                15387 	.db #0x00
   36ED 20                15388 	.db #0x20
   36EE E0                15389 	.db #0xE0
   36EF FF                15390 	.db #0xFF
   36F0 C0                15391 	.db #0xC0
   36F1 FF                15392 	.db #0xFF
   36F2 80                15393 	.db #0x80
   36F3 FF                15394 	.db #0xFF
   36F4 80                15395 	.db #0x80
   36F5 FF                15396 	.db #0xFF
   36F6 7F                15397 	.db #0x7F
   36F7 80                15398 	.db #0x80
   36F8 60                15399 	.db #0x60
   36F9 9F                15400 	.db #0x9F
   36FA 60                15401 	.db #0x60
   36FB 93                15402 	.db #0x93
   36FC 60                15403 	.db #0x60
   36FD 91                15404 	.db #0x91
   36FE 60                15405 	.db #0x60
   36FF 99                15406 	.db #0x99
   3700 60                15407 	.db #0x60
   3701 9F                15408 	.db #0x9F
   3702 7F                15409 	.db #0x7F
   3703 80                15410 	.db #0x80
   3704 7F                15411 	.db #0x7F
   3705 80                15412 	.db #0x80
   3706 7E                15413 	.db #0x7E
   3707 81                15414 	.db #0x81
   3708 7E                15415 	.db #0x7E
   3709 81                15416 	.db #0x81
   370A 7E                15417 	.db #0x7E
   370B 81                15418 	.db #0x81
   370C 7E                15419 	.db #0x7E
   370D 81                15420 	.db #0x81
   370E 07                15421 	.db #0x07
   370F FF                15422 	.db #0xFF
   3710 03                15423 	.db #0x03
   3711 FF                15424 	.db #0xFF
   3712 01                15425 	.db #0x01
   3713 FF                15426 	.db #0xFF
   3714 01                15427 	.db #0x01
   3715 FF                15428 	.db #0xFF
   3716 FE                15429 	.db #0xFE
   3717 01                15430 	.db #0x01
   3718 82                15431 	.db #0x82
   3719 7D                15432 	.db #0x7D
   371A 82                15433 	.db #0x82
   371B 4D                15434 	.db #0x4D
   371C 82                15435 	.db #0x82
   371D 45                15436 	.db #0x45
   371E 82                15437 	.db #0x82
   371F 65                15438 	.db #0x65
   3720 82                15439 	.db #0x82
   3721 7D                15440 	.db #0x7D
   3722 FE                15441 	.db #0xFE
   3723 01                15442 	.db #0x01
   3724 FE                15443 	.db #0xFE
   3725 01                15444 	.db #0x01
   3726 7E                15445 	.db #0x7E
   3727 81                15446 	.db #0x81
   3728 7E                15447 	.db #0x7E
   3729 81                15448 	.db #0x81
   372A FE                15449 	.db #0xFE
   372B 01                15450 	.db #0x01
   372C 7E                15451 	.db #0x7E
   372D 81                15452 	.db #0x81
   372E FC                15453 	.db #0xFC
   372F FF                15454 	.db #0xFF
   3730 F0                15455 	.db #0xF0
   3731 FF                15456 	.db #0xFF
   3732 E0                15457 	.db #0xE0
   3733 FF                15458 	.db #0xFF
   3734 80                15459 	.db #0x80
   3735 FF                15460 	.db #0xFF
   3736 7F                15461 	.db #0x7F
   3737 80                15462 	.db #0x80
   3738 6E                15463 	.db #0x6E
   3739 91                15464 	.db #0x91
   373A 44                15465 	.db #0x44
   373B AB                15466 	.db #0xAB
   373C 44                15467 	.db #0x44
   373D AB                15468 	.db #0xAB
   373E 46                15469 	.db #0x46
   373F A9                15470 	.db #0xA9
   3740 46                15471 	.db #0x46
   3741 A9                15472 	.db #0xA9
   3742 46                15473 	.db #0x46
   3743 A9                15474 	.db #0xA9
   3744 47                15475 	.db #0x47
   3745 B8                15476 	.db #0xB8
   3746 78                15477 	.db #0x78
   3747 87                15478 	.db #0x87
   3748 79                15479 	.db #0x79
   3749 86                15480 	.db #0x86
   374A 78                15481 	.db #0x78
   374B 87                15482 	.db #0x87
   374C 78                15483 	.db #0x78
   374D 87                15484 	.db #0x87
   374E 3F                15485 	.db #0x3F
   374F FF                15486 	.db #0xFF
   3750 0F                15487 	.db #0x0F
   3751 FF                15488 	.db #0xFF
   3752 07                15489 	.db #0x07
   3753 FF                15490 	.db #0xFF
   3754 01                15491 	.db #0x01
   3755 FF                15492 	.db #0xFF
   3756 FE                15493 	.db #0xFE
   3757 01                15494 	.db #0x01
   3758 76                15495 	.db #0x76
   3759 89                15496 	.db #0x89
   375A 22                15497 	.db #0x22
   375B D5                15498 	.db #0xD5
   375C 22                15499 	.db #0x22
   375D D5                15500 	.db #0xD5
   375E 62                15501 	.db #0x62
   375F 95                15502 	.db #0x95
   3760 62                15503 	.db #0x62
   3761 95                15504 	.db #0x95
   3762 62                15505 	.db #0x62
   3763 95                15506 	.db #0x95
   3764 E2                15507 	.db #0xE2
   3765 1D                15508 	.db #0x1D
   3766 1E                15509 	.db #0x1E
   3767 E1                15510 	.db #0xE1
   3768 9E                15511 	.db #0x9E
   3769 61                15512 	.db #0x61
   376A 1E                15513 	.db #0x1E
   376B E1                15514 	.db #0xE1
   376C 1E                15515 	.db #0x1E
   376D E1                15516 	.db #0xE1
   376E 00                15517 	.db #0x00
   376F FF                15518 	.db #0xFF
   3770 00                15519 	.db #0x00
   3771 FF                15520 	.db #0xFF
   3772 00                15521 	.db #0x00
   3773 FF                15522 	.db #0xFF
   3774 00                15523 	.db #0x00
   3775 FF                15524 	.db #0xFF
   3776 00                15525 	.db #0x00
   3777 FF                15526 	.db #0xFF
   3778 00                15527 	.db #0x00
   3779 FF                15528 	.db #0xFF
   377A 00                15529 	.db #0x00
   377B FF                15530 	.db #0xFF
   377C 00                15531 	.db #0x00
   377D 8C                15532 	.db #0x8C
   377E 00                15533 	.db #0x00
   377F 00                15534 	.db #0x00
   3780 00                15535 	.db #0x00
   3781 00                15536 	.db #0x00
   3782 00                15537 	.db #0x00
   3783 00                15538 	.db #0x00
   3784 00                15539 	.db #0x00
   3785 00                15540 	.db #0x00
   3786 00                15541 	.db #0x00
   3787 00                15542 	.db #0x00
   3788 00                15543 	.db #0x00
   3789 00                15544 	.db #0x00
   378A 00                15545 	.db #0x00
   378B 00                15546 	.db #0x00
   378C 00                15547 	.db #0x00
   378D 00                15548 	.db #0x00
   378E 00                15549 	.db #0x00
   378F FF                15550 	.db #0xFF
   3790 00                15551 	.db #0x00
   3791 FF                15552 	.db #0xFF
   3792 00                15553 	.db #0x00
   3793 FF                15554 	.db #0xFF
   3794 00                15555 	.db #0x00
   3795 FF                15556 	.db #0xFF
   3796 00                15557 	.db #0x00
   3797 FF                15558 	.db #0xFF
   3798 00                15559 	.db #0x00
   3799 FF                15560 	.db #0xFF
   379A 00                15561 	.db #0x00
   379B FF                15562 	.db #0xFF
   379C 00                15563 	.db #0x00
   379D 38                15564 	.db #0x38
   379E 00                15565 	.db #0x00
   379F 00                15566 	.db #0x00
   37A0 00                15567 	.db #0x00
   37A1 00                15568 	.db #0x00
   37A2 00                15569 	.db #0x00
   37A3 00                15570 	.db #0x00
   37A4 00                15571 	.db #0x00
   37A5 00                15572 	.db #0x00
   37A6 00                15573 	.db #0x00
   37A7 00                15574 	.db #0x00
   37A8 00                15575 	.db #0x00
   37A9 00                15576 	.db #0x00
   37AA 00                15577 	.db #0x00
   37AB 00                15578 	.db #0x00
   37AC 00                15579 	.db #0x00
   37AD 00                15580 	.db #0x00
   37AE 00                15581 	.db #0x00
   37AF FF                15582 	.db #0xFF
   37B0 00                15583 	.db #0x00
   37B1 FF                15584 	.db #0xFF
   37B2 00                15585 	.db #0x00
   37B3 FF                15586 	.db #0xFF
   37B4 00                15587 	.db #0x00
   37B5 FF                15588 	.db #0xFF
   37B6 00                15589 	.db #0x00
   37B7 FF                15590 	.db #0xFF
   37B8 00                15591 	.db #0x00
   37B9 FF                15592 	.db #0xFF
   37BA 00                15593 	.db #0x00
   37BB FF                15594 	.db #0xFF
   37BC 00                15595 	.db #0x00
   37BD FF                15596 	.db #0xFF
   37BE FF                15597 	.db #0xFF
   37BF FF                15598 	.db #0xFF
   37C0 FF                15599 	.db #0xFF
   37C1 FF                15600 	.db #0xFF
   37C2 FF                15601 	.db #0xFF
   37C3 FF                15602 	.db #0xFF
   37C4 FF                15603 	.db #0xFF
   37C5 FF                15604 	.db #0xFF
   37C6 FF                15605 	.db #0xFF
   37C7 FF                15606 	.db #0xFF
   37C8 FF                15607 	.db #0xFF
   37C9 FF                15608 	.db #0xFF
   37CA FF                15609 	.db #0xFF
   37CB FF                15610 	.db #0xFF
   37CC FF                15611 	.db #0xFF
   37CD FF                15612 	.db #0xFF
   37CE FF                15613 	.db #0xFF
   37CF 66                15614 	.db #0x66
   37D0 99                15615 	.db #0x99
   37D1 FF                15616 	.db #0xFF
   37D2 81                15617 	.db #0x81
   37D3 FF                15618 	.db #0xFF
   37D4 81                15619 	.db #0x81
   37D5 FF                15620 	.db #0xFF
   37D6 81                15621 	.db #0x81
   37D7 FF                15622 	.db #0xFF
   37D8 C3                15623 	.db #0xC3
   37D9 7E                15624 	.db #0x7E
   37DA E7                15625 	.db #0xE7
   37DB 3C                15626 	.db #0x3C
   37DC FF                15627 	.db #0xFF
   37DD 18                15628 	.db #0x18
   37DE FF                15629 	.db #0xFF
   37DF 66                15630 	.db #0x66
   37E0 99                15631 	.db #0x99
   37E1 99                15632 	.db #0x99
   37E2 81                15633 	.db #0x81
   37E3 81                15634 	.db #0x81
   37E4 81                15635 	.db #0x81
   37E5 81                15636 	.db #0x81
   37E6 81                15637 	.db #0x81
   37E7 81                15638 	.db #0x81
   37E8 C3                15639 	.db #0xC3
   37E9 42                15640 	.db #0x42
   37EA E7                15641 	.db #0xE7
   37EB 24                15642 	.db #0x24
   37EC FF                15643 	.db #0xFF
   37ED 18                15644 	.db #0x18
   37EE FF                15645 	.db #0xFF
   37EF 00                15646 	.db #0x00
   37F0 FF                15647 	.db #0xFF
   37F1 18                15648 	.db #0x18
   37F2 FF                15649 	.db #0xFF
   37F3 24                15650 	.db #0x24
   37F4 FF                15651 	.db #0xFF
   37F5 24                15652 	.db #0x24
   37F6 FF                15653 	.db #0xFF
   37F7 24                15654 	.db #0x24
   37F8 FF                15655 	.db #0xFF
   37F9 18                15656 	.db #0x18
   37FA FF                15657 	.db #0xFF
   37FB 00                15658 	.db #0x00
   37FC FF                15659 	.db #0xFF
   37FD 00                15660 	.db #0x00
   37FE FF                15661 	.db #0xFF
   37FF 00                15662 	.db #0x00
   3800 FF                15663 	.db #0xFF
   3801 18                15664 	.db #0x18
   3802 FF                15665 	.db #0xFF
   3803 08                15666 	.db #0x08
   3804 FF                15667 	.db #0xFF
   3805 08                15668 	.db #0x08
   3806 FF                15669 	.db #0xFF
   3807 08                15670 	.db #0x08
   3808 FF                15671 	.db #0xFF
   3809 08                15672 	.db #0x08
   380A FF                15673 	.db #0xFF
   380B 00                15674 	.db #0x00
   380C FF                15675 	.db #0xFF
   380D 00                15676 	.db #0x00
   380E FF                15677 	.db #0xFF
   380F 00                15678 	.db #0x00
   3810 FF                15679 	.db #0xFF
   3811 3C                15680 	.db #0x3C
   3812 FF                15681 	.db #0xFF
   3813 04                15682 	.db #0x04
   3814 FF                15683 	.db #0xFF
   3815 3C                15684 	.db #0x3C
   3816 FF                15685 	.db #0xFF
   3817 20                15686 	.db #0x20
   3818 FF                15687 	.db #0xFF
   3819 3C                15688 	.db #0x3C
   381A FF                15689 	.db #0xFF
   381B 00                15690 	.db #0x00
   381C FF                15691 	.db #0xFF
   381D 00                15692 	.db #0x00
   381E FF                15693 	.db #0xFF
   381F 00                15694 	.db #0x00
   3820 FF                15695 	.db #0xFF
   3821 3C                15696 	.db #0x3C
   3822 FF                15697 	.db #0xFF
   3823 04                15698 	.db #0x04
   3824 FF                15699 	.db #0xFF
   3825 3C                15700 	.db #0x3C
   3826 FF                15701 	.db #0xFF
   3827 04                15702 	.db #0x04
   3828 FF                15703 	.db #0xFF
   3829 3C                15704 	.db #0x3C
   382A FF                15705 	.db #0xFF
   382B 00                15706 	.db #0x00
   382C FF                15707 	.db #0xFF
   382D 00                15708 	.db #0x00
   382E FF                15709 	.db #0xFF
   382F 00                15710 	.db #0x00
   3830 FF                15711 	.db #0xFF
   3831 24                15712 	.db #0x24
   3832 FF                15713 	.db #0xFF
   3833 24                15714 	.db #0x24
   3834 FF                15715 	.db #0xFF
   3835 3C                15716 	.db #0x3C
   3836 FF                15717 	.db #0xFF
   3837 04                15718 	.db #0x04
   3838 FF                15719 	.db #0xFF
   3839 04                15720 	.db #0x04
   383A FF                15721 	.db #0xFF
   383B 00                15722 	.db #0x00
   383C FF                15723 	.db #0xFF
   383D 00                15724 	.db #0x00
   383E FF                15725 	.db #0xFF
   383F 00                15726 	.db #0x00
   3840 FF                15727 	.db #0xFF
   3841 3C                15728 	.db #0x3C
   3842 FF                15729 	.db #0xFF
   3843 20                15730 	.db #0x20
   3844 FF                15731 	.db #0xFF
   3845 3C                15732 	.db #0x3C
   3846 FF                15733 	.db #0xFF
   3847 04                15734 	.db #0x04
   3848 FF                15735 	.db #0xFF
   3849 3C                15736 	.db #0x3C
   384A FF                15737 	.db #0xFF
   384B 00                15738 	.db #0x00
   384C FF                15739 	.db #0xFF
   384D 00                15740 	.db #0x00
   384E FF                15741 	.db #0xFF
   384F 00                15742 	.db #0x00
   3850 FF                15743 	.db #0xFF
   3851 20                15744 	.db #0x20
   3852 FF                15745 	.db #0xFF
   3853 20                15746 	.db #0x20
   3854 FF                15747 	.db #0xFF
   3855 3C                15748 	.db #0x3C
   3856 FF                15749 	.db #0xFF
   3857 24                15750 	.db #0x24
   3858 FF                15751 	.db #0xFF
   3859 3C                15752 	.db #0x3C
   385A FF                15753 	.db #0xFF
   385B 00                15754 	.db #0x00
   385C FF                15755 	.db #0xFF
   385D 00                15756 	.db #0x00
   385E FF                15757 	.db #0xFF
   385F 00                15758 	.db #0x00
   3860 FF                15759 	.db #0xFF
   3861 3C                15760 	.db #0x3C
   3862 FF                15761 	.db #0xFF
   3863 04                15762 	.db #0x04
   3864 FF                15763 	.db #0xFF
   3865 04                15764 	.db #0x04
   3866 FF                15765 	.db #0xFF
   3867 04                15766 	.db #0x04
   3868 FF                15767 	.db #0xFF
   3869 04                15768 	.db #0x04
   386A FF                15769 	.db #0xFF
   386B 00                15770 	.db #0x00
   386C FF                15771 	.db #0xFF
   386D 00                15772 	.db #0x00
   386E FF                15773 	.db #0xFF
   386F 00                15774 	.db #0x00
   3870 FF                15775 	.db #0xFF
   3871 3C                15776 	.db #0x3C
   3872 FF                15777 	.db #0xFF
   3873 24                15778 	.db #0x24
   3874 FF                15779 	.db #0xFF
   3875 3C                15780 	.db #0x3C
   3876 FF                15781 	.db #0xFF
   3877 24                15782 	.db #0x24
   3878 FF                15783 	.db #0xFF
   3879 3C                15784 	.db #0x3C
   387A FF                15785 	.db #0xFF
   387B 00                15786 	.db #0x00
   387C FF                15787 	.db #0xFF
   387D 00                15788 	.db #0x00
   387E FF                15789 	.db #0xFF
   387F 00                15790 	.db #0x00
   3880 FF                15791 	.db #0xFF
   3881 3C                15792 	.db #0x3C
   3882 FF                15793 	.db #0xFF
   3883 24                15794 	.db #0x24
   3884 FF                15795 	.db #0xFF
   3885 3C                15796 	.db #0x3C
   3886 FF                15797 	.db #0xFF
   3887 04                15798 	.db #0x04
   3888 FF                15799 	.db #0xFF
   3889 3C                15800 	.db #0x3C
   388A FF                15801 	.db #0xFF
   388B 00                15802 	.db #0x00
   388C FF                15803 	.db #0xFF
   388D 00                15804 	.db #0x00
   388E FF                15805 	.db #0xFF
   388F FF                15806 	.db #0xFF
   3890 7F                15807 	.db #0x7F
   3891 FF                15808 	.db #0xFF
   3892 FF                15809 	.db #0xFF
   3893 C0                15810 	.db #0xC0
   3894 FF                15811 	.db #0xFF
   3895 CF                15812 	.db #0xCF
   3896 F0                15813 	.db #0xF0
   3897 DF                15814 	.db #0xDF
   3898 F0                15815 	.db #0xF0
   3899 DF                15816 	.db #0xDF
   389A F0                15817 	.db #0xF0
   389B DF                15818 	.db #0xDF
   389C F0                15819 	.db #0xF0
   389D DF                15820 	.db #0xDF
   389E F0                15821 	.db #0xF0
   389F DF                15822 	.db #0xDF
   38A0 F0                15823 	.db #0xF0
   38A1 FF                15824 	.db #0xFF
   38A2 90                15825 	.db #0x90
   38A3 9F                15826 	.db #0x9F
   38A4 B0                15827 	.db #0xB0
   38A5 BF                15828 	.db #0xBF
   38A6 DF                15829 	.db #0xDF
   38A7 FF                15830 	.db #0xFF
   38A8 88                15831 	.db #0x88
   38A9 FF                15832 	.db #0xFF
   38AA 48                15833 	.db #0x48
   38AB FF                15834 	.db #0xFF
   38AC 3F                15835 	.db #0x3F
   38AD FF                15836 	.db #0xFF
   38AE FF                15837 	.db #0xFF
   38AF FF                15838 	.db #0xFF
   38B0 E2                15839 	.db #0xE2
   38B1 E3                15840 	.db #0xE3
   38B2 E1                15841 	.db #0xE1
   38B3 21                15842 	.db #0x21
   38B4 F9                15843 	.db #0xF9
   38B5 F9                15844 	.db #0xF9
   38B6 35                15845 	.db #0x35
   38B7 FD                15846 	.db #0xFD
   38B8 FD                15847 	.db #0xFD
   38B9 FD                15848 	.db #0xFD
   38BA FD                15849 	.db #0xFD
   38BB B5                15850 	.db #0xB5
   38BC FD                15851 	.db #0xFD
   38BD FD                15852 	.db #0xFD
   38BE 35                15853 	.db #0x35
   38BF FD                15854 	.db #0xFD
   38C0 35                15855 	.db #0x35
   38C1 FD                15856 	.db #0xFD
   38C2 35                15857 	.db #0x35
   38C3 FD                15858 	.db #0xFD
   38C4 37                15859 	.db #0x37
   38C5 FF                15860 	.db #0xFF
   38C6 FD                15861 	.db #0xFD
   38C7 FF                15862 	.db #0xFF
   38C8 09                15863 	.db #0x09
   38C9 FF                15864 	.db #0xFF
   38CA 0A                15865 	.db #0x0A
   38CB FF                15866 	.db #0xFF
   38CC FC                15867 	.db #0xFC
   38CD FF                15868 	.db #0xFF
   38CE FF                15869 	.db #0xFF
   38CF FF                15870 	.db #0xFF
   38D0 E2                15871 	.db #0xE2
   38D1 E3                15872 	.db #0xE3
   38D2 E1                15873 	.db #0xE1
   38D3 21                15874 	.db #0x21
   38D4 F9                15875 	.db #0xF9
   38D5 F9                15876 	.db #0xF9
   38D6 35                15877 	.db #0x35
   38D7 FD                15878 	.db #0xFD
   38D8 FD                15879 	.db #0xFD
   38D9 FD                15880 	.db #0xFD
   38DA FD                15881 	.db #0xFD
   38DB 05                15882 	.db #0x05
   38DC FD                15883 	.db #0xFD
   38DD FD                15884 	.db #0xFD
   38DE FF                15885 	.db #0xFF
   38DF FF                15886 	.db #0xFF
   38E0 E2                15887 	.db #0xE2
   38E1 E3                15888 	.db #0xE3
   38E2 E1                15889 	.db #0xE1
   38E3 21                15890 	.db #0x21
   38E4 F9                15891 	.db #0xF9
   38E5 F9                15892 	.db #0xF9
   38E6 35                15893 	.db #0x35
   38E7 FD                15894 	.db #0xFD
   38E8 FD                15895 	.db #0xFD
   38E9 FD                15896 	.db #0xFD
   38EA FD                15897 	.db #0xFD
   38EB D9                15898 	.db #0xD9
   38EC FD                15899 	.db #0xFD
   38ED FD                15900 	.db #0xFD
   38EE FF                15901 	.db #0xFF
   38EF FF                15902 	.db #0xFF
   38F0 E2                15903 	.db #0xE2
   38F1 E3                15904 	.db #0xE3
   38F2 E1                15905 	.db #0xE1
   38F3 21                15906 	.db #0x21
   38F4 F9                15907 	.db #0xF9
   38F5 F9                15908 	.db #0xF9
   38F6 35                15909 	.db #0x35
   38F7 FD                15910 	.db #0xFD
   38F8 FD                15911 	.db #0xFD
   38F9 FD                15912 	.db #0xFD
   38FA FD                15913 	.db #0xFD
   38FB B5                15914 	.db #0xB5
   38FC FD                15915 	.db #0xFD
   38FD 25                15916 	.db #0x25
   38FE F7                15917 	.db #0xF7
   38FF 88                15918 	.db #0x88
   3900 F7                15919 	.db #0xF7
   3901 88                15920 	.db #0x88
   3902 F7                15921 	.db #0xF7
   3903 88                15922 	.db #0x88
   3904 F7                15923 	.db #0xF7
   3905 88                15924 	.db #0x88
   3906 F7                15925 	.db #0xF7
   3907 88                15926 	.db #0x88
   3908 F7                15927 	.db #0xF7
   3909 88                15928 	.db #0x88
   390A F7                15929 	.db #0xF7
   390B 88                15930 	.db #0x88
   390C FF                15931 	.db #0xFF
   390D 80                15932 	.db #0x80
   390E 7F                15933 	.db #0x7F
   390F 7F                15934 	.db #0x7F
   3910 FF                15935 	.db #0xFF
   3911 80                15936 	.db #0x80
   3912 FF                15937 	.db #0xFF
   3913 80                15938 	.db #0x80
   3914 C1                15939 	.db #0xC1
   3915 BE                15940 	.db #0xBE
   3916 C1                15941 	.db #0xC1
   3917 BE                15942 	.db #0xBE
   3918 C1                15943 	.db #0xC1
   3919 BE                15944 	.db #0xBE
   391A F7                15945 	.db #0xF7
   391B 88                15946 	.db #0x88
   391C F7                15947 	.db #0xF7
   391D 88                15948 	.db #0x88
   391E EF                15949 	.db #0xEF
   391F 11                15950 	.db #0x11
   3920 EF                15951 	.db #0xEF
   3921 11                15952 	.db #0x11
   3922 83                15953 	.db #0x83
   3923 7D                15954 	.db #0x7D
   3924 83                15955 	.db #0x83
   3925 7D                15956 	.db #0x7D
   3926 83                15957 	.db #0x83
   3927 7D                15958 	.db #0x7D
   3928 FF                15959 	.db #0xFF
   3929 01                15960 	.db #0x01
   392A FF                15961 	.db #0xFF
   392B 01                15962 	.db #0x01
   392C FF                15963 	.db #0xFF
   392D 01                15964 	.db #0x01
   392E FE                15965 	.db #0xFE
   392F FE                15966 	.db #0xFE
   3930 FF                15967 	.db #0xFF
   3931 01                15968 	.db #0x01
   3932 EF                15969 	.db #0xEF
   3933 11                15970 	.db #0x11
   3934 EF                15971 	.db #0xEF
   3935 11                15972 	.db #0x11
   3936 EF                15973 	.db #0xEF
   3937 11                15974 	.db #0x11
   3938 EF                15975 	.db #0xEF
   3939 11                15976 	.db #0x11
   393A EF                15977 	.db #0xEF
   393B 11                15978 	.db #0x11
   393C EF                15979 	.db #0xEF
   393D 11                15980 	.db #0x11
   393E FF                15981 	.db #0xFF
   393F FF                15982 	.db #0xFF
   3940 FF                15983 	.db #0xFF
   3941 00                15984 	.db #0x00
   3942 FF                15985 	.db #0xFF
   3943 00                15986 	.db #0x00
   3944 FF                15987 	.db #0xFF
   3945 00                15988 	.db #0x00
   3946 FF                15989 	.db #0xFF
   3947 00                15990 	.db #0x00
   3948 FF                15991 	.db #0xFF
   3949 00                15992 	.db #0x00
   394A FF                15993 	.db #0xFF
   394B 00                15994 	.db #0x00
   394C FF                15995 	.db #0xFF
   394D 00                15996 	.db #0x00
   394E FF                15997 	.db #0xFF
   394F 00                15998 	.db #0x00
   3950 FF                15999 	.db #0xFF
   3951 00                16000 	.db #0x00
   3952 FF                16001 	.db #0xFF
   3953 00                16002 	.db #0x00
   3954 FF                16003 	.db #0xFF
   3955 00                16004 	.db #0x00
   3956 FF                16005 	.db #0xFF
   3957 00                16006 	.db #0x00
   3958 FF                16007 	.db #0xFF
   3959 00                16008 	.db #0x00
   395A FF                16009 	.db #0xFF
   395B 00                16010 	.db #0x00
   395C FF                16011 	.db #0xFF
   395D 00                16012 	.db #0x00
   395E FF                16013 	.db #0xFF
   395F 7E                16014 	.db #0x7E
   3960 81                16015 	.db #0x81
   3961 81                16016 	.db #0x81
   3962 A5                16017 	.db #0xA5
   3963 A5                16018 	.db #0xA5
   3964 81                16019 	.db #0x81
   3965 81                16020 	.db #0x81
   3966 81                16021 	.db #0x81
   3967 81                16022 	.db #0x81
   3968 FF                16023 	.db #0xFF
   3969 FF                16024 	.db #0xFF
   396A FF                16025 	.db #0xFF
   396B FF                16026 	.db #0xFF
   396C FF                16027 	.db #0xFF
   396D 7E                16028 	.db #0x7E
   396E 81                16029 	.db #0x81
   396F 81                16030 	.db #0x81
   3970 E7                16031 	.db #0xE7
   3971 E7                16032 	.db #0xE7
   3972 E7                16033 	.db #0xE7
   3973 E7                16034 	.db #0xE7
   3974 E7                16035 	.db #0xE7
   3975 E7                16036 	.db #0xE7
   3976 E7                16037 	.db #0xE7
   3977 E7                16038 	.db #0xE7
   3978 E7                16039 	.db #0xE7
   3979 E7                16040 	.db #0xE7
   397A E7                16041 	.db #0xE7
   397B E7                16042 	.db #0xE7
   397C 81                16043 	.db #0x81
   397D 81                16044 	.db #0x81
   397E 83                16045 	.db #0x83
   397F 83                16046 	.db #0x83
   3980 BD                16047 	.db #0xBD
   3981 BD                16048 	.db #0xBD
   3982 BD                16049 	.db #0xBD
   3983 BD                16050 	.db #0xBD
   3984 BD                16051 	.db #0xBD
   3985 BD                16052 	.db #0xBD
   3986 BD                16053 	.db #0xBD
   3987 BD                16054 	.db #0xBD
   3988 BD                16055 	.db #0xBD
   3989 BD                16056 	.db #0xBD
   398A BD                16057 	.db #0xBD
   398B BD                16058 	.db #0xBD
   398C BD                16059 	.db #0xBD
   398D BD                16060 	.db #0xBD
   398E 83                16061 	.db #0x83
   398F 83                16062 	.db #0x83
   3990 BD                16063 	.db #0xBD
   3991 BD                16064 	.db #0xBD
   3992 BD                16065 	.db #0xBD
   3993 BD                16066 	.db #0xBD
   3994 C1                16067 	.db #0xC1
   3995 C1                16068 	.db #0xC1
   3996 FD                16069 	.db #0xFD
   3997 FD                16070 	.db #0xFD
   3998 FD                16071 	.db #0xFD
   3999 FD                16072 	.db #0xFD
   399A FD                16073 	.db #0xFD
   399B FD                16074 	.db #0xFD
   399C FD                16075 	.db #0xFD
   399D FD                16076 	.db #0xFD
   399E BD                16077 	.db #0xBD
   399F BD                16078 	.db #0xBD
   39A0 BD                16079 	.db #0xBD
   39A1 BD                16080 	.db #0xBD
   39A2 BD                16081 	.db #0xBD
   39A3 BD                16082 	.db #0xBD
   39A4 BD                16083 	.db #0xBD
   39A5 BD                16084 	.db #0xBD
   39A6 BD                16085 	.db #0xBD
   39A7 BD                16086 	.db #0xBD
   39A8 BD                16087 	.db #0xBD
   39A9 BD                16088 	.db #0xBD
   39AA BD                16089 	.db #0xBD
   39AB BD                16090 	.db #0xBD
   39AC 81                16091 	.db #0x81
   39AD 81                16092 	.db #0x81
   39AE C1                16093 	.db #0xC1
   39AF C1                16094 	.db #0xC1
   39B0 BF                16095 	.db #0xBF
   39B1 BF                16096 	.db #0xBF
   39B2 DF                16097 	.db #0xDF
   39B3 DF                16098 	.db #0xDF
   39B4 EF                16099 	.db #0xEF
   39B5 EF                16100 	.db #0xEF
   39B6 F7                16101 	.db #0xF7
   39B7 F7                16102 	.db #0xF7
   39B8 FB                16103 	.db #0xFB
   39B9 FB                16104 	.db #0xFB
   39BA FD                16105 	.db #0xFD
   39BB FD                16106 	.db #0xFD
   39BC 83                16107 	.db #0x83
   39BD 83                16108 	.db #0x83
   39BE 81                16109 	.db #0x81
   39BF 81                16110 	.db #0x81
   39C0 E7                16111 	.db #0xE7
   39C1 E7                16112 	.db #0xE7
   39C2 E7                16113 	.db #0xE7
   39C3 E7                16114 	.db #0xE7
   39C4 E7                16115 	.db #0xE7
   39C5 E7                16116 	.db #0xE7
   39C6 E7                16117 	.db #0xE7
   39C7 E7                16118 	.db #0xE7
   39C8 E7                16119 	.db #0xE7
   39C9 E7                16120 	.db #0xE7
   39CA E7                16121 	.db #0xE7
   39CB E7                16122 	.db #0xE7
   39CC E7                16123 	.db #0xE7
   39CD E7                16124 	.db #0xE7
   39CE 81                16125 	.db #0x81
   39CF 81                16126 	.db #0x81
   39D0 BD                16127 	.db #0xBD
   39D1 BD                16128 	.db #0xBD
   39D2 BD                16129 	.db #0xBD
   39D3 BD                16130 	.db #0xBD
   39D4 BD                16131 	.db #0xBD
   39D5 BD                16132 	.db #0xBD
   39D6 BD                16133 	.db #0xBD
   39D7 BD                16134 	.db #0xBD
   39D8 BD                16135 	.db #0xBD
   39D9 BD                16136 	.db #0xBD
   39DA BD                16137 	.db #0xBD
   39DB BD                16138 	.db #0xBD
   39DC 81                16139 	.db #0x81
   39DD 81                16140 	.db #0x81
   39DE FF                16141 	.db #0xFF
   39DF FF                16142 	.db #0xFF
   39E0 FF                16143 	.db #0xFF
   39E1 FF                16144 	.db #0xFF
   39E2 FF                16145 	.db #0xFF
   39E3 1F                16146 	.db #0x1F
   39E4 FF                16147 	.db #0xFF
   39E5 5F                16148 	.db #0x5F
   39E6 FF                16149 	.db #0xFF
   39E7 13                16150 	.db #0x13
   39E8 FF                16151 	.db #0xFF
   39E9 75                16152 	.db #0x75
   39EA FF                16153 	.db #0xFF
   39EB 73                16154 	.db #0x73
   39EC FF                16155 	.db #0xFF
   39ED 75                16156 	.db #0x75
   39EE FF                16157 	.db #0xFF
   39EF FF                16158 	.db #0xFF
   39F0 FF                16159 	.db #0xFF
   39F1 FF                16160 	.db #0xFF
   39F2 FF                16161 	.db #0xFF
   39F3 FF                16162 	.db #0xFF
   39F4 FF                16163 	.db #0xFF
   39F5 B9                16164 	.db #0xB9
   39F6 FF                16165 	.db #0xFF
   39F7 57                16166 	.db #0x57
   39F8 FF                16167 	.db #0xFF
   39F9 1B                16168 	.db #0x1B
   39FA FF                16169 	.db #0xFF
   39FB 7D                16170 	.db #0x7D
   39FC FF                16171 	.db #0xFF
   39FD 93                16172 	.db #0x93
   39FE FF                16173 	.db #0xFF
   39FF FF                16174 	.db #0xFF
   3A00 FF                16175 	.db #0xFF
   3A01 FF                16176 	.db #0xFF
   3A02 FF                16177 	.db #0xFF
   3A03 FF                16178 	.db #0xFF
   3A04 FF                16179 	.db #0xFF
   3A05 9F                16180 	.db #0x9F
   3A06 FF                16181 	.db #0xFF
   3A07 7F                16182 	.db #0x7F
   3A08 FF                16183 	.db #0xFF
   3A09 BF                16184 	.db #0xBF
   3A0A FF                16185 	.db #0xFF
   3A0B DF                16186 	.db #0xDF
   3A0C FF                16187 	.db #0xFF
   3A0D 3F                16188 	.db #0x3F
   3A0E FF                16189 	.db #0xFF
   3A0F FF                16190 	.db #0xFF
   3A10 FF                16191 	.db #0xFF
   3A11 FF                16192 	.db #0xFF
   3A12 FF                16193 	.db #0xFF
   3A13 9F                16194 	.db #0x9F
   3A14 FF                16195 	.db #0xFF
   3A15 7F                16196 	.db #0x7F
   3A16 FF                16197 	.db #0xFF
   3A17 B1                16198 	.db #0xB1
   3A18 FF                16199 	.db #0xFF
   3A19 DB                16200 	.db #0xDB
   3A1A FF                16201 	.db #0xFF
   3A1B DB                16202 	.db #0xDB
   3A1C FF                16203 	.db #0xFF
   3A1D 3B                16204 	.db #0x3B
   3A1E FF                16205 	.db #0xFF
   3A1F FF                16206 	.db #0xFF
   3A20 FF                16207 	.db #0xFF
   3A21 FF                16208 	.db #0xFF
   3A22 FF                16209 	.db #0xFF
   3A23 FF                16210 	.db #0xFF
   3A24 FF                16211 	.db #0xFF
   3A25 FF                16212 	.db #0xFF
   3A26 FF                16213 	.db #0xFF
   3A27 13                16214 	.db #0x13
   3A28 FF                16215 	.db #0xFF
   3A29 55                16216 	.db #0x55
   3A2A FF                16217 	.db #0xFF
   3A2B 13                16218 	.db #0x13
   3A2C FF                16219 	.db #0xFF
   3A2D 55                16220 	.db #0x55
   3A2E FF                16221 	.db #0xFF
   3A2F FF                16222 	.db #0xFF
   3A30 FF                16223 	.db #0xFF
   3A31 FF                16224 	.db #0xFF
   3A32 FF                16225 	.db #0xFF
   3A33 FF                16226 	.db #0xFF
   3A34 FF                16227 	.db #0xFF
   3A35 FF                16228 	.db #0xFF
   3A36 FF                16229 	.db #0xFF
   3A37 15                16230 	.db #0x15
   3A38 FF                16231 	.db #0xFF
   3A39 B5                16232 	.db #0xB5
   3A3A FF                16233 	.db #0xFF
   3A3B BF                16234 	.db #0xBF
   3A3C FF                16235 	.db #0xFF
   3A3D B5                16236 	.db #0xB5
   3A3E 83                16237 	.db #0x83
   3A3F 7C                16238 	.db #0x7C
   3A40 81                16239 	.db #0x81
   3A41 46                16240 	.db #0x46
   3A42 81                16241 	.db #0x81
   3A43 62                16242 	.db #0x62
   3A44 C1                16243 	.db #0xC1
   3A45 32                16244 	.db #0x32
   3A46 E1                16245 	.db #0xE1
   3A47 12                16246 	.db #0x12
   3A48 C1                16247 	.db #0xC1
   3A49 32                16248 	.db #0x32
   3A4A 81                16249 	.db #0x81
   3A4B 66                16250 	.db #0x66
   3A4C 03                16251 	.db #0x03
   3A4D FC                16252 	.db #0xFC
   3A4E FF                16253 	.db #0xFF
   3A4F 7E                16254 	.db #0x7E
   3A50 81                16255 	.db #0x81
   3A51 81                16256 	.db #0x81
   3A52 A5                16257 	.db #0xA5
   3A53 A5                16258 	.db #0xA5
   3A54 A5                16259 	.db #0xA5
   3A55 A5                16260 	.db #0xA5
   3A56 81                16261 	.db #0x81
   3A57 81                16262 	.db #0x81
   3A58 BD                16263 	.db #0xBD
   3A59 BD                16264 	.db #0xBD
   3A5A BD                16265 	.db #0xBD
   3A5B BD                16266 	.db #0xBD
   3A5C FF                16267 	.db #0xFF
   3A5D 7E                16268 	.db #0x7E
   3A5E FF                16269 	.db #0xFF
   3A5F FF                16270 	.db #0xFF
   3A60 FF                16271 	.db #0xFF
   3A61 FF                16272 	.db #0xFF
   3A62 FF                16273 	.db #0xFF
   3A63 FF                16274 	.db #0xFF
   3A64 FF                16275 	.db #0xFF
   3A65 11                16276 	.db #0x11
   3A66 FF                16277 	.db #0xFF
   3A67 75                16278 	.db #0x75
   3A68 FF                16279 	.db #0xFF
   3A69 51                16280 	.db #0x51
   3A6A FF                16281 	.db #0xFF
   3A6B 55                16282 	.db #0x55
   3A6C FF                16283 	.db #0xFF
   3A6D 15                16284 	.db #0x15
   3A6E FF                16285 	.db #0xFF
   3A6F FF                16286 	.db #0xFF
   3A70 FF                16287 	.db #0xFF
   3A71 FF                16288 	.db #0xFF
   3A72 FF                16289 	.db #0xFF
   3A73 FF                16290 	.db #0xFF
   3A74 FF                16291 	.db #0xFF
   3A75 04                16292 	.db #0x04
   3A76 FF                16293 	.db #0xFF
   3A77 55                16294 	.db #0x55
   3A78 FF                16295 	.db #0xFF
   3A79 54                16296 	.db #0x54
   3A7A FF                16297 	.db #0xFF
   3A7B 55                16298 	.db #0x55
   3A7C FF                16299 	.db #0xFF
   3A7D 54                16300 	.db #0x54
   3A7E FF                16301 	.db #0xFF
   3A7F FF                16302 	.db #0xFF
   3A80 FF                16303 	.db #0xFF
   3A81 FF                16304 	.db #0xFF
   3A82 FF                16305 	.db #0xFF
   3A83 FF                16306 	.db #0xFF
   3A84 FF                16307 	.db #0xFF
   3A85 71                16308 	.db #0x71
   3A86 FF                16309 	.db #0xFF
   3A87 F5                16310 	.db #0xF5
   3A88 FF                16311 	.db #0xFF
   3A89 75                16312 	.db #0x75
   3A8A FF                16313 	.db #0xFF
   3A8B F5                16314 	.db #0xF5
   3A8C FF                16315 	.db #0xFF
   3A8D 71                16316 	.db #0x71
   3A8E FF                16317 	.db #0xFF
   3A8F FF                16318 	.db #0xFF
   3A90 FF                16319 	.db #0xFF
   3A91 FF                16320 	.db #0xFF
   3A92 FF                16321 	.db #0xFF
   3A93 FF                16322 	.db #0xFF
   3A94 FF                16323 	.db #0xFF
   3A95 51                16324 	.db #0x51
   3A96 FF                16325 	.db #0xFF
   3A97 57                16326 	.db #0x57
   3A98 FF                16327 	.db #0xFF
   3A99 51                16328 	.db #0x51
   3A9A FF                16329 	.db #0xFF
   3A9B 57                16330 	.db #0x57
   3A9C FF                16331 	.db #0xFF
   3A9D B1                16332 	.db #0xB1
   3A9E FF                16333 	.db #0xFF
   3A9F FF                16334 	.db #0xFF
   3AA0 FF                16335 	.db #0xFF
   3AA1 FF                16336 	.db #0xFF
   3AA2 FF                16337 	.db #0xFF
   3AA3 FF                16338 	.db #0xFF
   3AA4 FF                16339 	.db #0xFF
   3AA5 15                16340 	.db #0x15
   3AA6 FF                16341 	.db #0xFF
   3AA7 55                16342 	.db #0x55
   3AA8 FF                16343 	.db #0xFF
   3AA9 35                16344 	.db #0x35
   3AAA FF                16345 	.db #0xFF
   3AAB 5F                16346 	.db #0x5F
   3AAC FF                16347 	.db #0xFF
   3AAD 55                16348 	.db #0x55
   3AAE 81                16349 	.db #0x81
   3AAF 81                16350 	.db #0x81
   3AB0 BF                16351 	.db #0xBF
   3AB1 BF                16352 	.db #0xBF
   3AB2 BF                16353 	.db #0xBF
   3AB3 BF                16354 	.db #0xBF
   3AB4 BF                16355 	.db #0xBF
   3AB5 BF                16356 	.db #0xBF
   3AB6 BF                16357 	.db #0xBF
   3AB7 BF                16358 	.db #0xBF
   3AB8 BF                16359 	.db #0xBF
   3AB9 BF                16360 	.db #0xBF
   3ABA BF                16361 	.db #0xBF
   3ABB BF                16362 	.db #0xBF
   3ABC 81                16363 	.db #0x81
   3ABD 81                16364 	.db #0x81
   3ABE 81                16365 	.db #0x81
   3ABF 81                16366 	.db #0x81
   3AC0 BD                16367 	.db #0xBD
   3AC1 BD                16368 	.db #0xBD
   3AC2 BD                16369 	.db #0xBD
   3AC3 BD                16370 	.db #0xBD
   3AC4 BD                16371 	.db #0xBD
   3AC5 BD                16372 	.db #0xBD
   3AC6 83                16373 	.db #0x83
   3AC7 83                16374 	.db #0x83
   3AC8 BD                16375 	.db #0xBD
   3AC9 BD                16376 	.db #0xBD
   3ACA BD                16377 	.db #0xBD
   3ACB BD                16378 	.db #0xBD
   3ACC BD                16379 	.db #0xBD
   3ACD BD                16380 	.db #0xBD
   3ACE 81                16381 	.db #0x81
   3ACF 81                16382 	.db #0x81
   3AD0 BF                16383 	.db #0xBF
   3AD1 BF                16384 	.db #0xBF
   3AD2 BF                16385 	.db #0xBF
   3AD3 BF                16386 	.db #0xBF
   3AD4 BF                16387 	.db #0xBF
   3AD5 BF                16388 	.db #0xBF
   3AD6 81                16389 	.db #0x81
   3AD7 81                16390 	.db #0x81
   3AD8 BF                16391 	.db #0xBF
   3AD9 BF                16392 	.db #0xBF
   3ADA BF                16393 	.db #0xBF
   3ADB BF                16394 	.db #0xBF
   3ADC 81                16395 	.db #0x81
   3ADD 81                16396 	.db #0x81
   3ADE FF                16397 	.db #0xFF
   3ADF 00                16398 	.db #0x00
   3AE0 FF                16399 	.db #0xFF
   3AE1 00                16400 	.db #0x00
   3AE2 FF                16401 	.db #0xFF
   3AE3 00                16402 	.db #0x00
   3AE4 FF                16403 	.db #0xFF
   3AE5 00                16404 	.db #0x00
   3AE6 FF                16405 	.db #0xFF
   3AE7 00                16406 	.db #0x00
   3AE8 FF                16407 	.db #0xFF
   3AE9 00                16408 	.db #0x00
   3AEA FF                16409 	.db #0xFF
   3AEB 00                16410 	.db #0x00
   3AEC FF                16411 	.db #0xFF
   3AED 00                16412 	.db #0x00
   3AEE FF                16413 	.db #0xFF
   3AEF 80                16414 	.db #0x80
   3AF0 FF                16415 	.db #0xFF
   3AF1 80                16416 	.db #0x80
   3AF2 FF                16417 	.db #0xFF
   3AF3 80                16418 	.db #0x80
   3AF4 FF                16419 	.db #0xFF
   3AF5 80                16420 	.db #0x80
   3AF6 FF                16421 	.db #0xFF
   3AF7 80                16422 	.db #0x80
   3AF8 FF                16423 	.db #0xFF
   3AF9 80                16424 	.db #0x80
   3AFA FF                16425 	.db #0xFF
   3AFB C0                16426 	.db #0xC0
   3AFC FF                16427 	.db #0xFF
   3AFD FF                16428 	.db #0xFF
   3AFE FF                16429 	.db #0xFF
   3AFF 01                16430 	.db #0x01
   3B00 FF                16431 	.db #0xFF
   3B01 01                16432 	.db #0x01
   3B02 FF                16433 	.db #0xFF
   3B03 01                16434 	.db #0x01
   3B04 FF                16435 	.db #0xFF
   3B05 01                16436 	.db #0x01
   3B06 FF                16437 	.db #0xFF
   3B07 01                16438 	.db #0x01
   3B08 FF                16439 	.db #0xFF
   3B09 01                16440 	.db #0x01
   3B0A FF                16441 	.db #0xFF
   3B0B 03                16442 	.db #0x03
   3B0C FF                16443 	.db #0xFF
   3B0D FF                16444 	.db #0xFF
   3B0E FF                16445 	.db #0xFF
   3B0F FF                16446 	.db #0xFF
   3B10 FF                16447 	.db #0xFF
   3B11 C0                16448 	.db #0xC0
   3B12 FF                16449 	.db #0xFF
   3B13 80                16450 	.db #0x80
   3B14 FF                16451 	.db #0xFF
   3B15 80                16452 	.db #0x80
   3B16 FF                16453 	.db #0xFF
   3B17 80                16454 	.db #0x80
   3B18 FF                16455 	.db #0xFF
   3B19 80                16456 	.db #0x80
   3B1A FF                16457 	.db #0xFF
   3B1B 80                16458 	.db #0x80
   3B1C FF                16459 	.db #0xFF
   3B1D 80                16460 	.db #0x80
   3B1E FF                16461 	.db #0xFF
   3B1F FF                16462 	.db #0xFF
   3B20 FF                16463 	.db #0xFF
   3B21 03                16464 	.db #0x03
   3B22 FF                16465 	.db #0xFF
   3B23 01                16466 	.db #0x01
   3B24 FF                16467 	.db #0xFF
   3B25 01                16468 	.db #0x01
   3B26 FF                16469 	.db #0xFF
   3B27 01                16470 	.db #0x01
   3B28 FF                16471 	.db #0xFF
   3B29 01                16472 	.db #0x01
   3B2A FF                16473 	.db #0xFF
   3B2B 01                16474 	.db #0x01
   3B2C FF                16475 	.db #0xFF
   3B2D 01                16476 	.db #0x01
   3B2E FF                16477 	.db #0xFF
   3B2F 01                16478 	.db #0x01
   3B30 FF                16479 	.db #0xFF
   3B31 01                16480 	.db #0x01
   3B32 FF                16481 	.db #0xFF
   3B33 01                16482 	.db #0x01
   3B34 FF                16483 	.db #0xFF
   3B35 01                16484 	.db #0x01
   3B36 FF                16485 	.db #0xFF
   3B37 01                16486 	.db #0x01
   3B38 FF                16487 	.db #0xFF
   3B39 01                16488 	.db #0x01
   3B3A FF                16489 	.db #0xFF
   3B3B 01                16490 	.db #0x01
   3B3C FF                16491 	.db #0xFF
   3B3D 01                16492 	.db #0x01
   3B3E FF                16493 	.db #0xFF
   3B3F 80                16494 	.db #0x80
   3B40 FF                16495 	.db #0xFF
   3B41 80                16496 	.db #0x80
   3B42 FF                16497 	.db #0xFF
   3B43 80                16498 	.db #0x80
   3B44 FF                16499 	.db #0xFF
   3B45 80                16500 	.db #0x80
   3B46 FF                16501 	.db #0xFF
   3B47 80                16502 	.db #0x80
   3B48 FF                16503 	.db #0xFF
   3B49 80                16504 	.db #0x80
   3B4A FF                16505 	.db #0xFF
   3B4B 80                16506 	.db #0x80
   3B4C FF                16507 	.db #0xFF
   3B4D 80                16508 	.db #0x80
   3B4E FF                16509 	.db #0xFF
   3B4F FF                16510 	.db #0xFF
   3B50 FF                16511 	.db #0xFF
   3B51 00                16512 	.db #0x00
   3B52 FF                16513 	.db #0xFF
   3B53 00                16514 	.db #0x00
   3B54 FF                16515 	.db #0xFF
   3B55 00                16516 	.db #0x00
   3B56 FF                16517 	.db #0xFF
   3B57 00                16518 	.db #0x00
   3B58 FF                16519 	.db #0xFF
   3B59 00                16520 	.db #0x00
   3B5A FF                16521 	.db #0xFF
   3B5B 00                16522 	.db #0x00
   3B5C FF                16523 	.db #0xFF
   3B5D 00                16524 	.db #0x00
   3B5E FF                16525 	.db #0xFF
   3B5F 00                16526 	.db #0x00
   3B60 FF                16527 	.db #0xFF
   3B61 00                16528 	.db #0x00
   3B62 FF                16529 	.db #0xFF
   3B63 00                16530 	.db #0x00
   3B64 FF                16531 	.db #0xFF
   3B65 00                16532 	.db #0x00
   3B66 FF                16533 	.db #0xFF
   3B67 00                16534 	.db #0x00
   3B68 FF                16535 	.db #0xFF
   3B69 00                16536 	.db #0x00
   3B6A FF                16537 	.db #0xFF
   3B6B 00                16538 	.db #0x00
   3B6C FF                16539 	.db #0xFF
   3B6D FF                16540 	.db #0xFF
   3B6E FF                16541 	.db #0xFF
   3B6F 00                16542 	.db #0x00
   3B70 11                16543 	.db #0x11
   3B71 EE                16544 	.db #0xEE
   3B72 57                16545 	.db #0x57
   3B73 A8                16546 	.db #0xA8
   3B74 57                16547 	.db #0x57
   3B75 A8                16548 	.db #0xA8
   3B76 31                16549 	.db #0x31
   3B77 CE                16550 	.db #0xCE
   3B78 57                16551 	.db #0x57
   3B79 A8                16552 	.db #0xA8
   3B7A 57                16553 	.db #0x57
   3B7B A8                16554 	.db #0xA8
   3B7C 11                16555 	.db #0x11
   3B7D EE                16556 	.db #0xEE
   3B7E FF                16557 	.db #0xFF
   3B7F 00                16558 	.db #0x00
   3B80 91                16559 	.db #0x91
   3B81 6E                16560 	.db #0x6E
   3B82 7B                16561 	.db #0x7B
   3B83 84                16562 	.db #0x84
   3B84 7B                16563 	.db #0x7B
   3B85 84                16564 	.db #0x84
   3B86 BB                16565 	.db #0xBB
   3B87 44                16566 	.db #0x44
   3B88 DB                16567 	.db #0xDB
   3B89 24                16568 	.db #0x24
   3B8A DB                16569 	.db #0xDB
   3B8B 24                16570 	.db #0x24
   3B8C 3B                16571 	.db #0x3B
   3B8D C4                16572 	.db #0xC4
   3B8E FF                16573 	.db #0xFF
   3B8F 00                16574 	.db #0x00
   3B90 51                16575 	.db #0x51
   3B91 AE                16576 	.db #0xAE
   3B92 55                16577 	.db #0x55
   3B93 AA                16578 	.db #0xAA
   3B94 55                16579 	.db #0x55
   3B95 AA                16580 	.db #0xAA
   3B96 B5                16581 	.db #0xB5
   3B97 4A                16582 	.db #0x4A
   3B98 B5                16583 	.db #0xB5
   3B99 4A                16584 	.db #0x4A
   3B9A B5                16585 	.db #0xB5
   3B9B 4A                16586 	.db #0x4A
   3B9C B1                16587 	.db #0xB1
   3B9D 4E                16588 	.db #0x4E
   3B9E FF                16589 	.db #0xFF
   3B9F 00                16590 	.db #0x00
   3BA0 5F                16591 	.db #0x5F
   3BA1 A0                16592 	.db #0xA0
   3BA2 5F                16593 	.db #0x5F
   3BA3 A0                16594 	.db #0xA0
   3BA4 5F                16595 	.db #0x5F
   3BA5 A0                16596 	.db #0xA0
   3BA6 5F                16597 	.db #0x5F
   3BA7 A0                16598 	.db #0xA0
   3BA8 5F                16599 	.db #0x5F
   3BA9 A0                16600 	.db #0xA0
   3BAA 5F                16601 	.db #0x5F
   3BAB A0                16602 	.db #0xA0
   3BAC 1F                16603 	.db #0x1F
   3BAD E0                16604 	.db #0xE0
   3BAE FF                16605 	.db #0xFF
   3BAF 00                16606 	.db #0x00
   3BB0 11                16607 	.db #0x11
   3BB1 EE                16608 	.db #0xEE
   3BB2 55                16609 	.db #0x55
   3BB3 AA                16610 	.db #0xAA
   3BB4 15                16611 	.db #0x15
   3BB5 EA                16612 	.db #0xEA
   3BB6 73                16613 	.db #0x73
   3BB7 8C                16614 	.db #0x8C
   3BB8 75                16615 	.db #0x75
   3BB9 8A                16616 	.db #0x8A
   3BBA 75                16617 	.db #0x75
   3BBB 8A                16618 	.db #0x8A
   3BBC 75                16619 	.db #0x75
   3BBD 8A                16620 	.db #0x8A
   3BBE FF                16621 	.db #0xFF
   3BBF 00                16622 	.db #0x00
   3BC0 19                16623 	.db #0x19
   3BC1 E6                16624 	.db #0xE6
   3BC2 77                16625 	.db #0x77
   3BC3 88                16626 	.db #0x88
   3BC4 73                16627 	.db #0x73
   3BC5 8C                16628 	.db #0x8C
   3BC6 1B                16629 	.db #0x1B
   3BC7 E4                16630 	.db #0xE4
   3BC8 7D                16631 	.db #0x7D
   3BC9 82                16632 	.db #0x82
   3BCA 7D                16633 	.db #0x7D
   3BCB 82                16634 	.db #0x82
   3BCC 13                16635 	.db #0x13
   3BCD EC                16636 	.db #0xEC
   3BCE FF                16637 	.db #0xFF
   3BCF 00                16638 	.db #0x00
   3BD0 9F                16639 	.db #0x9F
   3BD1 60                16640 	.db #0x60
   3BD2 7F                16641 	.db #0x7F
   3BD3 80                16642 	.db #0x80
   3BD4 3F                16643 	.db #0x3F
   3BD5 C0                16644 	.db #0xC0
   3BD6 BF                16645 	.db #0xBF
   3BD7 40                16646 	.db #0x40
   3BD8 DF                16647 	.db #0xDF
   3BD9 20                16648 	.db #0x20
   3BDA DF                16649 	.db #0xDF
   3BDB 20                16650 	.db #0x20
   3BDC 3F                16651 	.db #0x3F
   3BDD C0                16652 	.db #0xC0
   3BDE C3                16653 	.db #0xC3
   3BDF 3C                16654 	.db #0x3C
   3BE0 81                16655 	.db #0x81
   3BE1 42                16656 	.db #0x42
   3BE2 00                16657 	.db #0x00
   3BE3 99                16658 	.db #0x99
   3BE4 00                16659 	.db #0x00
   3BE5 A5                16660 	.db #0xA5
   3BE6 00                16661 	.db #0x00
   3BE7 BD                16662 	.db #0xBD
   3BE8 00                16663 	.db #0x00
   3BE9 A5                16664 	.db #0xA5
   3BEA 81                16665 	.db #0x81
   3BEB 42                16666 	.db #0x42
   3BEC C3                16667 	.db #0xC3
   3BED 3C                16668 	.db #0x3C
   3BEE                   16669 _banditIDLE:
   3BEE 00                16670 	.db #0x00
   3BEF 00                16671 	.db #0x00
   3BF0 01                16672 	.db #0x01
   3BF1 01                16673 	.db #0x01
   3BF2 03                16674 	.db #0x03
   3BF3 02                16675 	.db #0x02
   3BF4 03                16676 	.db #0x03
   3BF5 1A                16677 	.db #0x1A
   3BF6 1B                16678 	.db #0x1B
   3BF7 1B                16679 	.db #0x1B
   3BF8 1B                16680 	.db #0x1B
   3BF9 1B                16681 	.db #0x1B
   3BFA 1B                16682 	.db #0x1B
   3BFB 1B                16683 	.db #0x1B
   3BFC 01                16684 	.db #0x01
   3BFD 19                16685 	.db #0x19
   3BFE 19                16686 	.db #0x19
   3BFF 01                16687 	.db #0x01
   3C00 19                16688 	.db #0x19
   3C01 01                16689 	.db #0x01
   3C02 19                16690 	.db #0x19
   3C03 01                16691 	.db #0x01
   3C04 1B                16692 	.db #0x1B
   3C05 03                16693 	.db #0x03
   3C06 02                16694 	.db #0x02
   3C07 03                16695 	.db #0x03
   3C08 07                16696 	.db #0x07
   3C09 07                16697 	.db #0x07
   3C0A 08                16698 	.db #0x08
   3C0B 0F                16699 	.db #0x0F
   3C0C 0F                16700 	.db #0x0F
   3C0D 0F                16701 	.db #0x0F
   3C0E 00                16702 	.db #0x00
   3C0F 00                16703 	.db #0x00
   3C10 F8                16704 	.db #0xF8
   3C11 F8                16705 	.db #0xF8
   3C12 FC                16706 	.db #0xFC
   3C13 84                16707 	.db #0x84
   3C14 FC                16708 	.db #0xFC
   3C15 C4                16709 	.db #0xC4
   3C16 FC                16710 	.db #0xFC
   3C17 FC                16711 	.db #0xFC
   3C18 FC                16712 	.db #0xFC
   3C19 FC                16713 	.db #0xFC
   3C1A FC                16714 	.db #0xFC
   3C1B FC                16715 	.db #0xFC
   3C1C 0B                16716 	.db #0x0B
   3C1D FB                16717 	.db #0xFB
   3C1E 0B                16718 	.db #0x0B
   3C1F FB                16719 	.db #0xFB
   3C20 0B                16720 	.db #0x0B
   3C21 FB                16721 	.db #0xFB
   3C22 F8                16722 	.db #0xF8
   3C23 F8                16723 	.db #0xF8
   3C24 0C                16724 	.db #0x0C
   3C25 FC                16725 	.db #0xFC
   3C26 64                16726 	.db #0x64
   3C27 FC                16727 	.db #0xFC
   3C28 9F                16728 	.db #0x9F
   3C29 9F                16729 	.db #0x9F
   3C2A 91                16730 	.db #0x91
   3C2B 9F                16731 	.db #0x9F
   3C2C 9F                16732 	.db #0x9F
   3C2D 9F                16733 	.db #0x9F
   3C2E                   16734 _banditWalk1:
   3C2E 00                16735 	.db #0x00
   3C2F 00                16736 	.db #0x00
   3C30 03                16737 	.db #0x03
   3C31 03                16738 	.db #0x03
   3C32 07                16739 	.db #0x07
   3C33 05                16740 	.db #0x05
   3C34 07                16741 	.db #0x07
   3C35 05                16742 	.db #0x05
   3C36 07                16743 	.db #0x07
   3C37 37                16744 	.db #0x37
   3C38 37                16745 	.db #0x37
   3C39 37                16746 	.db #0x37
   3C3A 37                16747 	.db #0x37
   3C3B 37                16748 	.db #0x37
   3C3C 31                16749 	.db #0x31
   3C3D 31                16750 	.db #0x31
   3C3E 01                16751 	.db #0x01
   3C3F 31                16752 	.db #0x31
   3C40 31                16753 	.db #0x31
   3C41 01                16754 	.db #0x01
   3C42 31                16755 	.db #0x31
   3C43 01                16756 	.db #0x01
   3C44 33                16757 	.db #0x33
   3C45 03                16758 	.db #0x03
   3C46 1A                16759 	.db #0x1A
   3C47 1B                16760 	.db #0x1B
   3C48 17                16761 	.db #0x17
   3C49 1F                16762 	.db #0x1F
   3C4A 0A                16763 	.db #0x0A
   3C4B 0E                16764 	.db #0x0E
   3C4C 04                16765 	.db #0x04
   3C4D 04                16766 	.db #0x04
   3C4E 00                16767 	.db #0x00
   3C4F 00                16768 	.db #0x00
   3C50 F0                16769 	.db #0xF0
   3C51 F0                16770 	.db #0xF0
   3C52 F8                16771 	.db #0xF8
   3C53 08                16772 	.db #0x08
   3C54 F8                16773 	.db #0xF8
   3C55 88                16774 	.db #0x88
   3C56 F8                16775 	.db #0xF8
   3C57 F8                16776 	.db #0xF8
   3C58 F8                16777 	.db #0xF8
   3C59 F8                16778 	.db #0xF8
   3C5A FB                16779 	.db #0xFB
   3C5B FB                16780 	.db #0xFB
   3C5C 0B                16781 	.db #0x0B
   3C5D FB                16782 	.db #0xFB
   3C5E 0B                16783 	.db #0x0B
   3C5F FB                16784 	.db #0xFB
   3C60 08                16785 	.db #0x08
   3C61 F8                16786 	.db #0xF8
   3C62 F8                16787 	.db #0xF8
   3C63 F8                16788 	.db #0xF8
   3C64 0C                16789 	.db #0x0C
   3C65 FC                16790 	.db #0xFC
   3C66 64                16791 	.db #0x64
   3C67 FC                16792 	.db #0xFC
   3C68 9F                16793 	.db #0x9F
   3C69 9F                16794 	.db #0x9F
   3C6A 11                16795 	.db #0x11
   3C6B 1F                16796 	.db #0x1F
   3C6C 1F                16797 	.db #0x1F
   3C6D 1F                16798 	.db #0x1F
   3C6E                   16799 _banditWalk2:
   3C6E 00                16800 	.db #0x00
   3C6F 00                16801 	.db #0x00
   3C70 03                16802 	.db #0x03
   3C71 03                16803 	.db #0x03
   3C72 07                16804 	.db #0x07
   3C73 05                16805 	.db #0x05
   3C74 07                16806 	.db #0x07
   3C75 05                16807 	.db #0x05
   3C76 07                16808 	.db #0x07
   3C77 37                16809 	.db #0x37
   3C78 37                16810 	.db #0x37
   3C79 37                16811 	.db #0x37
   3C7A 37                16812 	.db #0x37
   3C7B 37                16813 	.db #0x37
   3C7C 31                16814 	.db #0x31
   3C7D 31                16815 	.db #0x31
   3C7E 01                16816 	.db #0x01
   3C7F 31                16817 	.db #0x31
   3C80 31                16818 	.db #0x31
   3C81 01                16819 	.db #0x01
   3C82 31                16820 	.db #0x31
   3C83 01                16821 	.db #0x01
   3C84 33                16822 	.db #0x33
   3C85 03                16823 	.db #0x03
   3C86 02                16824 	.db #0x02
   3C87 03                16825 	.db #0x03
   3C88 0F                16826 	.db #0x0F
   3C89 0F                16827 	.db #0x0F
   3C8A 08                16828 	.db #0x08
   3C8B 0F                16829 	.db #0x0F
   3C8C 0F                16830 	.db #0x0F
   3C8D 0F                16831 	.db #0x0F
   3C8E 00                16832 	.db #0x00
   3C8F 00                16833 	.db #0x00
   3C90 F0                16834 	.db #0xF0
   3C91 F0                16835 	.db #0xF0
   3C92 F8                16836 	.db #0xF8
   3C93 08                16837 	.db #0x08
   3C94 F8                16838 	.db #0xF8
   3C95 88                16839 	.db #0x88
   3C96 F8                16840 	.db #0xF8
   3C97 F8                16841 	.db #0xF8
   3C98 F8                16842 	.db #0xF8
   3C99 F8                16843 	.db #0xF8
   3C9A FB                16844 	.db #0xFB
   3C9B FB                16845 	.db #0xFB
   3C9C 0B                16846 	.db #0x0B
   3C9D FB                16847 	.db #0xFB
   3C9E 0B                16848 	.db #0x0B
   3C9F FB                16849 	.db #0xFB
   3CA0 08                16850 	.db #0x08
   3CA1 F8                16851 	.db #0xF8
   3CA2 F8                16852 	.db #0xF8
   3CA3 F8                16853 	.db #0xF8
   3CA4 0C                16854 	.db #0x0C
   3CA5 FC                16855 	.db #0xFC
   3CA6 64                16856 	.db #0x64
   3CA7 FC                16857 	.db #0xFC
   3CA8 B8                16858 	.db #0xB8
   3CA9 F8                16859 	.db #0xF8
   3CAA C8                16860 	.db #0xC8
   3CAB F8                16861 	.db #0xF8
   3CAC F0                16862 	.db #0xF0
   3CAD F0                16863 	.db #0xF0
   3CAE                   16864 _banditDead:
   3CAE 00                16865 	.db #0x00
   3CAF 00                16866 	.db #0x00
   3CB0 00                16867 	.db #0x00
   3CB1 00                16868 	.db #0x00
   3CB2 00                16869 	.db #0x00
   3CB3 00                16870 	.db #0x00
   3CB4 00                16871 	.db #0x00
   3CB5 00                16872 	.db #0x00
   3CB6 00                16873 	.db #0x00
   3CB7 00                16874 	.db #0x00
   3CB8 00                16875 	.db #0x00
   3CB9 00                16876 	.db #0x00
   3CBA 00                16877 	.db #0x00
   3CBB 00                16878 	.db #0x00
   3CBC 00                16879 	.db #0x00
   3CBD 00                16880 	.db #0x00
   3CBE 00                16881 	.db #0x00
   3CBF 00                16882 	.db #0x00
   3CC0 00                16883 	.db #0x00
   3CC1 00                16884 	.db #0x00
   3CC2 00                16885 	.db #0x00
   3CC3 00                16886 	.db #0x00
   3CC4 00                16887 	.db #0x00
   3CC5 00                16888 	.db #0x00
   3CC6 00                16889 	.db #0x00
   3CC7 00                16890 	.db #0x00
   3CC8 7F                16891 	.db #0x7F
   3CC9 80                16892 	.db #0x80
   3CCA CF                16893 	.db #0xCF
   3CCB 37                16894 	.db #0x37
   3CCC FF                16895 	.db #0xFF
   3CCD FF                16896 	.db #0xFF
   3CCE 00                16897 	.db #0x00
   3CCF 00                16898 	.db #0x00
   3CD0 00                16899 	.db #0x00
   3CD1 00                16900 	.db #0x00
   3CD2 00                16901 	.db #0x00
   3CD3 00                16902 	.db #0x00
   3CD4 00                16903 	.db #0x00
   3CD5 00                16904 	.db #0x00
   3CD6 00                16905 	.db #0x00
   3CD7 00                16906 	.db #0x00
   3CD8 00                16907 	.db #0x00
   3CD9 00                16908 	.db #0x00
   3CDA 00                16909 	.db #0x00
   3CDB 00                16910 	.db #0x00
   3CDC 00                16911 	.db #0x00
   3CDD 00                16912 	.db #0x00
   3CDE 00                16913 	.db #0x00
   3CDF 00                16914 	.db #0x00
   3CE0 00                16915 	.db #0x00
   3CE1 00                16916 	.db #0x00
   3CE2 00                16917 	.db #0x00
   3CE3 00                16918 	.db #0x00
   3CE4 00                16919 	.db #0x00
   3CE5 00                16920 	.db #0x00
   3CE6 00                16921 	.db #0x00
   3CE7 00                16922 	.db #0x00
   3CE8 80                16923 	.db #0x80
   3CE9 70                16924 	.db #0x70
   3CEA F0                16925 	.db #0xF0
   3CEB F0                16926 	.db #0xF0
   3CEC F0                16927 	.db #0xF0
   3CED F0                16928 	.db #0xF0
   3CEE                   16929 _banditAttack1:
   3CEE 00                16930 	.db #0x00
   3CEF 00                16931 	.db #0x00
   3CF0 00                16932 	.db #0x00
   3CF1 00                16933 	.db #0x00
   3CF2 00                16934 	.db #0x00
   3CF3 00                16935 	.db #0x00
   3CF4 00                16936 	.db #0x00
   3CF5 00                16937 	.db #0x00
   3CF6 00                16938 	.db #0x00
   3CF7 00                16939 	.db #0x00
   3CF8 00                16940 	.db #0x00
   3CF9 00                16941 	.db #0x00
   3CFA 00                16942 	.db #0x00
   3CFB 00                16943 	.db #0x00
   3CFC 00                16944 	.db #0x00
   3CFD 00                16945 	.db #0x00
   3CFE 76                16946 	.db #0x76
   3CFF 0F                16947 	.db #0x0F
   3D00 76                16948 	.db #0x76
   3D01 0F                16949 	.db #0x0F
   3D02 00                16950 	.db #0x00
   3D03 00                16951 	.db #0x00
   3D04 00                16952 	.db #0x00
   3D05 00                16953 	.db #0x00
   3D06 00                16954 	.db #0x00
   3D07 00                16955 	.db #0x00
   3D08 01                16956 	.db #0x01
   3D09 01                16957 	.db #0x01
   3D0A 02                16958 	.db #0x02
   3D0B 03                16959 	.db #0x03
   3D0C 03                16960 	.db #0x03
   3D0D 03                16961 	.db #0x03
   3D0E 00                16962 	.db #0x00
   3D0F 00                16963 	.db #0x00
   3D10 7E                16964 	.db #0x7E
   3D11 7E                16965 	.db #0x7E
   3D12 FF                16966 	.db #0xFF
   3D13 A1                16967 	.db #0xA1
   3D14 FF                16968 	.db #0xFF
   3D15 B1                16969 	.db #0xB1
   3D16 FF                16970 	.db #0xFF
   3D17 FF                16971 	.db #0xFF
   3D18 FF                16972 	.db #0xFF
   3D19 FF                16973 	.db #0xFF
   3D1A FF                16974 	.db #0xFF
   3D1B FF                16975 	.db #0xFF
   3D1C 42                16976 	.db #0x42
   3D1D 7E                16977 	.db #0x7E
   3D1E 42                16978 	.db #0x42
   3D1F 7E                16979 	.db #0x7E
   3D20 42                16980 	.db #0x42
   3D21 7E                16981 	.db #0x7E
   3D22 7E                16982 	.db #0x7E
   3D23 7E                16983 	.db #0x7E
   3D24 C3                16984 	.db #0xC3
   3D25 FF                16985 	.db #0xFF
   3D26 99                16986 	.db #0x99
   3D27 FF                16987 	.db #0xFF
   3D28 E7                16988 	.db #0xE7
   3D29 E7                16989 	.db #0xE7
   3D2A 25                16990 	.db #0x25
   3D2B E7                16991 	.db #0xE7
   3D2C E7                16992 	.db #0xE7
   3D2D E7                16993 	.db #0xE7
   3D2E                   16994 _banditAttack2:
   3D2E 00                16995 	.db #0x00
   3D2F 00                16996 	.db #0x00
   3D30 00                16997 	.db #0x00
   3D31 00                16998 	.db #0x00
   3D32 00                16999 	.db #0x00
   3D33 00                17000 	.db #0x00
   3D34 00                17001 	.db #0x00
   3D35 00                17002 	.db #0x00
   3D36 00                17003 	.db #0x00
   3D37 00                17004 	.db #0x00
   3D38 00                17005 	.db #0x00
   3D39 00                17006 	.db #0x00
   3D3A 00                17007 	.db #0x00
   3D3B 00                17008 	.db #0x00
   3D3C 00                17009 	.db #0x00
   3D3D 00                17010 	.db #0x00
   3D3E DC                17011 	.db #0xDC
   3D3F 3E                17012 	.db #0x3E
   3D40 DC                17013 	.db #0xDC
   3D41 3E                17014 	.db #0x3E
   3D42 E0                17015 	.db #0xE0
   3D43 00                17016 	.db #0x00
   3D44 7C                17017 	.db #0x7C
   3D45 00                17018 	.db #0x00
   3D46 00                17019 	.db #0x00
   3D47 00                17020 	.db #0x00
   3D48 01                17021 	.db #0x01
   3D49 01                17022 	.db #0x01
   3D4A 02                17023 	.db #0x02
   3D4B 03                17024 	.db #0x03
   3D4C 03                17025 	.db #0x03
   3D4D 03                17026 	.db #0x03
   3D4E 00                17027 	.db #0x00
   3D4F 00                17028 	.db #0x00
   3D50 7E                17029 	.db #0x7E
   3D51 7E                17030 	.db #0x7E
   3D52 FF                17031 	.db #0xFF
   3D53 A1                17032 	.db #0xA1
   3D54 FF                17033 	.db #0xFF
   3D55 B1                17034 	.db #0xB1
   3D56 FF                17035 	.db #0xFF
   3D57 FF                17036 	.db #0xFF
   3D58 FF                17037 	.db #0xFF
   3D59 FF                17038 	.db #0xFF
   3D5A FF                17039 	.db #0xFF
   3D5B FF                17040 	.db #0xFF
   3D5C 42                17041 	.db #0x42
   3D5D 7E                17042 	.db #0x7E
   3D5E 42                17043 	.db #0x42
   3D5F 7E                17044 	.db #0x7E
   3D60 42                17045 	.db #0x42
   3D61 7E                17046 	.db #0x7E
   3D62 7E                17047 	.db #0x7E
   3D63 7E                17048 	.db #0x7E
   3D64 C3                17049 	.db #0xC3
   3D65 FF                17050 	.db #0xFF
   3D66 99                17051 	.db #0x99
   3D67 FF                17052 	.db #0xFF
   3D68 E7                17053 	.db #0xE7
   3D69 E7                17054 	.db #0xE7
   3D6A 25                17055 	.db #0x25
   3D6B E7                17056 	.db #0xE7
   3D6C E7                17057 	.db #0xE7
   3D6D E7                17058 	.db #0xE7
   3D6E                   17059 _emptyHeart:
   3D6E 66                17060 	.db #0x66
   3D6F 66                17061 	.db #0x66
   3D70 99                17062 	.db #0x99
   3D71 99                17063 	.db #0x99
   3D72 81                17064 	.db #0x81
   3D73 81                17065 	.db #0x81
   3D74 81                17066 	.db #0x81
   3D75 81                17067 	.db #0x81
   3D76 81                17068 	.db #0x81
   3D77 81                17069 	.db #0x81
   3D78 42                17070 	.db #0x42
   3D79 42                17071 	.db #0x42
   3D7A 24                17072 	.db #0x24
   3D7B 24                17073 	.db #0x24
   3D7C 18                17074 	.db #0x18
   3D7D 18                17075 	.db #0x18
   3D7E                   17076 _heart:
   3D7E 66                17077 	.db #0x66
   3D7F 66                17078 	.db #0x66
   3D80 99                17079 	.db #0x99
   3D81 FF                17080 	.db #0xFF
   3D82 81                17081 	.db #0x81
   3D83 FF                17082 	.db #0xFF
   3D84 81                17083 	.db #0x81
   3D85 FF                17084 	.db #0xFF
   3D86 81                17085 	.db #0x81
   3D87 FF                17086 	.db #0xFF
   3D88 42                17087 	.db #0x42
   3D89 7E                17088 	.db #0x7E
   3D8A 24                17089 	.db #0x24
   3D8B 3C                17090 	.db #0x3C
   3D8C 18                17091 	.db #0x18
   3D8D 18                17092 	.db #0x18
   3D8E                   17093 _hurtIcon:
   3D8E 3F                17094 	.db #0x3F
   3D8F FF                17095 	.db #0xFF
   3D90 7F                17096 	.db #0x7F
   3D91 FF                17097 	.db #0xFF
   3D92 FF                17098 	.db #0xFF
   3D93 C0                17099 	.db #0xC0
   3D94 FF                17100 	.db #0xFF
   3D95 CF                17101 	.db #0xCF
   3D96 F0                17102 	.db #0xF0
   3D97 DF                17103 	.db #0xDF
   3D98 F0                17104 	.db #0xF0
   3D99 DF                17105 	.db #0xDF
   3D9A F0                17106 	.db #0xF0
   3D9B DF                17107 	.db #0xDF
   3D9C F0                17108 	.db #0xF0
   3D9D DF                17109 	.db #0xDF
   3D9E F0                17110 	.db #0xF0
   3D9F DF                17111 	.db #0xDF
   3DA0 F0                17112 	.db #0xF0
   3DA1 FF                17113 	.db #0xFF
   3DA2 90                17114 	.db #0x90
   3DA3 9F                17115 	.db #0x9F
   3DA4 B0                17116 	.db #0xB0
   3DA5 BF                17117 	.db #0xBF
   3DA6 DF                17118 	.db #0xDF
   3DA7 FF                17119 	.db #0xFF
   3DA8 88                17120 	.db #0x88
   3DA9 FF                17121 	.db #0xFF
   3DAA 48                17122 	.db #0x48
   3DAB FF                17123 	.db #0xFF
   3DAC 3F                17124 	.db #0x3F
   3DAD FF                17125 	.db #0xFF
   3DAE FC                17126 	.db #0xFC
   3DAF FF                17127 	.db #0xFF
   3DB0 E2                17128 	.db #0xE2
   3DB1 E3                17129 	.db #0xE3
   3DB2 E1                17130 	.db #0xE1
   3DB3 21                17131 	.db #0x21
   3DB4 F9                17132 	.db #0xF9
   3DB5 F9                17133 	.db #0xF9
   3DB6 35                17134 	.db #0x35
   3DB7 FD                17135 	.db #0xFD
   3DB8 FD                17136 	.db #0xFD
   3DB9 FD                17137 	.db #0xFD
   3DBA FD                17138 	.db #0xFD
   3DBB 05                17139 	.db #0x05
   3DBC FD                17140 	.db #0xFD
   3DBD FD                17141 	.db #0xFD
   3DBE 35                17142 	.db #0x35
   3DBF FD                17143 	.db #0xFD
   3DC0 35                17144 	.db #0x35
   3DC1 FD                17145 	.db #0xFD
   3DC2 35                17146 	.db #0x35
   3DC3 FD                17147 	.db #0xFD
   3DC4 37                17148 	.db #0x37
   3DC5 FF                17149 	.db #0xFF
   3DC6 FD                17150 	.db #0xFD
   3DC7 FF                17151 	.db #0xFF
   3DC8 09                17152 	.db #0x09
   3DC9 FF                17153 	.db #0xFF
   3DCA 0A                17154 	.db #0x0A
   3DCB FF                17155 	.db #0xFF
   3DCC FC                17156 	.db #0xFC
   3DCD FF                17157 	.db #0xFF
   3DCE                   17158 _jumpIcon:
   3DCE 3F                17159 	.db #0x3F
   3DCF FF                17160 	.db #0xFF
   3DD0 7F                17161 	.db #0x7F
   3DD1 FF                17162 	.db #0xFF
   3DD2 FF                17163 	.db #0xFF
   3DD3 C0                17164 	.db #0xC0
   3DD4 FF                17165 	.db #0xFF
   3DD5 CF                17166 	.db #0xCF
   3DD6 F0                17167 	.db #0xF0
   3DD7 DF                17168 	.db #0xDF
   3DD8 F0                17169 	.db #0xF0
   3DD9 DF                17170 	.db #0xDF
   3DDA F0                17171 	.db #0xF0
   3DDB DF                17172 	.db #0xDF
   3DDC F0                17173 	.db #0xF0
   3DDD DF                17174 	.db #0xDF
   3DDE F0                17175 	.db #0xF0
   3DDF DF                17176 	.db #0xDF
   3DE0 F0                17177 	.db #0xF0
   3DE1 FF                17178 	.db #0xFF
   3DE2 90                17179 	.db #0x90
   3DE3 9F                17180 	.db #0x9F
   3DE4 B0                17181 	.db #0xB0
   3DE5 BF                17182 	.db #0xBF
   3DE6 DF                17183 	.db #0xDF
   3DE7 FF                17184 	.db #0xFF
   3DE8 88                17185 	.db #0x88
   3DE9 FF                17186 	.db #0xFF
   3DEA 48                17187 	.db #0x48
   3DEB FF                17188 	.db #0xFF
   3DEC 3F                17189 	.db #0x3F
   3DED FF                17190 	.db #0xFF
   3DEE FC                17191 	.db #0xFC
   3DEF FF                17192 	.db #0xFF
   3DF0 E2                17193 	.db #0xE2
   3DF1 E3                17194 	.db #0xE3
   3DF2 E1                17195 	.db #0xE1
   3DF3 21                17196 	.db #0x21
   3DF4 F9                17197 	.db #0xF9
   3DF5 F9                17198 	.db #0xF9
   3DF6 35                17199 	.db #0x35
   3DF7 FD                17200 	.db #0xFD
   3DF8 FD                17201 	.db #0xFD
   3DF9 B5                17202 	.db #0xB5
   3DFA FD                17203 	.db #0xFD
   3DFB FD                17204 	.db #0xFD
   3DFC FD                17205 	.db #0xFD
   3DFD FD                17206 	.db #0xFD
   3DFE 35                17207 	.db #0x35
   3DFF FD                17208 	.db #0xFD
   3E00 35                17209 	.db #0x35
   3E01 FD                17210 	.db #0xFD
   3E02 35                17211 	.db #0x35
   3E03 FD                17212 	.db #0xFD
   3E04 37                17213 	.db #0x37
   3E05 FF                17214 	.db #0xFF
   3E06 FD                17215 	.db #0xFD
   3E07 FF                17216 	.db #0xFF
   3E08 09                17217 	.db #0x09
   3E09 FF                17218 	.db #0xFF
   3E0A 0A                17219 	.db #0x0A
   3E0B FF                17220 	.db #0xFF
   3E0C FC                17221 	.db #0xFC
   3E0D FF                17222 	.db #0xFF
   3E0E                   17223 _number:
   3E0E 00                17224 	.db #0x00
   3E0F 00                17225 	.db #0x00
   3E10 18                17226 	.db #0x18
   3E11 18                17227 	.db #0x18
   3E12 24                17228 	.db #0x24
   3E13 24                17229 	.db #0x24
   3E14 24                17230 	.db #0x24
   3E15 24                17231 	.db #0x24
   3E16 24                17232 	.db #0x24
   3E17 24                17233 	.db #0x24
   3E18 18                17234 	.db #0x18
   3E19 18                17235 	.db #0x18
   3E1A 00                17236 	.db #0x00
   3E1B 00                17237 	.db #0x00
   3E1C 00                17238 	.db #0x00
   3E1D 00                17239 	.db #0x00
   3E1E 00                17240 	.db #0x00
   3E1F 00                17241 	.db #0x00
   3E20 18                17242 	.db #0x18
   3E21 18                17243 	.db #0x18
   3E22 08                17244 	.db #0x08
   3E23 08                17245 	.db #0x08
   3E24 08                17246 	.db #0x08
   3E25 08                17247 	.db #0x08
   3E26 08                17248 	.db #0x08
   3E27 08                17249 	.db #0x08
   3E28 08                17250 	.db #0x08
   3E29 08                17251 	.db #0x08
   3E2A 00                17252 	.db #0x00
   3E2B 00                17253 	.db #0x00
   3E2C 00                17254 	.db #0x00
   3E2D 00                17255 	.db #0x00
   3E2E 00                17256 	.db #0x00
   3E2F 00                17257 	.db #0x00
   3E30 3C                17258 	.db #0x3C
   3E31 3C                17259 	.db #0x3C
   3E32 04                17260 	.db #0x04
   3E33 04                17261 	.db #0x04
   3E34 3C                17262 	.db #0x3C
   3E35 3C                17263 	.db #0x3C
   3E36 20                17264 	.db #0x20
   3E37 20                17265 	.db #0x20
   3E38 3C                17266 	.db #0x3C
   3E39 3C                17267 	.db #0x3C
   3E3A 00                17268 	.db #0x00
   3E3B 00                17269 	.db #0x00
   3E3C 00                17270 	.db #0x00
   3E3D 00                17271 	.db #0x00
   3E3E 00                17272 	.db #0x00
   3E3F 00                17273 	.db #0x00
   3E40 3C                17274 	.db #0x3C
   3E41 3C                17275 	.db #0x3C
   3E42 04                17276 	.db #0x04
   3E43 04                17277 	.db #0x04
   3E44 3C                17278 	.db #0x3C
   3E45 3C                17279 	.db #0x3C
   3E46 04                17280 	.db #0x04
   3E47 04                17281 	.db #0x04
   3E48 3C                17282 	.db #0x3C
   3E49 3C                17283 	.db #0x3C
   3E4A 00                17284 	.db #0x00
   3E4B 00                17285 	.db #0x00
   3E4C 00                17286 	.db #0x00
   3E4D 00                17287 	.db #0x00
   3E4E 00                17288 	.db #0x00
   3E4F 00                17289 	.db #0x00
   3E50 24                17290 	.db #0x24
   3E51 24                17291 	.db #0x24
   3E52 24                17292 	.db #0x24
   3E53 24                17293 	.db #0x24
   3E54 3C                17294 	.db #0x3C
   3E55 3C                17295 	.db #0x3C
   3E56 04                17296 	.db #0x04
   3E57 04                17297 	.db #0x04
   3E58 04                17298 	.db #0x04
   3E59 04                17299 	.db #0x04
   3E5A 00                17300 	.db #0x00
   3E5B 00                17301 	.db #0x00
   3E5C 00                17302 	.db #0x00
   3E5D 00                17303 	.db #0x00
   3E5E 00                17304 	.db #0x00
   3E5F 00                17305 	.db #0x00
   3E60 3C                17306 	.db #0x3C
   3E61 3C                17307 	.db #0x3C
   3E62 20                17308 	.db #0x20
   3E63 20                17309 	.db #0x20
   3E64 3C                17310 	.db #0x3C
   3E65 3C                17311 	.db #0x3C
   3E66 04                17312 	.db #0x04
   3E67 04                17313 	.db #0x04
   3E68 3C                17314 	.db #0x3C
   3E69 3C                17315 	.db #0x3C
   3E6A 00                17316 	.db #0x00
   3E6B 00                17317 	.db #0x00
   3E6C 00                17318 	.db #0x00
   3E6D 00                17319 	.db #0x00
   3E6E 00                17320 	.db #0x00
   3E6F 00                17321 	.db #0x00
   3E70 20                17322 	.db #0x20
   3E71 20                17323 	.db #0x20
   3E72 20                17324 	.db #0x20
   3E73 20                17325 	.db #0x20
   3E74 3C                17326 	.db #0x3C
   3E75 3C                17327 	.db #0x3C
   3E76 24                17328 	.db #0x24
   3E77 24                17329 	.db #0x24
   3E78 3C                17330 	.db #0x3C
   3E79 3C                17331 	.db #0x3C
   3E7A 00                17332 	.db #0x00
   3E7B 00                17333 	.db #0x00
   3E7C 00                17334 	.db #0x00
   3E7D 00                17335 	.db #0x00
   3E7E 00                17336 	.db #0x00
   3E7F 00                17337 	.db #0x00
   3E80 3C                17338 	.db #0x3C
   3E81 3C                17339 	.db #0x3C
   3E82 04                17340 	.db #0x04
   3E83 04                17341 	.db #0x04
   3E84 04                17342 	.db #0x04
   3E85 04                17343 	.db #0x04
   3E86 04                17344 	.db #0x04
   3E87 04                17345 	.db #0x04
   3E88 04                17346 	.db #0x04
   3E89 04                17347 	.db #0x04
   3E8A 00                17348 	.db #0x00
   3E8B 00                17349 	.db #0x00
   3E8C 00                17350 	.db #0x00
   3E8D 00                17351 	.db #0x00
   3E8E 00                17352 	.db #0x00
   3E8F 00                17353 	.db #0x00
   3E90 3C                17354 	.db #0x3C
   3E91 3C                17355 	.db #0x3C
   3E92 24                17356 	.db #0x24
   3E93 24                17357 	.db #0x24
   3E94 3C                17358 	.db #0x3C
   3E95 3C                17359 	.db #0x3C
   3E96 24                17360 	.db #0x24
   3E97 24                17361 	.db #0x24
   3E98 3C                17362 	.db #0x3C
   3E99 3C                17363 	.db #0x3C
   3E9A 00                17364 	.db #0x00
   3E9B 00                17365 	.db #0x00
   3E9C 00                17366 	.db #0x00
   3E9D 00                17367 	.db #0x00
   3E9E 00                17368 	.db #0x00
   3E9F 00                17369 	.db #0x00
   3EA0 3C                17370 	.db #0x3C
   3EA1 3C                17371 	.db #0x3C
   3EA2 24                17372 	.db #0x24
   3EA3 24                17373 	.db #0x24
   3EA4 3C                17374 	.db #0x3C
   3EA5 3C                17375 	.db #0x3C
   3EA6 04                17376 	.db #0x04
   3EA7 04                17377 	.db #0x04
   3EA8 3C                17378 	.db #0x3C
   3EA9 3C                17379 	.db #0x3C
   3EAA 00                17380 	.db #0x00
   3EAB 00                17381 	.db #0x00
   3EAC 00                17382 	.db #0x00
   3EAD 00                17383 	.db #0x00
   3EAE                   17384 _attackIcon:
   3EAE 3F                17385 	.db #0x3F
   3EAF FF                17386 	.db #0xFF
   3EB0 7F                17387 	.db #0x7F
   3EB1 FF                17388 	.db #0xFF
   3EB2 FF                17389 	.db #0xFF
   3EB3 C0                17390 	.db #0xC0
   3EB4 FF                17391 	.db #0xFF
   3EB5 CF                17392 	.db #0xCF
   3EB6 F0                17393 	.db #0xF0
   3EB7 DF                17394 	.db #0xDF
   3EB8 F0                17395 	.db #0xF0
   3EB9 DF                17396 	.db #0xDF
   3EBA F0                17397 	.db #0xF0
   3EBB DF                17398 	.db #0xDF
   3EBC F0                17399 	.db #0xF0
   3EBD DF                17400 	.db #0xDF
   3EBE F0                17401 	.db #0xF0
   3EBF DF                17402 	.db #0xDF
   3EC0 F0                17403 	.db #0xF0
   3EC1 FF                17404 	.db #0xFF
   3EC2 90                17405 	.db #0x90
   3EC3 9F                17406 	.db #0x9F
   3EC4 B0                17407 	.db #0xB0
   3EC5 BF                17408 	.db #0xBF
   3EC6 DF                17409 	.db #0xDF
   3EC7 FF                17410 	.db #0xFF
   3EC8 88                17411 	.db #0x88
   3EC9 FF                17412 	.db #0xFF
   3ECA 48                17413 	.db #0x48
   3ECB FF                17414 	.db #0xFF
   3ECC 3F                17415 	.db #0x3F
   3ECD FF                17416 	.db #0xFF
   3ECE FC                17417 	.db #0xFC
   3ECF FF                17418 	.db #0xFF
   3ED0 E2                17419 	.db #0xE2
   3ED1 E3                17420 	.db #0xE3
   3ED2 E1                17421 	.db #0xE1
   3ED3 21                17422 	.db #0x21
   3ED4 F9                17423 	.db #0xF9
   3ED5 F9                17424 	.db #0xF9
   3ED6 35                17425 	.db #0x35
   3ED7 FD                17426 	.db #0xFD
   3ED8 FD                17427 	.db #0xFD
   3ED9 FD                17428 	.db #0xFD
   3EDA FD                17429 	.db #0xFD
   3EDB B5                17430 	.db #0xB5
   3EDC FD                17431 	.db #0xFD
   3EDD 25                17432 	.db #0x25
   3EDE FD                17433 	.db #0xFD
   3EDF FD                17434 	.db #0xFD
   3EE0 35                17435 	.db #0x35
   3EE1 FD                17436 	.db #0xFD
   3EE2 35                17437 	.db #0x35
   3EE3 FD                17438 	.db #0xFD
   3EE4 37                17439 	.db #0x37
   3EE5 FF                17440 	.db #0xFF
   3EE6 FD                17441 	.db #0xFD
   3EE7 FF                17442 	.db #0xFF
   3EE8 09                17443 	.db #0x09
   3EE9 FF                17444 	.db #0xFF
   3EEA 0A                17445 	.db #0x0A
   3EEB FF                17446 	.db #0xFF
   3EEC FC                17447 	.db #0xFC
   3EED FF                17448 	.db #0xFF
   3EEE                   17449 _classicIcon:
   3EEE 3F                17450 	.db #0x3F
   3EEF FF                17451 	.db #0xFF
   3EF0 7F                17452 	.db #0x7F
   3EF1 FF                17453 	.db #0xFF
   3EF2 FF                17454 	.db #0xFF
   3EF3 C0                17455 	.db #0xC0
   3EF4 FF                17456 	.db #0xFF
   3EF5 CF                17457 	.db #0xCF
   3EF6 F0                17458 	.db #0xF0
   3EF7 DF                17459 	.db #0xDF
   3EF8 F0                17460 	.db #0xF0
   3EF9 DF                17461 	.db #0xDF
   3EFA F0                17462 	.db #0xF0
   3EFB DF                17463 	.db #0xDF
   3EFC F0                17464 	.db #0xF0
   3EFD DF                17465 	.db #0xDF
   3EFE F0                17466 	.db #0xF0
   3EFF DF                17467 	.db #0xDF
   3F00 F0                17468 	.db #0xF0
   3F01 FF                17469 	.db #0xFF
   3F02 90                17470 	.db #0x90
   3F03 9F                17471 	.db #0x9F
   3F04 B0                17472 	.db #0xB0
   3F05 BF                17473 	.db #0xBF
   3F06 DF                17474 	.db #0xDF
   3F07 FF                17475 	.db #0xFF
   3F08 88                17476 	.db #0x88
   3F09 FF                17477 	.db #0xFF
   3F0A 48                17478 	.db #0x48
   3F0B FF                17479 	.db #0xFF
   3F0C 3F                17480 	.db #0x3F
   3F0D FF                17481 	.db #0xFF
   3F0E FC                17482 	.db #0xFC
   3F0F FF                17483 	.db #0xFF
   3F10 E2                17484 	.db #0xE2
   3F11 E3                17485 	.db #0xE3
   3F12 E1                17486 	.db #0xE1
   3F13 21                17487 	.db #0x21
   3F14 F9                17488 	.db #0xF9
   3F15 F9                17489 	.db #0xF9
   3F16 35                17490 	.db #0x35
   3F17 FD                17491 	.db #0xFD
   3F18 FD                17492 	.db #0xFD
   3F19 FD                17493 	.db #0xFD
   3F1A FD                17494 	.db #0xFD
   3F1B B5                17495 	.db #0xB5
   3F1C FD                17496 	.db #0xFD
   3F1D FD                17497 	.db #0xFD
   3F1E 35                17498 	.db #0x35
   3F1F FD                17499 	.db #0xFD
   3F20 35                17500 	.db #0x35
   3F21 FD                17501 	.db #0xFD
   3F22 35                17502 	.db #0x35
   3F23 FD                17503 	.db #0xFD
   3F24 37                17504 	.db #0x37
   3F25 FF                17505 	.db #0xFF
   3F26 FD                17506 	.db #0xFD
   3F27 FF                17507 	.db #0xFF
   3F28 09                17508 	.db #0x09
   3F29 FF                17509 	.db #0xFF
   3F2A 0A                17510 	.db #0x0A
   3F2B FF                17511 	.db #0xFF
   3F2C FC                17512 	.db #0xFC
   3F2D FF                17513 	.db #0xFF
   3F2E                   17514 _banditScore:
   3F2E 7E                17515 	.db #0x7E
   3F2F 7E                17516 	.db #0x7E
   3F30 81                17517 	.db #0x81
   3F31 81                17518 	.db #0x81
   3F32 A5                17519 	.db #0xA5
   3F33 A5                17520 	.db #0xA5
   3F34 81                17521 	.db #0x81
   3F35 81                17522 	.db #0x81
   3F36 81                17523 	.db #0x81
   3F37 81                17524 	.db #0x81
   3F38 FF                17525 	.db #0xFF
   3F39 FF                17526 	.db #0xFF
   3F3A FF                17527 	.db #0xFF
   3F3B FF                17528 	.db #0xFF
   3F3C 7E                17529 	.db #0x7E
   3F3D 7E                17530 	.db #0x7E
   3F3E                   17531 _HUD_MAP:
   3F3E 3A                17532 	.db #0x3A
   3F3F 3D                17533 	.db #0x3D
   3F40 32                17534 	.db #0x32
   3F41 34                17535 	.db #0x34
   3F42 3D                17536 	.db #0x3D
   3F43 3D                17537 	.db #0x3D
   3F44 3D                17538 	.db #0x3D
   3F45 3D                17539 	.db #0x3D
   3F46 3D                17540 	.db #0x3D
   3F47 3D                17541 	.db #0x3D
   3F48 3D                17542 	.db #0x3D
   3F49 3D                17543 	.db #0x3D
   3F4A 3D                17544 	.db #0x3D
   3F4B 3D                17545 	.db #0x3D
   3F4C 3D                17546 	.db #0x3D
   3F4D 3D                17547 	.db #0x3D
   3F4E 3D                17548 	.db #0x3D
   3F4F 3D                17549 	.db #0x3D
   3F50 3D                17550 	.db #0x3D
   3F51 3C                17551 	.db #0x3C
   3F52 39                17552 	.db #0x39
   3F53 3E                17553 	.db #0x3E
   3F54 33                17554 	.db #0x33
   3F55 35                17555 	.db #0x35
   3F56 3E                17556 	.db #0x3E
   3F57 26                17557 	.db #0x26
   3F58 26                17558 	.db #0x26
   3F59 26                17559 	.db #0x26
   3F5A 3E                17560 	.db #0x3E
   3F5B 4D                17561 	.db #0x4D
   3F5C 3E                17562 	.db #0x3E
   3F5D 4E                17563 	.db #0x4E
   3F5E 29                17564 	.db #0x29
   3F5F 28                17565 	.db #0x28
   3F60 3E                17566 	.db #0x3E
   3F61 3F                17567 	.db #0x3F
   3F62 28                17568 	.db #0x28
   3F63 28                17569 	.db #0x28
   3F64 28                17570 	.db #0x28
   3F65 3B                17571 	.db #0x3B
   3F66                   17572 _clear:
   3F66 00                17573 	.db #0x00
   3F67 00                17574 	.db #0x00
   3F68 00                17575 	.db #0x00
   3F69 00                17576 	.db #0x00
   3F6A 00                17577 	.db #0x00
   3F6B 00                17578 	.db #0x00
   3F6C 00                17579 	.db #0x00
   3F6D 00                17580 	.db #0x00
   3F6E 00                17581 	.db #0x00
   3F6F 00                17582 	.db #0x00
   3F70 00                17583 	.db #0x00
   3F71 00                17584 	.db #0x00
   3F72 00                17585 	.db #0x00
   3F73 00                17586 	.db #0x00
   3F74 00                17587 	.db #0x00
   3F75 00                17588 	.db #0x00
   3F76 00                17589 	.db #0x00
   3F77 00                17590 	.db #0x00
   3F78 00                17591 	.db #0x00
   3F79 00                17592 	.db #0x00
   3F7A 00                17593 	.db #0x00
   3F7B 00                17594 	.db #0x00
   3F7C 00                17595 	.db #0x00
   3F7D 00                17596 	.db #0x00
   3F7E 00                17597 	.db #0x00
   3F7F 00                17598 	.db #0x00
   3F80 00                17599 	.db #0x00
   3F81 00                17600 	.db #0x00
   3F82 00                17601 	.db #0x00
   3F83 00                17602 	.db #0x00
   3F84 00                17603 	.db #0x00
   3F85 00                17604 	.db #0x00
   3F86                   17605 _heartFill:
   3F86 26                17606 	.db #0x26
   3F87                   17607 _heartEmpty:
   3F87 27                17608 	.db #0x27
   3F88                   17609 _simpleLook:
   3F88 34                17610 	.db #0x34
   3F89                   17611 _hurtLook:
   3F89 36                17612 	.db #0x36
   3F8A                   17613 _attackLook:
   3F8A 37                17614 	.db #0x37
   3F8B                   17615 _jumpLook:
   3F8B 38                17616 	.db #0x38
   3F8C                   17617 _shockIcon:
   3F8C 4D                17618 	.db #0x4D
   3F8D                   17619 _emptyIcon:
   3F8D 3E                17620 	.db #0x3E
   3F8E                   17621 _zero:
   3F8E 28                17622 	.db #0x28
   3F8F                   17623 _one:
   3F8F 29                17624 	.db #0x29
   3F90                   17625 _two:
   3F90 2A                17626 	.db #0x2A
   3F91                   17627 _three:
   3F91 2B                17628 	.db #0x2B
   3F92                   17629 _four:
   3F92 2C                17630 	.db #0x2C
   3F93                   17631 _five:
   3F93 2D                17632 	.db #0x2D
   3F94                   17633 _six:
   3F94 2E                17634 	.db #0x2E
   3F95                   17635 _seven:
   3F95 2F                17636 	.db #0x2F
   3F96                   17637 _eight:
   3F96 30                17638 	.db #0x30
   3F97                   17639 _nine:
   3F97 31                17640 	.db #0x31
ASxxxx Assembler V01.75  (GameBoy Z80-like CPU), page 1.

Symbol Table

    _BCPD_REG                          **** GX
    _BCPS_REG                          **** GX
    _BGP_REG                           **** GX
  0 _BanditAttack                      140C GR
  0 _BanditDie                         14D4 GR
  0 _BanditWalk                        1341 GR
  0 _BenMetLogo                        2A29 GR
  0 _BenMetTiles                       2949 GR
  0 _CityMap                           305E GR
    _DIV_REG                           **** GX
    _DMA_REG                           **** GX
  0 _EcranStart                        2376 GR
  0 _GameOver                          2A4D GR
    _HDMA1_REG                         **** GX
    _HDMA2_REG                         **** GX
    _HDMA3_REG                         **** GX
    _HDMA4_REG                         **** GX
    _HDMA5_REG                         **** GX
  0 _HUD_MAP                           3F3E GR
    _IE_REG                            **** GX
    _IF_REG                            **** GX
  0 _JUDGEATTACK1                      326E GR
  0 _JUDGEATTACK2                      336E GR
  0 _JUDGEHURT                         346E GR
  0 _JUDGEIDLE                         2D5E GR
  0 _JUDGEWALK1                        2E5E GR
  0 _JUDGEWALK2                        2F5E GR
  0 _JudgeDoHurt                       1584 GR
  0 _JudgeGroundAttack                 1625 GR
  1 _JudgePV                           0034 GR
  0 _JudgeSendSentence                 1674 GR
  1 _JudgeSpeed                        0033 GR
  0 _JudgeWalk                         15C4 GR
    _KEY1_REG                          **** GX
    _LCDC_REG                          **** GX
    _LYC_REG                           **** GX
    _LY_REG                            **** GX
  1 _MAX_TIMER                         0000 GR
  1 _MAX_TIMER_BANDIT                  0001 GR
    _NR10_REG                          **** GX
    _NR11_REG                          **** GX
    _NR12_REG                          **** GX
    _NR13_REG                          **** GX
    _NR14_REG                          **** GX
    _NR21_REG                          **** GX
    _NR22_REG                          **** GX
    _NR23_REG                          **** GX
    _NR24_REG                          **** GX
    _NR30_REG                          **** GX
    _NR31_REG                          **** GX
    _NR32_REG                          **** GX
    _NR33_REG                          **** GX
    _NR34_REG                          **** GX
    _NR41_REG                          **** GX
    _NR42_REG                          **** GX
    _NR43_REG                          **** GX
    _NR44_REG                          **** GX
    _NR50_REG                          **** GX
    _NR51_REG                          **** GX
    _NR52_REG                          **** GX
    _OBP0_REG                          **** GX
    _OBP1_REG                          **** GX
    _OCPD_REG                          **** GX
    _OCPS_REG                          **** GX
    _P1_REG                            **** GX
    _RP_REG                            **** GX
    _SB_REG                            **** GX
    _SCX_REG                           **** GX
    _SCY_REG                           **** GX
    _SC_REG                            **** GX
    _STAT_REG                          **** GX
    _SVBK_REG                          **** GX
  0 _ScoreScreen                       2A52 GR
  0 _Shock                             325E GR
    _TAC_REG                           **** GX
    _TIMA_REG                          **** GX
    _TMA_REG                           **** GX
  1 _TimerAnimationAttack              0037 GR
  1 _TimerAnimationHurt                0038 GR
  1 _TimerAnimationJump                0036 GR
  1 _TimerAnimationWalk                0035 GR
  1 _TimerScrollBKG                    0039 GR
  0 _TitleScreen                       2BE2 GR
    _VBK_REG                           **** GX
    _WX_REG                            **** GX
    _WY_REG                            **** GX
  0 ___BanditAttack_end                14D4 R
  0 ___BanditAttack_start              140C R
  0 ___BanditDie_end                   1584 R
  0 ___BanditDie_start                 14D4 R
  0 ___BanditWalk_end                  140C R
  0 ___BanditWalk_start                1341 R
  0 ___EcranStart_end                  2401 R
  0 ___EcranStart_start                2376 R
  0 ___JudgeDoHurt_end                 15C4 R
  0 ___JudgeDoHurt_start               1584 R
  0 ___JudgeGroundAttack_end           1674 R
  0 ___JudgeGroundAttack_start         1625 R
  0 ___JudgeSendSentence_end           167A R
  0 ___JudgeSendSentence_start         1674 R
  0 ___JudgeWalk_end                   1625 R
  0 ___JudgeWalk_start                 15C4 R
  0 ___calculateScoreVillager_end      21D3 R
  0 ___calculateScoreVillager_start    217D R
  0 ___checkBanditScore_end            00BF R
  0 ___checkBanditScore_start          0083 R
  0 ___checkCollideBorder_end          1EF6 R
  0 ___checkCollideBorder_start        1EAD R
  0 ___checkCollideShockAttack_end     018F R
  0 ___checkCollideShockAttack_start   00BF R
  0 ___checkColliderHammerAttack_end   1EAD R
  0 ___checkColliderHammerAttack_sta   1DF2 R
  0 ___clearBkgAndWin_end              25BF R
  0 ___clearBkgAndWin_start            24FA R
  0 ___drawBanditAttack1_end           11DB R
  0 ___drawBanditAttack1_start         1128 R
  0 ___drawBanditAttack2_end           128E R
  0 ___drawBanditAttack2_start         11DB R
  0 ___drawBanditDead_end              1341 R
  0 ___drawBanditDead_start            128E R
  0 ___drawBanditIdle_end              0FC2 R
  0 ___drawBanditIdle_start            0F0F R
  0 ___drawBanditWalk1_end             1075 R
  0 ___drawBanditWalk1_start           0FC2 R
  0 ___drawBanditWalk2_end             1128 R
  0 ___drawBanditWalk2_start           1075 R
  0 ___drawJudgeAttack1_end            0401 R
  0 ___drawJudgeAttack1_start          01BD R
  0 ___drawJudgeAttack2_end            064B R
  0 ___drawJudgeAttack2_start          0401 R
  0 ___drawJudgeHurt_end               0F0F R
  0 ___drawJudgeHurt_start             0CD7 R
  0 ___drawJudgeIDLE_end               0882 R
  0 ___drawJudgeIDLE_start             064B R
  0 ___drawJudgeWalk1_end              0AB9 R
  0 ___drawJudgeWalk1_start            0882 R
  0 ___drawJudgeWalk2_end              0CD7 R
  0 ___drawJudgeWalk2_start            0AB9 R
  0 ___drawPv_end                      2376 R
  0 ___drawPv_start                    2219 R
  0 ___drawScoreBandit_end             2134 R
  0 ___drawScoreBandit_start           20C8 R
  0 ___drawScoreVillager_end           217D R
  0 ___drawScoreVillager_start         2134 R
  0 ___drawShock_end                   2219 R
  0 ___drawShock_start                 21D3 R
  0 ___drawjudgeShockWave_end          0083 R
  0 ___drawjudgeShockWave_start        0023 R
  0 ___generateBanditsST_end           1998 R
  0 ___generateBanditsST_start         1759 R
  0 ___generateBandits_end             1BD2 R
  0 ___generateBandits_start           1998 R
  0 ___initBandits_end                 1759 R
  0 ___initBandits_start               167A R
  0 ___initGame_end                    260D R
  0 ___initGame_start                  25BF R
  0 ___main_end                        2844 R
  0 ___main_start                      260D R
  0 ___moveBandits_end                 1DF2 R
  0 ___moveBandits_start               1BD2 R
  0 ___moveJudge_end                   202A R
  0 ___moveJudge_start                 1EF6 R
  0 ___moveShockWave_end               01BD R
  0 ___moveShockWave_start             018F R
  0 ___scrollCity_end                  20C8 R
  0 ___scrollCity_start                202A R
  0 ___showGameOver_end                24FA R
  0 ___showGameOver_start              2484 R
  0 ___showScore_end                   2484 R
  0 ___showScore_start                 2401 R
  0 ___sound_jump_end                  0023 R
  0 ___sound_jump_start                0000 R
    __cpu                              **** GX
    __io_in                            **** GX
    __io_out                           **** GX
    __io_status                        **** GX
    __modschar                         **** GX
    __moduchar                         **** GX
    __muluchar                         **** GX
    _add_LCD                           **** GX
    _add_TIM                           **** GX
    _add_VBL                           **** GX
    _arand                             **** GX
  0 _attackIcon                        3EAE GR
  0 _attackLook                        3F8A GR
  0 _banditAttack1                     3CEE GR
  0 _banditAttack2                     3D2E GR
  0 _banditDead                        3CAE GR
  0 _banditIDLE                        3BEE GR
  0 _banditScore                       3F2E GR
  0 _banditWalk1                       3C2E GR
  0 _banditWalk2                       3C6E GR
  1 _bandits                           0002 GR
  1 _bestScore                         004D GR
  1 _borderBottom                      0042 GR
  1 _borderLeft                        0040 GR
  1 _borderRight                       003F GR
  1 _borderTop                         0041 GR
    _box                               **** GX
  0 _calculateScoreVillager            217D GR
    _cgb_compatibility                 **** GX
  0 _checkBanditScore                  0083 GR
  0 _checkCollideBorder                1EAD GR
  0 _checkCollideShockAttack           00BF GR
  0 _checkColliderHammerAttack         1DF2 GR
    _circle                            **** GX
  0 _classicIcon                       3EEE GR
  0 _clear                             3F66 GR
  0 _clearBkgAndWin                    24FA GR
    _color                             **** GX
    _cpu_fast                          **** GX
    _cpu_slow                          **** GX
  0 _decors_data                       356E GR
    _delay                             **** GX
    _disable_interrupts                **** GX
    _display_off                       **** GX
  0 _drawBanditAttack1                 1128 GR
  0 _drawBanditAttack2                 11DB GR
  0 _drawBanditDead                    128E GR
  0 _drawBanditIdle                    0F0F GR
  0 _drawBanditWalk1                   0FC2 GR
  0 _drawBanditWalk2                   1075 GR
  0 _drawJudgeAttack1                  01BD GR
  0 _drawJudgeAttack2                  0401 GR
  0 _drawJudgeHurt                     0CD7 GR
  0 _drawJudgeIDLE                     064B GR
  0 _drawJudgeWalk1                    0882 GR
  0 _drawJudgeWalk2                    0AB9 GR
  0 _drawPv                            2219 GR
  0 _drawScoreBandit                   20C8 GR
  0 _drawScoreVillager                 2134 GR
  0 _drawShock                         21D3 GR
    _draw_image                        **** GX
  0 _drawjudgeShockWave                0023 GR
  0 _eight                             3F96 GR
  0 _emptyHeart                        3D6E GR
  0 _emptyIcon                         3F8D GR
    _enable_interrupts                 **** GX
  0 _five                              3F93 GR
  0 _four                              3F92 GR
  1 _gameIsLaunch                      004B GR
  0 _generateBandits                   1998 GR
  0 _generateBanditsST                 1759 GR
    _get_bkg_tiles                     **** GX
    _get_data                          **** GX
    _get_mode                          **** GX
    _get_sprite_data                   **** GX
    _get_sprite_prop                   **** GX
    _get_sprite_tile                   **** GX
    _get_tiles                         **** GX
    _get_win_tiles                     **** GX
    _getpix                            **** GX
    _gets                              **** GX
    _gotogxy                           **** GX
    _gotoxy                            **** GX
    _gprint                            **** GX
    _gprintf                           **** GX
    _gprintln                          **** GX
    _gprintn                           **** GX
  1 _hammerPos                         0043 GR
  0 _heart                             3D7E GR
  0 _heartEmpty                        3F87 GR
  0 _heartFill                         3F86 GR
    _hiramcpy                          **** GX
  0 _hurtIcon                          3D8E GR
  0 _hurtLook                          3F89 GR
  1 _i                                 003D GR
  0 _initBandits                       167A GR
  0 _initGame                          25BF GR
    _initarand                         **** GX
    _initrand                          **** GX
  1 _isAttacking                       003B GR
  1 _isGameOver                        004C GR
  1 _isHurt                            003C GR
  1 _isWalking                         003A GR
  1 _j                                 003E GR
    _joypad                            **** GX
  0 _jumpIcon                          3DCE GR
  0 _jumpLook                          3F8B GR
    _line                              **** GX
  0 _logoTiles                         2844 GR
  0 _logoWin                           2934 GR
  0 _main                              260D GR
    _mode                              **** GX
  0 _moveBandits                       1BD2 GR
  0 _moveJudge                         1EF6 GR
  0 _moveShockWave                     018F GR
    _move_bkg                          **** GX
    _move_sprite                       **** GX
    _move_win                          **** GX
  1 _nbBanditToDraw                    002D GR
  0 _nine                              3F97 GR
  0 _number                            3E0E GR
  0 _one                               3F8F GR
  1 _pickComportement                  002C GR
    _plot                              **** GX
    _plot_point                        **** GX
  1 _posXJudge                         002E GR
  1 _posXShock                         0030 GR
  1 _posYJudge                         002F GR
  1 _posYShock                         0031 GR
    _posx                              **** GX
    _posy                              **** GX
    _printf                            **** GX
    _putchar                           **** GX
    _puts                              **** GX
    _rand                              **** GX
    _randw                             **** GX
    _receive_byte                      **** GX
    _remove_JOY                        **** GX
    _remove_LCD                        **** GX
    _remove_SIO                        **** GX
    _remove_TIM                        **** GX
    _remove_VBL                        **** GX
    _reset                             **** GX
  1 _score_bandit                      0047 GR
  1 _score_bandit_digitDeux            0045 GR
  1 _score_bandit_digitTrois           0046 GR
  1 _score_bandit_digitUn              0044 GR
  1 _score_villager                    0048 GR
  1 _score_villager_digitDeux          004A GR
  1 _score_villager_digitUn            0049 GR
  0 _scrollCity                        202A GR
    _scroll_bkg                        **** GX
    _scroll_sprite                     **** GX
    _scroll_win                        **** GX
    _send_byte                         **** GX
    _set_bkg_data                      **** GX
    _set_bkg_palette                   **** GX
    _set_bkg_palette_entry             **** GX
    _set_bkg_tiles                     **** GX
    _set_data                          **** GX
    _set_interrupts                    **** GX
    _set_sprite_data                   **** GX
    _set_sprite_palette                **** GX
    _set_sprite_palette_entry          **** GX
    _set_sprite_prop                   **** GX
    _set_sprite_tile                   **** GX
    _set_tiles                         **** GX
    _set_win_data                      **** GX
    _set_win_tiles                     **** GX
    _setchar                           **** GX
  0 _seven                             3F95 GR
    _sgb_check                         **** GX
  0 _shockIcon                         3F8C GR
  1 _shockSend                         0032 GR
  0 _showGameOver                      2484 GR
  0 _showScore                         2401 GR
  0 _simpleLook                        3F88 GR
  0 _six                               3F94 GR
  0 _sound_jump                        0000 GR
    _sprintf                           **** GX
    _switch_data                       **** GX
    _sys_time                          **** GX
  0 _three                             3F91 GR
  0 _two                               3F90 GR
    _wait_vbl_done                     **** GX
    _waitpad                           **** GX
    _waitpadup                         **** GX
    _wrtchr                            **** GX
  0 _zero                              3F8E GR

ASxxxx Assembler V01.75  (GameBoy Z80-like CPU), page 2.

Area Table

   0 _CODE                              size 3F98   flags 0
   1 _DATA                              size   4E   flags 0
   2 _OVERLAY                           size    0   flags 0
   3 _ISEG                              size    0   flags 0
   4 _BSEG                              size    0   flags 0
   5 _XSEG                              size    0   flags 0
   6 _GSINIT                            size   C8   flags 0
   7 _GSFINAL                           size    0   flags 0
